 libnp

 Timestamp is 54a16b44 (Mon Dec 29 15:55:00 2014)

 Preferred load address is 10000000

 Start         Length     Name                   Class
 0001:00000000 000f7381H .textbss                DATA
 0002:00000000 0003114fH .text                   CODE
 0002:00031150 000040beH .text$di                CODE
 0002:00035210 001c1e0dH .text$mn                CODE
 0002:001f7020 0001ed40H .text$x                 CODE
 0002:00215d60 000020ddH .text$yd                CODE
 0003:00000000 00000104H .CRT$XCA                DATA
 0003:00000104 0000010eH .CRT$XCC                DATA
 0003:00000214 00000109H .CRT$XCL                DATA
 0003:00000320 00000313H .CRT$XCU                DATA
 0003:00000634 00000104H .CRT$XCZ                DATA
 0003:00000738 00000104H .CRT$XIA                DATA
 0003:0000083c 0000011cH .CRT$XIC                DATA
 0003:00000958 00000104H .CRT$XIZ                DATA
 0003:00000a5c 00000104H .CRT$XPA                DATA
 0003:00000b60 00000109H .CRT$XPX                DATA
 0003:00000c6c 00000104H .CRT$XPXA               DATA
 0003:00000d70 00000104H .CRT$XPZ                DATA
 0003:00000e74 00000104H .CRT$XTA                DATA
 0003:00000f78 00000104H .CRT$XTZ                DATA
 0003:00001080 000300d2H .rdata                  DATA
 0003:00031154 0000018bH .rdata$debug            DATA
 0003:000312e0 00012322H .rdata$r                DATA
 0003:00043604 00000104H .rtc$IAA                DATA
 0003:00043708 00000104H .rtc$IMZ                DATA
 0003:0004380c 00000104H .rtc$IZZ                DATA
 0003:00043910 00000104H .rtc$TAA                DATA
 0003:00043a14 00000104H .rtc$TMZ                DATA
 0003:00043b18 00000104H .rtc$TZZ                DATA
 0003:00043c20 000235aeH .xdata$x                DATA
 0003:000671d0 000006ceH .edata                  DATA
 0004:00000000 00002148H .data                   DATA
 0004:00002148 000123dfH .data$r                 DATA
 0004:00014540 021c9c44H .bss                    DATA
 0005:00000000 000002e0H .idata$5                DATA
 0005:000002e0 00000050H .idata$2                DATA
 0005:00000330 00000014H .idata$3                DATA
 0005:00000344 000002e0H .idata$4                DATA
 0005:00000624 000009c8H .idata$6                DATA
 0006:00000000 00000169H .rsrc$01                DATA
 0006:00000170 000002ccH .rsrc$02                DATA

  Address         Publics by Value              Rva+Base       Lib:Object

 0000:00000000       ___guard_fids_count        00000000     <absolute>
 0000:00000000       __except_list              00000000     <absolute>
 0000:00000000       ___safe_se_handler_table   00000000     <absolute>
 0000:00000000       ___guard_fids_table        00000000     <absolute>
 0000:00000000       ___safe_se_handler_count   00000000     <absolute>
 0000:00000000       ___guard_flags             00000000     <absolute>
 0000:00000000       ___ImageBase               10000000     <linker-defined>
 0001:00000000       __enc$textbss$begin        10001000     <linker-defined>
 0001:000f7381       __enc$textbss$end          100f8381     <linker-defined>
 0002:0001ea60       _cbc_start                 10117a60 f   tomcrypt:cbc_start.obj
 0002:0001eaf0       _cbc_decrypt               10117af0 f   tomcrypt:cbc_decrypt.obj
 0002:0001ecc0       _cbc_done                  10117cc0 f   tomcrypt:cbc_done.obj
 0002:0001ed00       _ctr_start                 10117d00 f   tomcrypt:ctr_start.obj
 0002:0001ee70       _ctr_decrypt               10117e70 f   tomcrypt:ctr_decrypt.obj
 0002:0001ee80       _ctr_done                  10117e80 f   tomcrypt:ctr_done.obj
 0002:0001eec0       _find_cipher               10117ec0 f   tomcrypt:crypt_find_cipher.obj
 0002:0001ef30       _register_cipher           10117f30 f   tomcrypt:crypt_register_cipher.obj
 0002:000212d0       _sha256_init               1011a2d0 f   tomcrypt:sha256.obj
 0002:00021330       _sha256_process            1011a330 f   tomcrypt:sha256.obj
 0002:00021400       _sha256_done               1011a400 f   tomcrypt:sha256.obj
 0002:00021610       _sha256_test               1011a610 f   tomcrypt:sha256.obj
 0002:00021710       _sha224_init               1011a710 f   tomcrypt:sha256.obj
 0002:00021770       _sha224_done               1011a770 f   tomcrypt:sha256.obj
 0002:000217d0       _sha224_test               1011a7d0 f   tomcrypt:sha256.obj
 0002:00021bb0       _ecc_import_ex             1011abb0 f   tomcrypt:ecc_import.obj
 0002:00021df0       _ecc_import                1011adf0 f   tomcrypt:ecc_import.obj
 0002:00021e10       _ecc_verify_hash           1011ae10 f   tomcrypt:ecc_verify_hash.obj
 0002:00022340       _rijndael_setup            1011b340 f   tomcrypt:aes.obj
 0002:00022dd0       _rijndael_ecb_encrypt      1011bdd0 f   tomcrypt:aes.obj
 0002:00023510       _rijndael_ecb_decrypt      1011c510 f   tomcrypt:aes.obj
 0002:00023cf0       _rijndael_test             1011ccf0 f   tomcrypt:aes.obj
 0002:00024040       _rijndael_done             1011d040 f   tomcrypt:aes.obj
 0002:00024070       _rijndael_keysize          1011d070 f   tomcrypt:aes.obj
 0002:00024880       _cipher_is_valid           1011d880 f   tomcrypt:crypt_cipher_is_valid.obj
 0002:000248b0       _ctr_encrypt               1011d8b0 f   tomcrypt:ctr_encrypt.obj
 0002:00024ab0       _ltc_init_multi            1011dab0 f   tomcrypt:multi.obj
 0002:00024b30       _ltc_deinit_multi          1011db30 f   tomcrypt:multi.obj
 0002:00024b60       _der_decode_sequence_multi 1011db60 f   tomcrypt:der_decode_sequence_multi.obj
 0002:00024c70       _ltc_ecc_new_point         1011dc70 f   tomcrypt:ltc_ecc_points.obj
 0002:00024cc0       _ltc_ecc_del_point         1011dcc0 f   tomcrypt:ltc_ecc_points.obj
 0002:00024cf0       _ltc_ecc_is_valid_idx      1011dcf0 f   tomcrypt:ltc_ecc_is_valid_idx.obj
 0002:00024d30       _zeromem                   1011dd30 f   tomcrypt:zeromem.obj
 0002:00024d50       _rsa_exptmod               1011dd50 f   tomcrypt:rsa_exptmod.obj
 0002:00024ff0       _rsa_make_key              1011dff0 f   tomcrypt:rsa_make_key.obj
 0002:00025460       _ltc_ecc_mul2add           1011e460 f   tomcrypt:ltc_ecc_mul2add.obj
 0002:00025b00       _ltc_ecc_map               1011eb00 f   tomcrypt:ltc_ecc_map.obj
 0002:00025cc0       _ltc_ecc_projective_dbl_point 1011ecc0 f   tomcrypt:ltc_ecc_projective_dbl_point.obj
 0002:00026380       _ltc_ecc_projective_add_point 1011f380 f   tomcrypt:ltc_ecc_projective_add_point.obj
 0002:00026e30       _ltc_ecc_mulmod            1011fe30 f   tomcrypt:ltc_ecc_mulmod.obj
 0002:000274c0       _der_decode_sequence_ex    101204c0 f   tomcrypt:der_decode_sequence_ex.obj
 0002:00027ba0       _rand_prime                10120ba0 f   tomcrypt:rand_prime.obj
 0002:00027d00       _prng_is_valid             10120d00 f   tomcrypt:crypt_prng_is_valid.obj
 0002:00027d30       _der_decode_choice         10120d30 f   tomcrypt:der_decode_choice.obj
 0002:000281e0       _der_length_sequence       101211e0 f   tomcrypt:der_length_sequence.obj
 0002:000284a0       _der_decode_utctime        101214a0 f   tomcrypt:der_decode_utctime.obj
 0002:000287a0       _der_utf8_charsize         101217a0 f   tomcrypt:der_length_utf8_string.obj
 0002:000287e0       _der_length_utf8_string    101217e0 f   tomcrypt:der_length_utf8_string.obj
 0002:000288c0       _der_decode_utf8_string    101218c0 f   tomcrypt:der_decode_utf8_string.obj
 0002:00028a70       _der_printable_char_encode 10121a70 f   tomcrypt:der_length_printable_string.obj
 0002:00028aa0       _der_printable_value_decode 10121aa0 f   tomcrypt:der_length_printable_string.obj
 0002:00028ad0       _der_length_printable_string 10121ad0 f   tomcrypt:der_length_printable_string.obj
 0002:00028b80       _der_decode_printable_string 10121b80 f   tomcrypt:der_decode_printable_string.obj
 0002:00028c80       _der_ia5_char_encode       10121c80 f   tomcrypt:der_length_ia5_string.obj
 0002:00028cb0       _der_ia5_value_decode      10121cb0 f   tomcrypt:der_length_ia5_string.obj
 0002:00028ce0       _der_length_ia5_string     10121ce0 f   tomcrypt:der_length_ia5_string.obj
 0002:00028d90       _der_decode_ia5_string     10121d90 f   tomcrypt:der_decode_ia5_string.obj
 0002:00028e90       _der_object_identifier_bits 10121e90 f   tomcrypt:der_length_object_identifier.obj
 0002:00028eb0       _der_length_object_identifier 10121eb0 f   tomcrypt:der_length_object_identifier.obj
 0002:00028fe0       _der_decode_object_identifier 10121fe0 f   tomcrypt:der_decode_object_identifier.obj
 0002:00029130       _der_length_octet_string   10122130 f   tomcrypt:der_length_octet_string.obj
 0002:000291a0       _der_decode_octet_string   101221a0 f   tomcrypt:der_decode_octet_string.obj
 0002:00029280       _der_decode_raw_bit_string 10122280 f   tomcrypt:der_decode_raw_bit_string.obj
 0002:000293c0       _der_length_bit_string     101223c0 f   tomcrypt:der_length_bit_string.obj
 0002:00029430       _der_decode_bit_string     10122430 f   tomcrypt:der_decode_bit_string.obj
 0002:00029550       _der_length_short_integer  10122550 f   tomcrypt:der_length_short_integer.obj
 0002:000295b0       _der_decode_short_integer  101225b0 f   tomcrypt:der_decode_short_integer.obj
 0002:00029620       _der_length_integer        10122620 f   tomcrypt:der_length_integer.obj
 0002:00029720       _der_decode_integer        10122720 f   tomcrypt:der_decode_integer.obj
 0002:000298a0       _der_length_boolean        101228a0 f   tomcrypt:der_length_boolean.obj
 0002:000298b0       _der_decode_boolean        101228b0 f   tomcrypt:der_decode_boolean.obj
 0002:00029900       _der_length_utctime        10122900 f   tomcrypt:der_length_utctime.obj
 0002:00029940       _mp_init                   10122940 f   tommath:bn_mp_init.obj
 0002:000299a0       _mp_clear                  101229a0 f   tommath:bn_mp_clear.obj
 0002:00029a00       _mp_neg                    10122a00 f   tommath:bn_mp_neg.obj
 0002:00029a50       _mp_copy                   10122a50 f   tommath:bn_mp_copy.obj
 0002:00029ad0       _mp_set_int                10122ad0 f   tommath:bn_mp_set_int.obj
 0002:00029b30       _mp_get_int                10122b30 f   tommath:bn_mp_get_int.obj
 0002:00029b80       _mp_cmp                    10122b80 f   tommath:bn_mp_cmp.obj
 0002:00029bd0       _mp_cmp_d                  10122bd0 f   tommath:bn_mp_cmp_d.obj
 0002:00029c10       _mp_count_bits             10122c10 f   tommath:bn_mp_count_bits.obj
 0002:00029c50       _mp_cnt_lsb                10122c50 f   tommath:bn_mp_cnt_lsb.obj
 0002:00029cc0       _mp_2expt                  10122cc0 f   tommath:bn_mp_2expt.obj
 0002:00029d40       _mp_read_radix             10122d40 f   tommath:bn_mp_read_radix.obj
 0002:00029e60       _mp_toradix                10122e60 f   tommath:bn_mp_toradix.obj
 0002:00029f80       _mp_unsigned_bin_size      10122f80 f   tommath:bn_mp_unsigned_bin_size.obj
 0002:00029fb0       _mp_to_unsigned_bin        10122fb0 f   tommath:bn_mp_to_unsigned_bin.obj
 0002:0002a060       _mp_read_unsigned_bin      10123060 f   tommath:bn_mp_read_unsigned_bin.obj
 0002:0002a0e0       _mp_add                    101230e0 f   tommath:bn_mp_add.obj
 0002:0002a160       _mp_add_d                  10123160 f   tommath:bn_mp_add_d.obj
 0002:0002a2b0       _mp_sub                    101232b0 f   tommath:bn_mp_sub.obj
 0002:0002a330       _mp_sub_d                  10123330 f   tommath:bn_mp_sub_d.obj
 0002:0002a470       _mp_mul                    10123470 f   tommath:bn_mp_mul.obj
 0002:0002a580       _mp_mul_d                  10123580 f   tommath:bn_mp_mul_d.obj
 0002:0002a660       _mp_sqr                    10123660 f   tommath:bn_mp_sqr.obj
 0002:0002a710       _mp_div                    10123710 f   tommath:bn_mp_div.obj
 0002:0002ad70       _mp_div_2                  10123d70 f   tommath:bn_mp_div_2.obj
 0002:0002ae30       _mp_mod_d                  10123e30 f   tommath:bn_mp_mod_d.obj
 0002:0002ae50       _mp_gcd                    10123e50 f   tommath:bn_mp_gcd.obj
 0002:0002b0a0       _mp_lcm                    101240a0 f   tommath:bn_mp_lcm.obj
 0002:0002b190       _mp_addmod                 10124190 f   tommath:bn_mp_addmod.obj
 0002:0002b220       _mp_submod                 10124220 f   tommath:bn_mp_submod.obj
 0002:0002b2b0       _mp_mulmod                 101242b0 f   tommath:bn_mp_mulmod.obj
 0002:0002b340       _mp_sqrmod                 10124340 f   tommath:bn_mp_sqrmod.obj
 0002:0002b3c0       _mp_invmod                 101243c0 f   tommath:bn_mp_invmod.obj
 0002:0002b400       _mp_montgomery_setup       10124400 f   tommath:bn_mp_montgomery_setup.obj
 0002:0002b480       _mp_montgomery_calc_normalization 10124480 f   tommath:bn_mp_montgomery_calc_normalization.obj
 0002:0002b540       _mp_montgomery_reduce      10124540 f   tommath:bn_mp_montgomery_reduce.obj
 0002:0002b6e0       _mp_exptmod                101246e0 f   tommath:bn_mp_exptmod.obj
 0002:0002b8a0       _mp_prime_is_prime         101248a0 f   tommath:bn_mp_prime_is_prime.obj
 0002:0002b9d0       _mp_rand                   101249d0 f   tommath:bn_mp_rand.obj
 0002:0002ba60       _mp_grow                   10124a60 f   tommath:bn_mp_grow.obj
 0002:0002baf0       _mp_clamp                  10124af0 f   tommath:bn_mp_clamp.obj
 0002:0002bb30       _mp_mul_2d                 10124b30 f   tommath:bn_mp_mul_2d.obj
 0002:0002bc70       _mp_zero                   10124c70 f   tommath:bn_mp_zero.obj
 0002:0002bcb0       _mp_cmp_mag                10124cb0 f   tommath:bn_mp_cmp_mag.obj
 0002:0002bd40       _bn_reverse                10124d40 f   tommath:bn_reverse.obj
 0002:0002bdb0       _mp_div_d                  10124db0 f   tommath:bn_mp_div_d.obj
 0002:0002bfb0       _mp_init_copy              10124fb0 f   tommath:bn_mp_init_copy.obj
 0002:0002bfe0       _mp_div_2d                 10124fe0 f   tommath:bn_mp_div_2d.obj
 0002:0002c1c0       _s_mp_sub                  101251c0 f   tommath:bn_s_mp_sub.obj
 0002:0002c2c0       _s_mp_add                  101252c0 f   tommath:bn_s_mp_add.obj
 0002:0002c400       _s_mp_mul_digs             10125400 f   tommath:bn_s_mp_mul_digs.obj
 0002:0002c5a0       _fast_s_mp_mul_digs        101255a0 f   tommath:bn_fast_s_mp_mul_digs.obj
 0002:0002c730       _mp_karatsuba_mul          10125730 f   tommath:bn_mp_karatsuba_mul.obj
 0002:0002cb10       _mp_toom_mul               10125b10 f   tommath:bn_mp_toom_mul.obj
 0002:0002d580       _s_mp_sqr                  10126580 f   tommath:bn_s_mp_sqr.obj
 0002:0002d760       _fast_s_mp_sqr             10126760 f   tommath:bn_fast_s_mp_sqr.obj
 0002:0002d950       _mp_karatsuba_sqr          10126950 f   tommath:bn_mp_karatsuba_sqr.obj
 0002:0002dc40       _mp_toom_sqr               10126c40 f   tommath:bn_mp_toom_sqr.obj
 0002:0002e3d0       _mp_exch                   101273d0 f   tommath:bn_mp_exch.obj
 0002:0002e420       _mp_rshd                   10127420 f   tommath:bn_mp_rshd.obj
 0002:0002e4a0       _mp_lshd                   101274a0 f   tommath:bn_mp_lshd.obj
 0002:0002e530       _mp_init_size              10127530 f   tommath:bn_mp_init_size.obj
 0002:0002e5b0       _mp_abs                    101275b0 f   tommath:bn_mp_abs.obj
 0002:0002e5e0       _mp_clear_multi            101275e0 f   tommath:bn_mp_clear_multi.obj
 0002:0002e610       _mp_init_multi             10127610 f   tommath:bn_mp_init_multi.obj
 0002:0002e690       _mp_mod                    10127690 f   tommath:bn_mp_mod.obj
 0002:0002e750       _mp_invmod_slow            10127750 f   tommath:bn_mp_invmod_slow.obj
 0002:0002ed00       _fast_mp_invmod            10127d00 f   tommath:bn_fast_mp_invmod.obj
 0002:0002f080       _mp_mul_2                  10128080 f   tommath:bn_mp_mul_2.obj
 0002:0002f140       _mp_set                    10128140 f   tommath:bn_mp_set.obj
 0002:0002f180       _fast_mp_montgomery_reduce 10128180 f   tommath:bn_fast_mp_montgomery_reduce.obj
 0002:0002f3e0       _mp_exptmod_fast           101283e0 f   tommath:bn_mp_exptmod_fast.obj
 0002:0002fad0       _s_mp_exptmod              10128ad0 f   tommath:bn_s_mp_exptmod.obj
 0002:00030170       _mp_reduce_is_2k           10129170 f   tommath:bn_mp_reduce_is_2k.obj
 0002:000301f0       _mp_dr_is_modulus          101291f0 f   tommath:bn_mp_dr_is_modulus.obj
 0002:00030240       _mp_reduce_is_2k_l         10129240 f   tommath:bn_mp_reduce_is_2k_l.obj
 0002:000302a0       _mp_prime_miller_rabin     101292a0 f   tommath:bn_mp_prime_miller_rabin.obj
 0002:000304b0       _mp_prime_is_divisible     101294b0 f   tommath:bn_mp_prime_is_divisible.obj
 0002:00030510       _mp_div_3                  10129510 f   tommath:bn_mp_div_3.obj
 0002:00030670       _mp_mod_2d                 10129670 f   tommath:bn_mp_mod_2d.obj
 0002:00030790       _mp_reduce_2k              10129790 f   tommath:bn_mp_reduce_2k.obj
 0002:00030880       _mp_reduce_2k_setup        10129880 f   tommath:bn_mp_reduce_2k_setup.obj
 0002:00030930       _mp_dr_reduce              10129930 f   tommath:bn_mp_dr_reduce.obj
 0002:00030a50       _mp_dr_setup               10129a50 f   tommath:bn_mp_dr_setup.obj
 0002:00030a70       _mp_reduce_2k_l            10129a70 f   tommath:bn_mp_reduce_2k_l.obj
 0002:00030b60       _mp_reduce_2k_setup_l      10129b60 f   tommath:bn_mp_reduce_2k_setup_l.obj
 0002:00030be0       _mp_reduce                 10129be0 f   tommath:bn_mp_reduce.obj
 0002:00030da0       _mp_reduce_setup           10129da0 f   tommath:bn_mp_reduce_setup.obj
 0002:00030df0       _s_mp_mul_high_digs        10129df0 f   tommath:bn_s_mp_mul_high_digs.obj
 0002:00030fb0       _fast_s_mp_mul_high_digs   10129fb0 f   tommath:bn_fast_s_mp_mul_high_digs.obj
 0002:00035210       ??$_Allocate@D@std@@YAPADIPAD@Z 1012e210 f i API.obj
 0002:00035270       ??$addressof@D@std@@YAPADAAD@Z 1012e270 f i API.obj
 0002:00035290       ??$construct@PADAAPAD@?$_Wrap_alloc@V?$allocator@D@std@@@std@@QAEXPAPADAAPAD@Z 1012e290 f i API.obj
 0002:000352d0       ??$construct@PADAAPAD@?$allocator@D@std@@QAEXPAPADAAPAD@Z 1012e2d0 f i API.obj
 0002:00035380       ??$construct@PADAAPAD@?$allocator_traits@V?$allocator@D@std@@@std@@SAXAAV?$allocator@D@1@PAPADAAPAD@Z 1012e380 f i API.obj
 0002:000353c0       ??$destroy@PAD@?$_Wrap_alloc@V?$allocator@D@std@@@std@@QAEXPAPAD@Z 1012e3c0 f i API.obj
 0002:000353f0       ??$destroy@PAD@?$allocator@D@std@@QAEXPAPAD@Z 1012e3f0 f i API.obj
 0002:00035410       ??$destroy@PAD@?$allocator_traits@V?$allocator@D@std@@@std@@SAXAAV?$allocator@D@1@PAPAD@Z 1012e410 f i API.obj
 0002:00035440       ??$forward@AAPAD@std@@YAAAPADAAPAD@Z 1012e440 f i API.obj
 0002:00035460       ??0?$_String_alloc@$0A@U?$_String_base_types@DV?$allocator@D@std@@@std@@@std@@QAE@ABV?$allocator@D@1@@Z 1012e460 f i API.obj
 0002:00035490       ??0?$_String_val@U?$_Simple_types@D@std@@@std@@QAE@XZ 1012e490 f i API.obj
 0002:000354d0       ??0?$_Wrap_alloc@V?$allocator@D@std@@@std@@QAE@XZ 1012e4d0 f i API.obj
 0002:00035500       ??0?$allocator@D@std@@QAE@XZ 1012e500 f i API.obj
 0002:00035520       ??0?$basic_string@DU?$char_traits@D@std@@V?$allocator@D@2@@std@@QAE@PBD@Z 1012e520 f i API.obj
 0002:00035580       ??0_Generic_error_category@std@@QAE@XZ 1012e580 f i API.obj
 0002:000355b0       ??0_Ignore@std@@QAE@XZ     1012e5b0 f i API.obj
 0002:000355d0       ??0_Iostream_error_category@std@@QAE@XZ 1012e5d0 f i API.obj
 0002:00035600       ??0_System_error_category@std@@QAE@XZ 1012e600 f i API.obj
 0002:00035630       ??0error_category@std@@QAE@XZ 1012e630 f i API.obj
 0002:00035660       ??0error_condition@std@@QAE@HABVerror_category@1@@Z 1012e660 f i API.obj
 0002:000356a0       ??0id@locale@std@@QAE@I@Z  1012e6a0 f i API.obj
 0002:000356d0       ??1_Generic_error_category@std@@UAE@XZ 1012e6d0 f i API.obj
 0002:00035700       ??1_Iostream_error_category@std@@UAE@XZ 1012e700 f i API.obj
 0002:00035730       ??1_System_error_category@std@@UAE@XZ 1012e730 f i API.obj
 0002:00035760       ??1error_category@std@@UAE@XZ 1012e760 f i API.obj
 0002:00035790       ??2@YAPAXIPAX@Z            1012e790 f i API.obj
 0002:000357b0       ??3@YAXPAX0@Z              1012e7b0 f i API.obj
 0002:000357d0       ??8error_category@std@@QBE_NABV01@@Z 1012e7d0 f i API.obj
 0002:00035810       ??8error_condition@std@@QBE_NABV01@@Z 1012e810 f i API.obj
 0002:00035890       ??_E_Generic_error_category@std@@UAEPAXI@Z 1012e890 f i API.obj
 0002:00035890       ??_G_Generic_error_category@std@@UAEPAXI@Z 1012e890 f i API.obj
 0002:000358e0       ??_E_Iostream_error_category@std@@UAEPAXI@Z 1012e8e0 f i API.obj
 0002:000358e0       ??_G_Iostream_error_category@std@@UAEPAXI@Z 1012e8e0 f i API.obj
 0002:00035930       ??_G_System_error_category@std@@UAEPAXI@Z 1012e930 f i API.obj
 0002:00035930       ??_E_System_error_category@std@@UAEPAXI@Z 1012e930 f i API.obj
 0002:00035980       ??_Gerror_category@std@@UAEPAXI@Z 1012e980 f i API.obj
 0002:00035980       ??_Eerror_category@std@@UAEPAXI@Z 1012e980 f i API.obj
 0002:000359d0       ?_Copy@?$basic_string@DU?$char_traits@D@std@@V?$allocator@D@2@@std@@QAEXII@Z 1012e9d0 f i API.obj
 0002:00035c00       ?_Eos@?$basic_string@DU?$char_traits@D@std@@V?$allocator@D@2@@std@@QAEXI@Z 1012ec00 f i API.obj
 0002:00035c50       ?_Getal@?$_String_alloc@$0A@U?$_String_base_types@DV?$allocator@D@std@@@std@@@std@@QBE?AU?$_Wrap_alloc@V?$allocator@D@std@@@2@XZ 1012ec50 f i API.obj
 0002:00035c80       ?_Grow@?$basic_string@DU?$char_traits@D@std@@V?$allocator@D@2@@std@@QAE_NI_N@Z 1012ec80 f i API.obj
 0002:00035d60       ?_Inside@?$basic_string@DU?$char_traits@D@std@@V?$allocator@D@2@@std@@QAE_NPBD@Z 1012ed60 f i API.obj
 0002:00035dc0       ?_Myptr@?$_String_val@U?$_Simple_types@D@std@@@std@@QAEPADXZ 1012edc0 f i API.obj
 0002:00035e10       ?_Myptr@?$_String_val@U?$_Simple_types@D@std@@@std@@QBEPBDXZ 1012ee10 f i API.obj
 0002:00035e60       ?_Tidy@?$basic_string@DU?$char_traits@D@std@@V?$allocator@D@2@@std@@QAEX_NI@Z 1012ee60 f i API.obj
 0002:00035f30       ?_Xlen@?$basic_string@DU?$char_traits@D@std@@V?$allocator@D@2@@std@@QBEXXZ 1012ef30 f i API.obj
 0002:00035f60       ?_Xran@?$basic_string@DU?$char_traits@D@std@@V?$allocator@D@2@@std@@QBEXXZ 1012ef60 f i API.obj
 0002:00035f90       ?allocate@?$_Wrap_alloc@V?$allocator@D@std@@@std@@QAEPADI@Z 1012ef90 f i API.obj
 0002:00035fc0       ?allocate@?$allocator@D@std@@QAEPADI@Z 1012efc0 f i API.obj
 0002:00035ff0       ?assign@?$basic_string@DU?$char_traits@D@std@@V?$allocator@D@2@@std@@QAEAAV12@ABV12@II@Z 1012eff0 f i API.obj
 0002:000360d0       ?assign@?$basic_string@DU?$char_traits@D@std@@V?$allocator@D@2@@std@@QAEAAV12@PBD@Z 1012f0d0 f i API.obj
 0002:00036110       ?assign@?$basic_string@DU?$char_traits@D@std@@V?$allocator@D@2@@std@@QAEAAV12@PBDI@Z 1012f110 f i API.obj
 0002:000361c0       ?assign@?$char_traits@D@std@@SAXAADABD@Z 1012f1c0 f i API.obj
 0002:000361e0       ?category@error_code@std@@QBEABVerror_category@2@XZ 1012f1e0 f i API.obj
 0002:00036200       ?category@error_condition@std@@QBEABVerror_category@2@XZ 1012f200 f i API.obj
 0002:00036220       ?copy@?$char_traits@D@std@@SAPADPADPBDI@Z 1012f220 f i API.obj
 0002:00036270       ?deallocate@?$_Wrap_alloc@V?$allocator@D@std@@@std@@QAEXPADI@Z 1012f270 f i API.obj
 0002:000362a0       ?deallocate@?$allocator@D@std@@QAEXPADI@Z 1012f2a0 f i API.obj
 0002:000362d0       ?default_error_condition@_System_error_category@std@@UBE?AVerror_condition@2@H@Z 1012f2d0 f i API.obj
 0002:00036340       ?default_error_condition@error_category@std@@UBE?AVerror_condition@2@H@Z 1012f340 f i API.obj
 0002:00036380       ?equivalent@error_category@std@@UBE_NABVerror_code@2@H@Z 1012f380 f i API.obj
 0002:000363e0       ?equivalent@error_category@std@@UBE_NHABVerror_condition@2@@Z 1012f3e0 f i API.obj
 0002:00036430       ?erase@?$basic_string@DU?$char_traits@D@std@@V?$allocator@D@2@@std@@QAEAAV12@I@Z 1012f430 f i API.obj
 0002:00036480       ?erase@?$basic_string@DU?$char_traits@D@std@@V?$allocator@D@2@@std@@QAEAAV12@II@Z 1012f480 f i API.obj
 0002:00036530       ?generic_category@std@@YAABVerror_category@1@XZ 1012f530 f i API.obj
 0002:00036550       ?length@?$char_traits@D@std@@SAIPBD@Z 1012f550 f i API.obj
 0002:000365a0       ?max_size@?$_Wrap_alloc@V?$allocator@D@std@@@std@@QBEIXZ 1012f5a0 f i API.obj
 0002:000365d0       ?max_size@?$allocator@D@std@@QBEIXZ 1012f5d0 f i API.obj
 0002:000365f0       ?max_size@?$allocator_traits@V?$allocator@D@std@@@std@@SAIABV?$allocator@D@2@@Z 1012f5f0 f i API.obj
 0002:00036610       ?max_size@?$basic_string@DU?$char_traits@D@std@@V?$allocator@D@2@@std@@QBEIXZ 1012f610 f i API.obj
 0002:00036670       ?message@_Generic_error_category@std@@UBE?AV?$basic_string@DU?$char_traits@D@std@@V?$allocator@D@2@@2@H@Z 1012f670 f i API.obj
 0002:000366e0       ?message@_Iostream_error_category@std@@UBE?AV?$basic_string@DU?$char_traits@D@std@@V?$allocator@D@2@@2@H@Z 1012f6e0 f i API.obj
 0002:00036760       ?message@_System_error_category@std@@UBE?AV?$basic_string@DU?$char_traits@D@std@@V?$allocator@D@2@@2@H@Z 1012f760 f i API.obj
 0002:000367d0       ?move@?$char_traits@D@std@@SAPADPADPBDI@Z 1012f7d0 f i API.obj
 0002:00036820       ?name@_Generic_error_category@std@@UBEPBDXZ 1012f820 f i API.obj
 0002:00036840       ?name@_Iostream_error_category@std@@UBEPBDXZ 1012f840 f i API.obj
 0002:00036860       ?name@_System_error_category@std@@UBEPBDXZ 1012f860 f i API.obj
 0002:00036880       ?size@?$basic_string@DU?$char_traits@D@std@@V?$allocator@D@2@@std@@QBEIXZ 1012f880 f i API.obj
 0002:000368a0       ?system_category@std@@YAABVerror_category@1@XZ 1012f8a0 f i API.obj
 0002:000368c0       ?value@error_code@std@@QBEHXZ 1012f8c0 f i API.obj
 0002:000368e0       ?value@error_condition@std@@QBEHXZ 1012f8e0 f i API.obj
 0002:00036900       _DllMain@12                1012f900 f   API.obj
 0002:000369d0       _NP_Init                   1012f9d0 f   API.obj
 0002:00036a10       _NP_RunFrame               1012fa10 f   API.obj
 0002:00036a30       _NP_Shutdown               1012fa30 f   API.obj
 0002:00036a50       _hypot                     1012fa50 f i API.obj
 0002:00036a90       ??1?$basic_string@DU?$char_traits@D@std@@V?$allocator@D@2@@std@@QAE@XZ 1012fa90 f i base64.obj
 0002:00036ac0       ??A?$basic_string@DU?$char_traits@D@std@@V?$allocator@D@2@@std@@QBEABDI@Z 1012fac0 f i base64.obj
 0002:00036af0       ?base64_decode@@YAPADABV?$basic_string@DU?$char_traits@D@std@@V?$allocator@D@2@@std@@@Z 1012faf0 f   base64.obj
 0002:00036e90       ?base64_encode@@YAPADPBEI@Z 1012fe90 f   base64.obj
 0002:000371c0       ?compare@?$char_traits@D@std@@SAHPBD0I@Z 101301c0 f i base64.obj
 0002:00037210       ?find@?$basic_string@DU?$char_traits@D@std@@V?$allocator@D@2@@std@@QBEIDI@Z 10130210 f i base64.obj
 0002:00037240       ?find@?$basic_string@DU?$char_traits@D@std@@V?$allocator@D@2@@std@@QBEIPBDII@Z 10130240 f i base64.obj
 0002:00037350       ?find@?$char_traits@D@std@@SAPBDPBDIABD@Z 10130350 f i base64.obj
 0002:00037400       ?CI_SendStatus@@YAXPBD@Z   10130400 f   CI.obj
 0002:000374d0       ?CI_GetFunctionPointers@@YAXPAPAPAXPAH@Z 101304d0 f   CI.obj
 0002:00037500       ??$_Fill_n@PAEHH@std@@YAPAEPAEHABH@Z 10130500 f i CI.obj
 0002:00037550       ??$_Fill_n@PAPAUHINSTANCE__@@HPAU1@@std@@YAPAPAUHINSTANCE__@@PAPAU1@HABQAU1@@Z 10130550 f i CI.obj
 0002:000375a0       ??$_Rechecked@PAEPAE@std@@YAAAPAEAAPAEPAE@Z 101305a0 f i CI.obj
 0002:000375d0       ??$_Rechecked@PAPAUHINSTANCE__@@PAPAU1@@std@@YAAAPAPAUHINSTANCE__@@AAPAPAU1@PAPAU1@@Z 101305d0 f i CI.obj
 0002:00037600       ??$_Unchecked@PAE@std@@YAPAEPAE@Z 10130600 f i CI.obj
 0002:00037620       ??$_Unchecked@PAPAUHINSTANCE__@@@std@@YAPAPAUHINSTANCE__@@PAPAU1@@Z 10130620 f i CI.obj
 0002:00037640       ??$fill_n@PAEHH@std@@YAPAEPAEHABH@Z 10130640 f i CI.obj
 0002:00037690       ??$fill_n@PAPAUHINSTANCE__@@HPAU1@@std@@YAPAPAUHINSTANCE__@@PAPAU1@HABQAU1@@Z 10130690 f i CI.obj
 0002:000376e0       ??$forward@V?$basic_string@DU?$char_traits@D@std@@V?$allocator@D@2@@std@@@std@@YA$$QAV?$basic_string@DU?$char_traits@D@std@@V?$allocator@D@2@@0@AAV10@@Z 101306e0 f i CI.obj
 0002:00037700       ??0?$NPRPCBuffer@VStorageSendRandomStringMessage@@@@QAE@XZ 10130700 f i CI.obj
 0002:00037740       ??0?$basic_string@DU?$char_traits@D@std@@V?$allocator@D@2@@std@@QAE@$$QAV01@@Z 10130740 f i CI.obj
 0002:000377b0       ??0?$basic_string@DU?$char_traits@D@std@@V?$allocator@D@2@@std@@QAE@XZ 101307b0 f i CI.obj
 0002:000377f0       ??0INPRPCMessage@@QAE@XZ   101307f0 f i CI.obj
 0002:00037820       ??0IRPCBuffer@@QAE@XZ      10130820 f i CI.obj
 0002:00037850       ??0RPCStorageSendRandomStringMessage@@QAE@XZ 10130850 f i CI.obj
 0002:000378a0       ?CI_Dummy@@YAXPAV?$NPAsync@VNPGetPublisherFileResult@@@@@Z 101308a0 f   CI.obj
 0002:000378c0       ?CI_InitDLL@@YAXXZ         101308c0 f   CI.obj
 0002:00037910       ?CI_Initialize@@YAXD@Z     10130910 f   CI.obj
 0002:00037aa0       ?CI_InitializeGameDLL@@YAXPBD@Z 10130aa0 f   CI.obj
 0002:00037b30       ?CI_ObtainedRT@@YAXPAV?$NPAsync@VNPGetPublisherFileResult@@@@@Z 10130b30 f   CI.obj
 0002:00037ec0       ?CI_Shutdown@@YAXXZ        10130ec0 f   CI.obj
 0002:00037ee0       ?Deserialize@?$NPRPCBuffer@VStorageSendRandomStringMessage@@@@UAEXPBEI@Z 10130ee0 f i CI.obj
 0002:00037f20       ?GetEmptyStringAlreadyInited@internal@protobuf@google@@YAABV?$basic_string@DU?$char_traits@D@std@@V?$allocator@D@2@@std@@XZ 10130f20 f i CI.obj
 0002:00037f40       ?Serialize@?$NPRPCBuffer@VStorageSendRandomStringMessage@@@@UAE?AV?$basic_string@DU?$char_traits@D@std@@V?$allocator@D@2@@std@@XZ 10130f40 f i CI.obj
 0002:00038000       ?_Assign_rv@?$basic_string@DU?$char_traits@D@std@@V?$allocator@D@2@@std@@QAEX$$QAV12@@Z 10131000 f i CI.obj
 0002:000380b0       ?hack_detection_thread@@YGKPAX@Z 101310b0 f   CI.obj
 0002:00038360       ?set_has_randomstring@StorageSendRandomStringMessage@@AAEXXZ 10131360 f i CI.obj
 0002:000383b0       ?set_randomstring@StorageSendRandomStringMessage@@QAEXPBD@Z 101313b0 f i CI.obj
 0002:000389f0       _MemoryFreeLibrary         101319f0 f   MemoryModule.obj
 0002:00038b10       _MemoryGetProcAddress      10131b10 f   MemoryModule.obj
 0002:00038c50       _MemoryLoadLibrary         10131c50 f   MemoryModule.obj
 0002:00038ea0       _PEmemrandom               10131ea0 f   MemoryModule.obj
 0002:00038f20       _PErandomstr               10131f20 f   MemoryModule.obj
 0002:000390b0       ?Create@RPCHelloMessage@@SAPAV1@XZ 101320b0 f   MessageDefinition.obj
 0002:00039150       ?Create@RPCFriendsRequestRoster@@SAPAV1@XZ 10132150 f   MessageDefinition.obj
 0002:000391f0       ?Create@RPCAuthenticateWithKeyMessage@@SAPAV1@XZ 101321f0 f   MessageDefinition.obj
 0002:00039290       ?Create@RPCFriendsRosterMessage@@SAPAV1@XZ 10132290 f   MessageDefinition.obj
 0002:00039330       ?Create@RPCAuthenticateWithDetailsMessage@@SAPAV1@XZ 10132330 f   MessageDefinition.obj
 0002:000393d0       ?Create@RPCFriendsSetPresenceMessage@@SAPAV1@XZ 101323d0 f   MessageDefinition.obj
 0002:00039470       ?Create@RPCAuthenticateWithTokenMessage@@SAPAV1@XZ 10132470 f   MessageDefinition.obj
 0002:00039510       ?Create@RPCFriendsGetUserAvatarMessage@@SAPAV1@XZ 10132510 f   MessageDefinition.obj
 0002:000395b0       ?Create@RPCAuthenticateValidateTicketMessage@@SAPAV1@XZ 101325b0 f   MessageDefinition.obj
 0002:00039650       ?Create@RPCFriendsGetUserAvatarResultMessage@@SAPAV1@XZ 10132650 f   MessageDefinition.obj
 0002:000396f0       ?Create@RPCAuthenticateKickUserMessage@@SAPAV1@XZ 101326f0 f   MessageDefinition.obj
 0002:00039790       ?Create@RPCServersCreateSessionMessage@@SAPAV1@XZ 10132790 f   MessageDefinition.obj
 0002:00039830       ?Create@RPCAuthenticateExternalStatusMessage@@SAPAV1@XZ 10132830 f   MessageDefinition.obj
 0002:000398d0       ?Create@RPCServersCreateSessionResultMessage@@SAPAV1@XZ 101328d0 f   MessageDefinition.obj
 0002:00039970       ?Create@RPCAuthenticateResultMessage@@SAPAV1@XZ 10132970 f   MessageDefinition.obj
 0002:00039a10       ?Create@RPCServersGetSessionsMessage@@SAPAV1@XZ 10132a10 f   MessageDefinition.obj
 0002:00039ab0       ?Create@RPCAuthenticateUserGroupMessage@@SAPAV1@XZ 10132ab0 f   MessageDefinition.obj
 0002:00039b50       ?Create@RPCServersGetSessionsResultMessage@@SAPAV1@XZ 10132b50 f   MessageDefinition.obj
 0002:00039bf0       ?Create@RPCAuthenticateValidateTicketResultMessage@@SAPAV1@XZ 10132bf0 f   MessageDefinition.obj
 0002:00039c90       ?Create@RPCServersUpdateSessionMessage@@SAPAV1@XZ 10132c90 f   MessageDefinition.obj
 0002:00039d30       ?Create@RPCAuthenticateRegisterServerMessage@@SAPAV1@XZ 10132d30 f   MessageDefinition.obj
 0002:00039dd0       ?Create@RPCServersUpdateSessionResultMessage@@SAPAV1@XZ 10132dd0 f   MessageDefinition.obj
 0002:00039e70       ?Create@RPCAuthenticateRegisterServerResultMessage@@SAPAV1@XZ 10132e70 f   MessageDefinition.obj
 0002:00039f10       ?Create@RPCServersDeleteSessionMessage@@SAPAV1@XZ 10132f10 f   MessageDefinition.obj
 0002:00039fb0       ?Create@RPCStorageGetPublisherFileMessage@@SAPAV1@XZ 10132fb0 f   MessageDefinition.obj
 0002:0003a050       ?Create@RPCServersDeleteSessionResultMessage@@SAPAV1@XZ 10133050 f   MessageDefinition.obj
 0002:0003a0f0       ?Create@RPCStoragePublisherFileMessage@@SAPAV1@XZ 101330f0 f   MessageDefinition.obj
 0002:0003a190       ?Create@RPCCloseAppMessage@@SAPAV1@XZ 10133190 f   MessageDefinition.obj
 0002:0003a230       ?Create@RPCStorageGetUserFileMessage@@SAPAV1@XZ 10133230 f   MessageDefinition.obj
 0002:0003a2d0       ?Create@RPCMessagingSendDataMessage@@SAPAV1@XZ 101332d0 f   MessageDefinition.obj
 0002:0003a370       ?Create@RPCStorageUserFileMessage@@SAPAV1@XZ 10133370 f   MessageDefinition.obj
 0002:0003a410       ?Create@RPCStorageWriteUserFileMessage@@SAPAV1@XZ 10133410 f   MessageDefinition.obj
 0002:0003a4b0       ?Create@RPCStorageWriteUserFileResultMessage@@SAPAV1@XZ 101334b0 f   MessageDefinition.obj
 0002:0003a550       ?Create@RPCStorageSendRandomStringMessage@@SAPAV1@XZ 10133550 f   MessageDefinition.obj
 0002:0003a5f0       ??0?$NPRPCBuffer@VAuthenticateExternalStatusMessage@@@@QAE@XZ 101335f0 f i MessageDefinition.obj
 0002:0003a630       ??0?$NPRPCBuffer@VAuthenticateKickUserMessage@@@@QAE@XZ 10133630 f i MessageDefinition.obj
 0002:0003a670       ??0?$NPRPCBuffer@VAuthenticateRegisterServerMessage@@@@QAE@XZ 10133670 f i MessageDefinition.obj
 0002:0003a6b0       ??0?$NPRPCBuffer@VAuthenticateRegisterServerResultMessage@@@@QAE@XZ 101336b0 f i MessageDefinition.obj
 0002:0003a6f0       ??0?$NPRPCBuffer@VAuthenticateResultMessage@@@@QAE@XZ 101336f0 f i MessageDefinition.obj
 0002:0003a730       ??0?$NPRPCBuffer@VAuthenticateUserGroupMessage@@@@QAE@XZ 10133730 f i MessageDefinition.obj
 0002:0003a770       ??0?$NPRPCBuffer@VAuthenticateValidateTicketMessage@@@@QAE@XZ 10133770 f i MessageDefinition.obj
 0002:0003a7b0       ??0?$NPRPCBuffer@VAuthenticateValidateTicketResultMessage@@@@QAE@XZ 101337b0 f i MessageDefinition.obj
 0002:0003a7f0       ??0?$NPRPCBuffer@VAuthenticateWithDetailsMessage@@@@QAE@XZ 101337f0 f i MessageDefinition.obj
 0002:0003a830       ??0?$NPRPCBuffer@VAuthenticateWithKeyMessage@@@@QAE@XZ 10133830 f i MessageDefinition.obj
 0002:0003a870       ??0?$NPRPCBuffer@VAuthenticateWithTokenMessage@@@@QAE@XZ 10133870 f i MessageDefinition.obj
 0002:0003a8b0       ??0?$NPRPCBuffer@VCloseAppMessage@@@@QAE@XZ 101338b0 f i MessageDefinition.obj
 0002:0003a8f0       ??0?$NPRPCBuffer@VFriendsGetUserAvatarMessage@@@@QAE@XZ 101338f0 f i MessageDefinition.obj
 0002:0003a930       ??0?$NPRPCBuffer@VFriendsGetUserAvatarResultMessage@@@@QAE@XZ 10133930 f i MessageDefinition.obj
 0002:0003a970       ??0?$NPRPCBuffer@VFriendsRequestRoster@@@@QAE@XZ 10133970 f i MessageDefinition.obj
 0002:0003a9b0       ??0?$NPRPCBuffer@VFriendsRosterMessage@@@@QAE@XZ 101339b0 f i MessageDefinition.obj
 0002:0003a9f0       ??0?$NPRPCBuffer@VFriendsSetPresenceMessage@@@@QAE@XZ 101339f0 f i MessageDefinition.obj
 0002:0003aa30       ??0?$NPRPCBuffer@VHelloMessage@@@@QAE@XZ 10133a30 f i MessageDefinition.obj
 0002:0003aa70       ??0?$NPRPCBuffer@VMessagingSendDataMessage@@@@QAE@XZ 10133a70 f i MessageDefinition.obj
 0002:0003aab0       ??0?$NPRPCBuffer@VServersCreateSessionMessage@@@@QAE@XZ 10133ab0 f i MessageDefinition.obj
 0002:0003aaf0       ??0?$NPRPCBuffer@VServersCreateSessionResultMessage@@@@QAE@XZ 10133af0 f i MessageDefinition.obj
 0002:0003ab30       ??0?$NPRPCBuffer@VServersDeleteSessionMessage@@@@QAE@XZ 10133b30 f i MessageDefinition.obj
 0002:0003ab70       ??0?$NPRPCBuffer@VServersDeleteSessionResultMessage@@@@QAE@XZ 10133b70 f i MessageDefinition.obj
 0002:0003abb0       ??0?$NPRPCBuffer@VServersGetSessionsMessage@@@@QAE@XZ 10133bb0 f i MessageDefinition.obj
 0002:0003abf0       ??0?$NPRPCBuffer@VServersGetSessionsResultMessage@@@@QAE@XZ 10133bf0 f i MessageDefinition.obj
 0002:0003ac30       ??0?$NPRPCBuffer@VServersUpdateSessionMessage@@@@QAE@XZ 10133c30 f i MessageDefinition.obj
 0002:0003ac70       ??0?$NPRPCBuffer@VServersUpdateSessionResultMessage@@@@QAE@XZ 10133c70 f i MessageDefinition.obj
 0002:0003acb0       ??0?$NPRPCBuffer@VStorageGetPublisherFileMessage@@@@QAE@XZ 10133cb0 f i MessageDefinition.obj
 0002:0003acf0       ??0?$NPRPCBuffer@VStorageGetUserFileMessage@@@@QAE@XZ 10133cf0 f i MessageDefinition.obj
 0002:0003ad30       ??0?$NPRPCBuffer@VStoragePublisherFileMessage@@@@QAE@XZ 10133d30 f i MessageDefinition.obj
 0002:0003ad70       ??0?$NPRPCBuffer@VStorageUserFileMessage@@@@QAE@XZ 10133d70 f i MessageDefinition.obj
 0002:0003adb0       ??0?$NPRPCBuffer@VStorageWriteUserFileMessage@@@@QAE@XZ 10133db0 f i MessageDefinition.obj
 0002:0003adf0       ??0?$NPRPCBuffer@VStorageWriteUserFileResultMessage@@@@QAE@XZ 10133df0 f i MessageDefinition.obj
 0002:0003ae30       ??0RPCAuthenticateExternalStatusMessage@@QAE@XZ 10133e30 f i MessageDefinition.obj
 0002:0003ae80       ??0RPCAuthenticateKickUserMessage@@QAE@XZ 10133e80 f i MessageDefinition.obj
 0002:0003aed0       ??0RPCAuthenticateRegisterServerMessage@@QAE@XZ 10133ed0 f i MessageDefinition.obj
 0002:0003af20       ??0RPCAuthenticateRegisterServerResultMessage@@QAE@XZ 10133f20 f i MessageDefinition.obj
 0002:0003af70       ??0RPCAuthenticateResultMessage@@QAE@XZ 10133f70 f i MessageDefinition.obj
 0002:0003afc0       ??0RPCAuthenticateUserGroupMessage@@QAE@XZ 10133fc0 f i MessageDefinition.obj
 0002:0003b010       ??0RPCAuthenticateValidateTicketMessage@@QAE@XZ 10134010 f i MessageDefinition.obj
 0002:0003b060       ??0RPCAuthenticateValidateTicketResultMessage@@QAE@XZ 10134060 f i MessageDefinition.obj
 0002:0003b0b0       ??0RPCAuthenticateWithDetailsMessage@@QAE@XZ 101340b0 f i MessageDefinition.obj
 0002:0003b100       ??0RPCAuthenticateWithKeyMessage@@QAE@XZ 10134100 f i MessageDefinition.obj
 0002:0003b150       ??0RPCAuthenticateWithTokenMessage@@QAE@XZ 10134150 f i MessageDefinition.obj
 0002:0003b1a0       ??0RPCCloseAppMessage@@QAE@XZ 101341a0 f i MessageDefinition.obj
 0002:0003b1f0       ??0RPCFriendsGetUserAvatarMessage@@QAE@XZ 101341f0 f i MessageDefinition.obj
 0002:0003b240       ??0RPCFriendsGetUserAvatarResultMessage@@QAE@XZ 10134240 f i MessageDefinition.obj
 0002:0003b290       ??0RPCFriendsRequestRoster@@QAE@XZ 10134290 f i MessageDefinition.obj
 0002:0003b2e0       ??0RPCFriendsRosterMessage@@QAE@XZ 101342e0 f i MessageDefinition.obj
 0002:0003b330       ??0RPCFriendsSetPresenceMessage@@QAE@XZ 10134330 f i MessageDefinition.obj
 0002:0003b380       ??0RPCHelloMessage@@QAE@XZ 10134380 f i MessageDefinition.obj
 0002:0003b3d0       ??0RPCMessagingSendDataMessage@@QAE@XZ 101343d0 f i MessageDefinition.obj
 0002:0003b420       ??0RPCServersCreateSessionMessage@@QAE@XZ 10134420 f i MessageDefinition.obj
 0002:0003b470       ??0RPCServersCreateSessionResultMessage@@QAE@XZ 10134470 f i MessageDefinition.obj
 0002:0003b4c0       ??0RPCServersDeleteSessionMessage@@QAE@XZ 101344c0 f i MessageDefinition.obj
 0002:0003b510       ??0RPCServersDeleteSessionResultMessage@@QAE@XZ 10134510 f i MessageDefinition.obj
 0002:0003b560       ??0RPCServersGetSessionsMessage@@QAE@XZ 10134560 f i MessageDefinition.obj
 0002:0003b5b0       ??0RPCServersGetSessionsResultMessage@@QAE@XZ 101345b0 f i MessageDefinition.obj
 0002:0003b600       ??0RPCServersUpdateSessionMessage@@QAE@XZ 10134600 f i MessageDefinition.obj
 0002:0003b650       ??0RPCServersUpdateSessionResultMessage@@QAE@XZ 10134650 f i MessageDefinition.obj
 0002:0003b6a0       ??0RPCStorageGetPublisherFileMessage@@QAE@XZ 101346a0 f i MessageDefinition.obj
 0002:0003b6f0       ??0RPCStorageGetUserFileMessage@@QAE@XZ 101346f0 f i MessageDefinition.obj
 0002:0003b740       ??0RPCStoragePublisherFileMessage@@QAE@XZ 10134740 f i MessageDefinition.obj
 0002:0003b790       ??0RPCStorageUserFileMessage@@QAE@XZ 10134790 f i MessageDefinition.obj
 0002:0003b7e0       ??0RPCStorageWriteUserFileMessage@@QAE@XZ 101347e0 f i MessageDefinition.obj
 0002:0003b830       ??0RPCStorageWriteUserFileResultMessage@@QAE@XZ 10134830 f i MessageDefinition.obj
 0002:0003b880       ??1?$NPRPCBuffer@VAuthenticateExternalStatusMessage@@@@QAE@XZ 10134880 f i MessageDefinition.obj
 0002:0003b8b0       ??1?$NPRPCBuffer@VAuthenticateKickUserMessage@@@@QAE@XZ 101348b0 f i MessageDefinition.obj
 0002:0003b8e0       ??1?$NPRPCBuffer@VAuthenticateRegisterServerMessage@@@@QAE@XZ 101348e0 f i MessageDefinition.obj
 0002:0003b910       ??1?$NPRPCBuffer@VAuthenticateRegisterServerResultMessage@@@@QAE@XZ 10134910 f i MessageDefinition.obj
 0002:0003b940       ??1?$NPRPCBuffer@VAuthenticateResultMessage@@@@QAE@XZ 10134940 f i MessageDefinition.obj
 0002:0003b970       ??1?$NPRPCBuffer@VAuthenticateUserGroupMessage@@@@QAE@XZ 10134970 f i MessageDefinition.obj
 0002:0003b9a0       ??1?$NPRPCBuffer@VAuthenticateValidateTicketMessage@@@@QAE@XZ 101349a0 f i MessageDefinition.obj
 0002:0003b9d0       ??1?$NPRPCBuffer@VAuthenticateValidateTicketResultMessage@@@@QAE@XZ 101349d0 f i MessageDefinition.obj
 0002:0003ba00       ??1?$NPRPCBuffer@VAuthenticateWithDetailsMessage@@@@QAE@XZ 10134a00 f i MessageDefinition.obj
 0002:0003ba30       ??1?$NPRPCBuffer@VAuthenticateWithKeyMessage@@@@QAE@XZ 10134a30 f i MessageDefinition.obj
 0002:0003ba60       ??1?$NPRPCBuffer@VAuthenticateWithTokenMessage@@@@QAE@XZ 10134a60 f i MessageDefinition.obj
 0002:0003ba90       ??1?$NPRPCBuffer@VCloseAppMessage@@@@QAE@XZ 10134a90 f i MessageDefinition.obj
 0002:0003bac0       ??1?$NPRPCBuffer@VFriendsGetUserAvatarMessage@@@@QAE@XZ 10134ac0 f i MessageDefinition.obj
 0002:0003baf0       ??1?$NPRPCBuffer@VFriendsGetUserAvatarResultMessage@@@@QAE@XZ 10134af0 f i MessageDefinition.obj
 0002:0003bb20       ??1?$NPRPCBuffer@VFriendsRequestRoster@@@@QAE@XZ 10134b20 f i MessageDefinition.obj
 0002:0003bb50       ??1?$NPRPCBuffer@VFriendsRosterMessage@@@@QAE@XZ 10134b50 f i MessageDefinition.obj
 0002:0003bb80       ??1?$NPRPCBuffer@VFriendsSetPresenceMessage@@@@QAE@XZ 10134b80 f i MessageDefinition.obj
 0002:0003bbb0       ??1?$NPRPCBuffer@VHelloMessage@@@@QAE@XZ 10134bb0 f i MessageDefinition.obj
 0002:0003bbe0       ??1?$NPRPCBuffer@VMessagingSendDataMessage@@@@QAE@XZ 10134be0 f i MessageDefinition.obj
 0002:0003bc10       ??1?$NPRPCBuffer@VServersCreateSessionMessage@@@@QAE@XZ 10134c10 f i MessageDefinition.obj
 0002:0003bc40       ??1?$NPRPCBuffer@VServersCreateSessionResultMessage@@@@QAE@XZ 10134c40 f i MessageDefinition.obj
 0002:0003bc70       ??1?$NPRPCBuffer@VServersDeleteSessionMessage@@@@QAE@XZ 10134c70 f i MessageDefinition.obj
 0002:0003bca0       ??1?$NPRPCBuffer@VServersDeleteSessionResultMessage@@@@QAE@XZ 10134ca0 f i MessageDefinition.obj
 0002:0003bcd0       ??1?$NPRPCBuffer@VServersGetSessionsMessage@@@@QAE@XZ 10134cd0 f i MessageDefinition.obj
 0002:0003bd00       ??1?$NPRPCBuffer@VServersGetSessionsResultMessage@@@@QAE@XZ 10134d00 f i MessageDefinition.obj
 0002:0003bd30       ??1?$NPRPCBuffer@VServersUpdateSessionMessage@@@@QAE@XZ 10134d30 f i MessageDefinition.obj
 0002:0003bd60       ??1?$NPRPCBuffer@VServersUpdateSessionResultMessage@@@@QAE@XZ 10134d60 f i MessageDefinition.obj
 0002:0003bd90       ??1?$NPRPCBuffer@VStorageGetPublisherFileMessage@@@@QAE@XZ 10134d90 f i MessageDefinition.obj
 0002:0003bdc0       ??1?$NPRPCBuffer@VStorageGetUserFileMessage@@@@QAE@XZ 10134dc0 f i MessageDefinition.obj
 0002:0003bdf0       ??1?$NPRPCBuffer@VStoragePublisherFileMessage@@@@QAE@XZ 10134df0 f i MessageDefinition.obj
 0002:0003be20       ??1?$NPRPCBuffer@VStorageSendRandomStringMessage@@@@QAE@XZ 10134e20 f i MessageDefinition.obj
 0002:0003be50       ??1?$NPRPCBuffer@VStorageUserFileMessage@@@@QAE@XZ 10134e50 f i MessageDefinition.obj
 0002:0003be80       ??1?$NPRPCBuffer@VStorageWriteUserFileMessage@@@@QAE@XZ 10134e80 f i MessageDefinition.obj
 0002:0003beb0       ??1?$NPRPCBuffer@VStorageWriteUserFileResultMessage@@@@QAE@XZ 10134eb0 f i MessageDefinition.obj
 0002:0003bee0       ??1RPCAuthenticateExternalStatusMessage@@QAE@XZ 10134ee0 f i MessageDefinition.obj
 0002:0003bf10       ??1RPCAuthenticateKickUserMessage@@QAE@XZ 10134f10 f i MessageDefinition.obj
 0002:0003bf40       ??1RPCAuthenticateRegisterServerMessage@@QAE@XZ 10134f40 f i MessageDefinition.obj
 0002:0003bf70       ??1RPCAuthenticateRegisterServerResultMessage@@QAE@XZ 10134f70 f i MessageDefinition.obj
 0002:0003bfa0       ??1RPCAuthenticateResultMessage@@QAE@XZ 10134fa0 f i MessageDefinition.obj
 0002:0003bfd0       ??1RPCAuthenticateUserGroupMessage@@QAE@XZ 10134fd0 f i MessageDefinition.obj
 0002:0003c000       ??1RPCAuthenticateValidateTicketMessage@@QAE@XZ 10135000 f i MessageDefinition.obj
 0002:0003c030       ??1RPCAuthenticateValidateTicketResultMessage@@QAE@XZ 10135030 f i MessageDefinition.obj
 0002:0003c060       ??1RPCAuthenticateWithDetailsMessage@@QAE@XZ 10135060 f i MessageDefinition.obj
 0002:0003c090       ??1RPCAuthenticateWithKeyMessage@@QAE@XZ 10135090 f i MessageDefinition.obj
 0002:0003c0c0       ??1RPCAuthenticateWithTokenMessage@@QAE@XZ 101350c0 f i MessageDefinition.obj
 0002:0003c0f0       ??1RPCCloseAppMessage@@QAE@XZ 101350f0 f i MessageDefinition.obj
 0002:0003c120       ??1RPCFriendsGetUserAvatarMessage@@QAE@XZ 10135120 f i MessageDefinition.obj
 0002:0003c150       ??1RPCFriendsGetUserAvatarResultMessage@@QAE@XZ 10135150 f i MessageDefinition.obj
 0002:0003c180       ??1RPCFriendsRequestRoster@@QAE@XZ 10135180 f i MessageDefinition.obj
 0002:0003c1b0       ??1RPCFriendsRosterMessage@@QAE@XZ 101351b0 f i MessageDefinition.obj
 0002:0003c1e0       ??1RPCFriendsSetPresenceMessage@@QAE@XZ 101351e0 f i MessageDefinition.obj
 0002:0003c210       ??1RPCHelloMessage@@QAE@XZ 10135210 f i MessageDefinition.obj
 0002:0003c240       ??1RPCMessagingSendDataMessage@@QAE@XZ 10135240 f i MessageDefinition.obj
 0002:0003c270       ??1RPCServersCreateSessionMessage@@QAE@XZ 10135270 f i MessageDefinition.obj
 0002:0003c2a0       ??1RPCServersCreateSessionResultMessage@@QAE@XZ 101352a0 f i MessageDefinition.obj
 0002:0003c2d0       ??1RPCServersDeleteSessionMessage@@QAE@XZ 101352d0 f i MessageDefinition.obj
 0002:0003c300       ??1RPCServersDeleteSessionResultMessage@@QAE@XZ 10135300 f i MessageDefinition.obj
 0002:0003c330       ??1RPCServersGetSessionsMessage@@QAE@XZ 10135330 f i MessageDefinition.obj
 0002:0003c360       ??1RPCServersGetSessionsResultMessage@@QAE@XZ 10135360 f i MessageDefinition.obj
 0002:0003c390       ??1RPCServersUpdateSessionMessage@@QAE@XZ 10135390 f i MessageDefinition.obj
 0002:0003c3c0       ??1RPCServersUpdateSessionResultMessage@@QAE@XZ 101353c0 f i MessageDefinition.obj
 0002:0003c3f0       ??1RPCStorageGetPublisherFileMessage@@QAE@XZ 101353f0 f i MessageDefinition.obj
 0002:0003c420       ??1RPCStorageGetUserFileMessage@@QAE@XZ 10135420 f i MessageDefinition.obj
 0002:0003c450       ??1RPCStoragePublisherFileMessage@@QAE@XZ 10135450 f i MessageDefinition.obj
 0002:0003c480       ??1RPCStorageSendRandomStringMessage@@QAE@XZ 10135480 f i MessageDefinition.obj
 0002:0003c4b0       ??1RPCStorageUserFileMessage@@QAE@XZ 101354b0 f i MessageDefinition.obj
 0002:0003c4e0       ??1RPCStorageWriteUserFileMessage@@QAE@XZ 101354e0 f i MessageDefinition.obj
 0002:0003c510       ??1RPCStorageWriteUserFileResultMessage@@QAE@XZ 10135510 f i MessageDefinition.obj
 0002:0003c540       ??_GRPCAuthenticateExternalStatusMessage@@QAEPAXI@Z 10135540 f i MessageDefinition.obj
 0002:0003c590       ??_GRPCAuthenticateKickUserMessage@@QAEPAXI@Z 10135590 f i MessageDefinition.obj
 0002:0003c5e0       ??_GRPCAuthenticateRegisterServerMessage@@QAEPAXI@Z 101355e0 f i MessageDefinition.obj
 0002:0003c630       ??_GRPCAuthenticateRegisterServerResultMessage@@QAEPAXI@Z 10135630 f i MessageDefinition.obj
 0002:0003c680       ??_GRPCAuthenticateResultMessage@@QAEPAXI@Z 10135680 f i MessageDefinition.obj
 0002:0003c6d0       ??_GRPCAuthenticateUserGroupMessage@@QAEPAXI@Z 101356d0 f i MessageDefinition.obj
 0002:0003c720       ??_GRPCAuthenticateValidateTicketMessage@@QAEPAXI@Z 10135720 f i MessageDefinition.obj
 0002:0003c770       ??_GRPCAuthenticateValidateTicketResultMessage@@QAEPAXI@Z 10135770 f i MessageDefinition.obj
 0002:0003c7c0       ??_GRPCAuthenticateWithDetailsMessage@@QAEPAXI@Z 101357c0 f i MessageDefinition.obj
 0002:0003c810       ??_GRPCAuthenticateWithKeyMessage@@QAEPAXI@Z 10135810 f i MessageDefinition.obj
 0002:0003c860       ??_GRPCAuthenticateWithTokenMessage@@QAEPAXI@Z 10135860 f i MessageDefinition.obj
 0002:0003c8b0       ??_GRPCCloseAppMessage@@QAEPAXI@Z 101358b0 f i MessageDefinition.obj
 0002:0003c900       ??_GRPCFriendsGetUserAvatarMessage@@QAEPAXI@Z 10135900 f i MessageDefinition.obj
 0002:0003c950       ??_GRPCFriendsGetUserAvatarResultMessage@@QAEPAXI@Z 10135950 f i MessageDefinition.obj
 0002:0003c9a0       ??_GRPCFriendsRequestRoster@@QAEPAXI@Z 101359a0 f i MessageDefinition.obj
 0002:0003c9f0       ??_GRPCFriendsRosterMessage@@QAEPAXI@Z 101359f0 f i MessageDefinition.obj
 0002:0003ca40       ??_GRPCFriendsSetPresenceMessage@@QAEPAXI@Z 10135a40 f i MessageDefinition.obj
 0002:0003ca90       ??_GRPCHelloMessage@@QAEPAXI@Z 10135a90 f i MessageDefinition.obj
 0002:0003cae0       ??_GRPCMessagingSendDataMessage@@QAEPAXI@Z 10135ae0 f i MessageDefinition.obj
 0002:0003cb30       ??_GRPCServersCreateSessionMessage@@QAEPAXI@Z 10135b30 f i MessageDefinition.obj
 0002:0003cb80       ??_GRPCServersCreateSessionResultMessage@@QAEPAXI@Z 10135b80 f i MessageDefinition.obj
 0002:0003cbd0       ??_GRPCServersDeleteSessionMessage@@QAEPAXI@Z 10135bd0 f i MessageDefinition.obj
 0002:0003cc20       ??_GRPCServersDeleteSessionResultMessage@@QAEPAXI@Z 10135c20 f i MessageDefinition.obj
 0002:0003cc70       ??_GRPCServersGetSessionsMessage@@QAEPAXI@Z 10135c70 f i MessageDefinition.obj
 0002:0003ccc0       ??_GRPCServersGetSessionsResultMessage@@QAEPAXI@Z 10135cc0 f i MessageDefinition.obj
 0002:0003cd10       ??_GRPCServersUpdateSessionMessage@@QAEPAXI@Z 10135d10 f i MessageDefinition.obj
 0002:0003cd60       ??_GRPCServersUpdateSessionResultMessage@@QAEPAXI@Z 10135d60 f i MessageDefinition.obj
 0002:0003cdb0       ??_GRPCStorageGetPublisherFileMessage@@QAEPAXI@Z 10135db0 f i MessageDefinition.obj
 0002:0003ce00       ??_GRPCStorageGetUserFileMessage@@QAEPAXI@Z 10135e00 f i MessageDefinition.obj
 0002:0003ce50       ??_GRPCStoragePublisherFileMessage@@QAEPAXI@Z 10135e50 f i MessageDefinition.obj
 0002:0003cea0       ??_GRPCStorageSendRandomStringMessage@@QAEPAXI@Z 10135ea0 f i MessageDefinition.obj
 0002:0003cef0       ??_GRPCStorageUserFileMessage@@QAEPAXI@Z 10135ef0 f i MessageDefinition.obj
 0002:0003cf40       ??_GRPCStorageWriteUserFileMessage@@QAEPAXI@Z 10135f40 f i MessageDefinition.obj
 0002:0003cf90       ??_GRPCStorageWriteUserFileResultMessage@@QAEPAXI@Z 10135f90 f i MessageDefinition.obj
 0002:0003cfe0       ?Deserialize@?$NPRPCBuffer@VAuthenticateExternalStatusMessage@@@@UAEXPBEI@Z 10135fe0 f i MessageDefinition.obj
 0002:0003d020       ?Deserialize@?$NPRPCBuffer@VAuthenticateKickUserMessage@@@@UAEXPBEI@Z 10136020 f i MessageDefinition.obj
 0002:0003d060       ?Deserialize@?$NPRPCBuffer@VAuthenticateRegisterServerMessage@@@@UAEXPBEI@Z 10136060 f i MessageDefinition.obj
 0002:0003d0a0       ?Deserialize@?$NPRPCBuffer@VAuthenticateRegisterServerResultMessage@@@@UAEXPBEI@Z 101360a0 f i MessageDefinition.obj
 0002:0003d0e0       ?Deserialize@?$NPRPCBuffer@VAuthenticateResultMessage@@@@UAEXPBEI@Z 101360e0 f i MessageDefinition.obj
 0002:0003d120       ?Deserialize@?$NPRPCBuffer@VAuthenticateUserGroupMessage@@@@UAEXPBEI@Z 10136120 f i MessageDefinition.obj
 0002:0003d160       ?Deserialize@?$NPRPCBuffer@VAuthenticateValidateTicketMessage@@@@UAEXPBEI@Z 10136160 f i MessageDefinition.obj
 0002:0003d1a0       ?Deserialize@?$NPRPCBuffer@VAuthenticateValidateTicketResultMessage@@@@UAEXPBEI@Z 101361a0 f i MessageDefinition.obj
 0002:0003d1e0       ?Deserialize@?$NPRPCBuffer@VAuthenticateWithDetailsMessage@@@@UAEXPBEI@Z 101361e0 f i MessageDefinition.obj
 0002:0003d220       ?Deserialize@?$NPRPCBuffer@VAuthenticateWithKeyMessage@@@@UAEXPBEI@Z 10136220 f i MessageDefinition.obj
 0002:0003d260       ?Deserialize@?$NPRPCBuffer@VAuthenticateWithTokenMessage@@@@UAEXPBEI@Z 10136260 f i MessageDefinition.obj
 0002:0003d2a0       ?Deserialize@?$NPRPCBuffer@VCloseAppMessage@@@@UAEXPBEI@Z 101362a0 f i MessageDefinition.obj
 0002:0003d2e0       ?Deserialize@?$NPRPCBuffer@VFriendsGetUserAvatarMessage@@@@UAEXPBEI@Z 101362e0 f i MessageDefinition.obj
 0002:0003d320       ?Deserialize@?$NPRPCBuffer@VFriendsGetUserAvatarResultMessage@@@@UAEXPBEI@Z 10136320 f i MessageDefinition.obj
 0002:0003d360       ?Deserialize@?$NPRPCBuffer@VFriendsRequestRoster@@@@UAEXPBEI@Z 10136360 f i MessageDefinition.obj
 0002:0003d3a0       ?Deserialize@?$NPRPCBuffer@VFriendsRosterMessage@@@@UAEXPBEI@Z 101363a0 f i MessageDefinition.obj
 0002:0003d3e0       ?Deserialize@?$NPRPCBuffer@VFriendsSetPresenceMessage@@@@UAEXPBEI@Z 101363e0 f i MessageDefinition.obj
 0002:0003d420       ?Deserialize@?$NPRPCBuffer@VHelloMessage@@@@UAEXPBEI@Z 10136420 f i MessageDefinition.obj
 0002:0003d460       ?Deserialize@?$NPRPCBuffer@VMessagingSendDataMessage@@@@UAEXPBEI@Z 10136460 f i MessageDefinition.obj
 0002:0003d4a0       ?Deserialize@?$NPRPCBuffer@VServersCreateSessionMessage@@@@UAEXPBEI@Z 101364a0 f i MessageDefinition.obj
 0002:0003d4e0       ?Deserialize@?$NPRPCBuffer@VServersCreateSessionResultMessage@@@@UAEXPBEI@Z 101364e0 f i MessageDefinition.obj
 0002:0003d520       ?Deserialize@?$NPRPCBuffer@VServersDeleteSessionMessage@@@@UAEXPBEI@Z 10136520 f i MessageDefinition.obj
 0002:0003d560       ?Deserialize@?$NPRPCBuffer@VServersDeleteSessionResultMessage@@@@UAEXPBEI@Z 10136560 f i MessageDefinition.obj
 0002:0003d5a0       ?Deserialize@?$NPRPCBuffer@VServersGetSessionsMessage@@@@UAEXPBEI@Z 101365a0 f i MessageDefinition.obj
 0002:0003d5e0       ?Deserialize@?$NPRPCBuffer@VServersGetSessionsResultMessage@@@@UAEXPBEI@Z 101365e0 f i MessageDefinition.obj
 0002:0003d620       ?Deserialize@?$NPRPCBuffer@VServersUpdateSessionMessage@@@@UAEXPBEI@Z 10136620 f i MessageDefinition.obj
 0002:0003d660       ?Deserialize@?$NPRPCBuffer@VServersUpdateSessionResultMessage@@@@UAEXPBEI@Z 10136660 f i MessageDefinition.obj
 0002:0003d6a0       ?Deserialize@?$NPRPCBuffer@VStorageGetPublisherFileMessage@@@@UAEXPBEI@Z 101366a0 f i MessageDefinition.obj
 0002:0003d6e0       ?Deserialize@?$NPRPCBuffer@VStorageGetUserFileMessage@@@@UAEXPBEI@Z 101366e0 f i MessageDefinition.obj
 0002:0003d720       ?Deserialize@?$NPRPCBuffer@VStoragePublisherFileMessage@@@@UAEXPBEI@Z 10136720 f i MessageDefinition.obj
 0002:0003d760       ?Deserialize@?$NPRPCBuffer@VStorageUserFileMessage@@@@UAEXPBEI@Z 10136760 f i MessageDefinition.obj
 0002:0003d7a0       ?Deserialize@?$NPRPCBuffer@VStorageWriteUserFileMessage@@@@UAEXPBEI@Z 101367a0 f i MessageDefinition.obj
 0002:0003d7e0       ?Deserialize@?$NPRPCBuffer@VStorageWriteUserFileResultMessage@@@@UAEXPBEI@Z 101367e0 f i MessageDefinition.obj
 0002:0003d820       ?Deserialize@RPCAuthenticateExternalStatusMessage@@UAEXPBEI@Z 10136820 f   MessageDefinition.obj
 0002:0003d860       ?Deserialize@RPCAuthenticateKickUserMessage@@UAEXPBEI@Z 10136860 f   MessageDefinition.obj
 0002:0003d8a0       ?Deserialize@RPCAuthenticateRegisterServerMessage@@UAEXPBEI@Z 101368a0 f   MessageDefinition.obj
 0002:0003d8e0       ?Deserialize@RPCAuthenticateRegisterServerResultMessage@@UAEXPBEI@Z 101368e0 f   MessageDefinition.obj
 0002:0003d920       ?Deserialize@RPCAuthenticateResultMessage@@UAEXPBEI@Z 10136920 f   MessageDefinition.obj
 0002:0003d960       ?Deserialize@RPCAuthenticateUserGroupMessage@@UAEXPBEI@Z 10136960 f   MessageDefinition.obj
 0002:0003d9a0       ?Deserialize@RPCAuthenticateValidateTicketMessage@@UAEXPBEI@Z 101369a0 f   MessageDefinition.obj
 0002:0003d9e0       ?Deserialize@RPCAuthenticateValidateTicketResultMessage@@UAEXPBEI@Z 101369e0 f   MessageDefinition.obj
 0002:0003da20       ?Deserialize@RPCAuthenticateWithDetailsMessage@@UAEXPBEI@Z 10136a20 f   MessageDefinition.obj
 0002:0003da60       ?Deserialize@RPCAuthenticateWithKeyMessage@@UAEXPBEI@Z 10136a60 f   MessageDefinition.obj
 0002:0003daa0       ?Deserialize@RPCAuthenticateWithTokenMessage@@UAEXPBEI@Z 10136aa0 f   MessageDefinition.obj
 0002:0003dae0       ?Deserialize@RPCCloseAppMessage@@UAEXPBEI@Z 10136ae0 f   MessageDefinition.obj
 0002:0003db20       ?Deserialize@RPCFriendsGetUserAvatarMessage@@UAEXPBEI@Z 10136b20 f   MessageDefinition.obj
 0002:0003db60       ?Deserialize@RPCFriendsGetUserAvatarResultMessage@@UAEXPBEI@Z 10136b60 f   MessageDefinition.obj
 0002:0003dba0       ?Deserialize@RPCFriendsRequestRoster@@UAEXPBEI@Z 10136ba0 f   MessageDefinition.obj
 0002:0003dbe0       ?Deserialize@RPCFriendsRosterMessage@@UAEXPBEI@Z 10136be0 f   MessageDefinition.obj
 0002:0003dc20       ?Deserialize@RPCFriendsSetPresenceMessage@@UAEXPBEI@Z 10136c20 f   MessageDefinition.obj
 0002:0003dc60       ?Deserialize@RPCHelloMessage@@UAEXPBEI@Z 10136c60 f   MessageDefinition.obj
 0002:0003dca0       ?Deserialize@RPCMessagingSendDataMessage@@UAEXPBEI@Z 10136ca0 f   MessageDefinition.obj
 0002:0003dce0       ?Deserialize@RPCServersCreateSessionMessage@@UAEXPBEI@Z 10136ce0 f   MessageDefinition.obj
 0002:0003dd20       ?Deserialize@RPCServersCreateSessionResultMessage@@UAEXPBEI@Z 10136d20 f   MessageDefinition.obj
 0002:0003dd60       ?Deserialize@RPCServersDeleteSessionMessage@@UAEXPBEI@Z 10136d60 f   MessageDefinition.obj
 0002:0003dda0       ?Deserialize@RPCServersDeleteSessionResultMessage@@UAEXPBEI@Z 10136da0 f   MessageDefinition.obj
 0002:0003dde0       ?Deserialize@RPCServersGetSessionsMessage@@UAEXPBEI@Z 10136de0 f   MessageDefinition.obj
 0002:0003de20       ?Deserialize@RPCServersGetSessionsResultMessage@@UAEXPBEI@Z 10136e20 f   MessageDefinition.obj
 0002:0003de60       ?Deserialize@RPCServersUpdateSessionMessage@@UAEXPBEI@Z 10136e60 f   MessageDefinition.obj
 0002:0003dea0       ?Deserialize@RPCServersUpdateSessionResultMessage@@UAEXPBEI@Z 10136ea0 f   MessageDefinition.obj
 0002:0003dee0       ?Deserialize@RPCStorageGetPublisherFileMessage@@UAEXPBEI@Z 10136ee0 f   MessageDefinition.obj
 0002:0003df20       ?Deserialize@RPCStorageGetUserFileMessage@@UAEXPBEI@Z 10136f20 f   MessageDefinition.obj
 0002:0003df60       ?Deserialize@RPCStoragePublisherFileMessage@@UAEXPBEI@Z 10136f60 f   MessageDefinition.obj
 0002:0003dfa0       ?Deserialize@RPCStorageSendRandomStringMessage@@UAEXPBEI@Z 10136fa0 f   MessageDefinition.obj
 0002:0003dfe0       ?Deserialize@RPCStorageUserFileMessage@@UAEXPBEI@Z 10136fe0 f   MessageDefinition.obj
 0002:0003e020       ?Deserialize@RPCStorageWriteUserFileMessage@@UAEXPBEI@Z 10137020 f   MessageDefinition.obj
 0002:0003e060       ?Deserialize@RPCStorageWriteUserFileResultMessage@@UAEXPBEI@Z 10137060 f   MessageDefinition.obj
 0002:0003e0a0       ?Free@RPCAuthenticateExternalStatusMessage@@UAEXXZ 101370a0 f   MessageDefinition.obj
 0002:0003e110       ?Free@RPCAuthenticateKickUserMessage@@UAEXXZ 10137110 f   MessageDefinition.obj
 0002:0003e180       ?Free@RPCAuthenticateRegisterServerMessage@@UAEXXZ 10137180 f   MessageDefinition.obj
 0002:0003e1f0       ?Free@RPCAuthenticateRegisterServerResultMessage@@UAEXXZ 101371f0 f   MessageDefinition.obj
 0002:0003e260       ?Free@RPCAuthenticateResultMessage@@UAEXXZ 10137260 f   MessageDefinition.obj
 0002:0003e2d0       ?Free@RPCAuthenticateUserGroupMessage@@UAEXXZ 101372d0 f   MessageDefinition.obj
 0002:0003e340       ?Free@RPCAuthenticateValidateTicketMessage@@UAEXXZ 10137340 f   MessageDefinition.obj
 0002:0003e3b0       ?Free@RPCAuthenticateValidateTicketResultMessage@@UAEXXZ 101373b0 f   MessageDefinition.obj
 0002:0003e420       ?Free@RPCAuthenticateWithDetailsMessage@@UAEXXZ 10137420 f   MessageDefinition.obj
 0002:0003e490       ?Free@RPCAuthenticateWithKeyMessage@@UAEXXZ 10137490 f   MessageDefinition.obj
 0002:0003e500       ?Free@RPCAuthenticateWithTokenMessage@@UAEXXZ 10137500 f   MessageDefinition.obj
 0002:0003e570       ?Free@RPCCloseAppMessage@@UAEXXZ 10137570 f   MessageDefinition.obj
 0002:0003e5e0       ?Free@RPCFriendsGetUserAvatarMessage@@UAEXXZ 101375e0 f   MessageDefinition.obj
 0002:0003e650       ?Free@RPCFriendsGetUserAvatarResultMessage@@UAEXXZ 10137650 f   MessageDefinition.obj
 0002:0003e6c0       ?Free@RPCFriendsRequestRoster@@UAEXXZ 101376c0 f   MessageDefinition.obj
 0002:0003e730       ?Free@RPCFriendsRosterMessage@@UAEXXZ 10137730 f   MessageDefinition.obj
 0002:0003e7a0       ?Free@RPCFriendsSetPresenceMessage@@UAEXXZ 101377a0 f   MessageDefinition.obj
 0002:0003e810       ?Free@RPCHelloMessage@@UAEXXZ 10137810 f   MessageDefinition.obj
 0002:0003e880       ?Free@RPCMessagingSendDataMessage@@UAEXXZ 10137880 f   MessageDefinition.obj
 0002:0003e8f0       ?Free@RPCServersCreateSessionMessage@@UAEXXZ 101378f0 f   MessageDefinition.obj
 0002:0003e960       ?Free@RPCServersCreateSessionResultMessage@@UAEXXZ 10137960 f   MessageDefinition.obj
 0002:0003e9d0       ?Free@RPCServersDeleteSessionMessage@@UAEXXZ 101379d0 f   MessageDefinition.obj
 0002:0003ea40       ?Free@RPCServersDeleteSessionResultMessage@@UAEXXZ 10137a40 f   MessageDefinition.obj
 0002:0003eab0       ?Free@RPCServersGetSessionsMessage@@UAEXXZ 10137ab0 f   MessageDefinition.obj
 0002:0003eb20       ?Free@RPCServersGetSessionsResultMessage@@UAEXXZ 10137b20 f   MessageDefinition.obj
 0002:0003eb90       ?Free@RPCServersUpdateSessionMessage@@UAEXXZ 10137b90 f   MessageDefinition.obj
 0002:0003ec00       ?Free@RPCServersUpdateSessionResultMessage@@UAEXXZ 10137c00 f   MessageDefinition.obj
 0002:0003ec70       ?Free@RPCStorageGetPublisherFileMessage@@UAEXXZ 10137c70 f   MessageDefinition.obj
 0002:0003ece0       ?Free@RPCStorageGetUserFileMessage@@UAEXXZ 10137ce0 f   MessageDefinition.obj
 0002:0003ed50       ?Free@RPCStoragePublisherFileMessage@@UAEXXZ 10137d50 f   MessageDefinition.obj
 0002:0003edc0       ?Free@RPCStorageSendRandomStringMessage@@UAEXXZ 10137dc0 f   MessageDefinition.obj
 0002:0003ee30       ?Free@RPCStorageUserFileMessage@@UAEXXZ 10137e30 f   MessageDefinition.obj
 0002:0003eea0       ?Free@RPCStorageWriteUserFileMessage@@UAEXXZ 10137ea0 f   MessageDefinition.obj
 0002:0003ef10       ?Free@RPCStorageWriteUserFileResultMessage@@UAEXXZ 10137f10 f   MessageDefinition.obj
 0002:0003ef80       ?FreePayload@RPCAuthenticateExternalStatusMessage@@UAEXXZ 10137f80 f   MessageDefinition.obj
 0002:0003efd0       ?FreePayload@RPCAuthenticateKickUserMessage@@UAEXXZ 10137fd0 f   MessageDefinition.obj
 0002:0003f020       ?FreePayload@RPCAuthenticateRegisterServerMessage@@UAEXXZ 10138020 f   MessageDefinition.obj
 0002:0003f070       ?FreePayload@RPCAuthenticateRegisterServerResultMessage@@UAEXXZ 10138070 f   MessageDefinition.obj
 0002:0003f0c0       ?FreePayload@RPCAuthenticateResultMessage@@UAEXXZ 101380c0 f   MessageDefinition.obj
 0002:0003f110       ?FreePayload@RPCAuthenticateUserGroupMessage@@UAEXXZ 10138110 f   MessageDefinition.obj
 0002:0003f160       ?FreePayload@RPCAuthenticateValidateTicketMessage@@UAEXXZ 10138160 f   MessageDefinition.obj
 0002:0003f1b0       ?FreePayload@RPCAuthenticateValidateTicketResultMessage@@UAEXXZ 101381b0 f   MessageDefinition.obj
 0002:0003f200       ?FreePayload@RPCAuthenticateWithDetailsMessage@@UAEXXZ 10138200 f   MessageDefinition.obj
 0002:0003f250       ?FreePayload@RPCAuthenticateWithKeyMessage@@UAEXXZ 10138250 f   MessageDefinition.obj
 0002:0003f2a0       ?FreePayload@RPCAuthenticateWithTokenMessage@@UAEXXZ 101382a0 f   MessageDefinition.obj
 0002:0003f2f0       ?FreePayload@RPCCloseAppMessage@@UAEXXZ 101382f0 f   MessageDefinition.obj
 0002:0003f340       ?FreePayload@RPCFriendsGetUserAvatarMessage@@UAEXXZ 10138340 f   MessageDefinition.obj
 0002:0003f390       ?FreePayload@RPCFriendsGetUserAvatarResultMessage@@UAEXXZ 10138390 f   MessageDefinition.obj
 0002:0003f3e0       ?FreePayload@RPCFriendsRequestRoster@@UAEXXZ 101383e0 f   MessageDefinition.obj
 0002:0003f430       ?FreePayload@RPCFriendsRosterMessage@@UAEXXZ 10138430 f   MessageDefinition.obj
 0002:0003f480       ?FreePayload@RPCFriendsSetPresenceMessage@@UAEXXZ 10138480 f   MessageDefinition.obj
 0002:0003f4d0       ?FreePayload@RPCHelloMessage@@UAEXXZ 101384d0 f   MessageDefinition.obj
 0002:0003f520       ?FreePayload@RPCMessagingSendDataMessage@@UAEXXZ 10138520 f   MessageDefinition.obj
 0002:0003f570       ?FreePayload@RPCServersCreateSessionMessage@@UAEXXZ 10138570 f   MessageDefinition.obj
 0002:0003f5c0       ?FreePayload@RPCServersCreateSessionResultMessage@@UAEXXZ 101385c0 f   MessageDefinition.obj
 0002:0003f610       ?FreePayload@RPCServersDeleteSessionMessage@@UAEXXZ 10138610 f   MessageDefinition.obj
 0002:0003f660       ?FreePayload@RPCServersDeleteSessionResultMessage@@UAEXXZ 10138660 f   MessageDefinition.obj
 0002:0003f6b0       ?FreePayload@RPCServersGetSessionsMessage@@UAEXXZ 101386b0 f   MessageDefinition.obj
 0002:0003f700       ?FreePayload@RPCServersGetSessionsResultMessage@@UAEXXZ 10138700 f   MessageDefinition.obj
 0002:0003f750       ?FreePayload@RPCServersUpdateSessionMessage@@UAEXXZ 10138750 f   MessageDefinition.obj
 0002:0003f7a0       ?FreePayload@RPCServersUpdateSessionResultMessage@@UAEXXZ 101387a0 f   MessageDefinition.obj
 0002:0003f7f0       ?FreePayload@RPCStorageGetPublisherFileMessage@@UAEXXZ 101387f0 f   MessageDefinition.obj
 0002:0003f840       ?FreePayload@RPCStorageGetUserFileMessage@@UAEXXZ 10138840 f   MessageDefinition.obj
 0002:0003f890       ?FreePayload@RPCStoragePublisherFileMessage@@UAEXXZ 10138890 f   MessageDefinition.obj
 0002:0003f8e0       ?FreePayload@RPCStorageSendRandomStringMessage@@UAEXXZ 101388e0 f   MessageDefinition.obj
 0002:0003f930       ?FreePayload@RPCStorageUserFileMessage@@UAEXXZ 10138930 f   MessageDefinition.obj
 0002:0003f980       ?FreePayload@RPCStorageWriteUserFileMessage@@UAEXXZ 10138980 f   MessageDefinition.obj
 0002:0003f9d0       ?FreePayload@RPCStorageWriteUserFileResultMessage@@UAEXXZ 101389d0 f   MessageDefinition.obj
 0002:0003fa20       ?GetBuffer@RPCAuthenticateExternalStatusMessage@@QAEPAVAuthenticateExternalStatusMessage@@XZ 10138a20 f   MessageDefinition.obj
 0002:0003fa50       ?GetBuffer@RPCAuthenticateKickUserMessage@@QAEPAVAuthenticateKickUserMessage@@XZ 10138a50 f   MessageDefinition.obj
 0002:0003fa80       ?GetBuffer@RPCAuthenticateRegisterServerMessage@@QAEPAVAuthenticateRegisterServerMessage@@XZ 10138a80 f   MessageDefinition.obj
 0002:0003fab0       ?GetBuffer@RPCAuthenticateRegisterServerResultMessage@@QAEPAVAuthenticateRegisterServerResultMessage@@XZ 10138ab0 f   MessageDefinition.obj
 0002:0003fae0       ?GetBuffer@RPCAuthenticateResultMessage@@QAEPAVAuthenticateResultMessage@@XZ 10138ae0 f   MessageDefinition.obj
 0002:0003fb10       ?GetBuffer@RPCAuthenticateUserGroupMessage@@QAEPAVAuthenticateUserGroupMessage@@XZ 10138b10 f   MessageDefinition.obj
 0002:0003fb40       ?GetBuffer@RPCAuthenticateValidateTicketMessage@@QAEPAVAuthenticateValidateTicketMessage@@XZ 10138b40 f   MessageDefinition.obj
 0002:0003fb70       ?GetBuffer@RPCAuthenticateValidateTicketResultMessage@@QAEPAVAuthenticateValidateTicketResultMessage@@XZ 10138b70 f   MessageDefinition.obj
 0002:0003fba0       ?GetBuffer@RPCAuthenticateWithDetailsMessage@@QAEPAVAuthenticateWithDetailsMessage@@XZ 10138ba0 f   MessageDefinition.obj
 0002:0003fbd0       ?GetBuffer@RPCAuthenticateWithKeyMessage@@QAEPAVAuthenticateWithKeyMessage@@XZ 10138bd0 f   MessageDefinition.obj
 0002:0003fc00       ?GetBuffer@RPCAuthenticateWithTokenMessage@@QAEPAVAuthenticateWithTokenMessage@@XZ 10138c00 f   MessageDefinition.obj
 0002:0003fc30       ?GetBuffer@RPCCloseAppMessage@@QAEPAVCloseAppMessage@@XZ 10138c30 f   MessageDefinition.obj
 0002:0003fc60       ?GetBuffer@RPCFriendsGetUserAvatarMessage@@QAEPAVFriendsGetUserAvatarMessage@@XZ 10138c60 f   MessageDefinition.obj
 0002:0003fc90       ?GetBuffer@RPCFriendsGetUserAvatarResultMessage@@QAEPAVFriendsGetUserAvatarResultMessage@@XZ 10138c90 f   MessageDefinition.obj
 0002:0003fcc0       ?GetBuffer@RPCFriendsRequestRoster@@QAEPAVFriendsRequestRoster@@XZ 10138cc0 f   MessageDefinition.obj
 0002:0003fcf0       ?GetBuffer@RPCFriendsRosterMessage@@QAEPAVFriendsRosterMessage@@XZ 10138cf0 f   MessageDefinition.obj
 0002:0003fd20       ?GetBuffer@RPCFriendsSetPresenceMessage@@QAEPAVFriendsSetPresenceMessage@@XZ 10138d20 f   MessageDefinition.obj
 0002:0003fd50       ?GetBuffer@RPCHelloMessage@@QAEPAVHelloMessage@@XZ 10138d50 f   MessageDefinition.obj
 0002:0003fd80       ?GetBuffer@RPCMessagingSendDataMessage@@QAEPAVMessagingSendDataMessage@@XZ 10138d80 f   MessageDefinition.obj
 0002:0003fdb0       ?GetBuffer@RPCServersCreateSessionMessage@@QAEPAVServersCreateSessionMessage@@XZ 10138db0 f   MessageDefinition.obj
 0002:0003fde0       ?GetBuffer@RPCServersCreateSessionResultMessage@@QAEPAVServersCreateSessionResultMessage@@XZ 10138de0 f   MessageDefinition.obj
 0002:0003fe10       ?GetBuffer@RPCServersDeleteSessionMessage@@QAEPAVServersDeleteSessionMessage@@XZ 10138e10 f   MessageDefinition.obj
 0002:0003fe40       ?GetBuffer@RPCServersDeleteSessionResultMessage@@QAEPAVServersDeleteSessionResultMessage@@XZ 10138e40 f   MessageDefinition.obj
 0002:0003fe70       ?GetBuffer@RPCServersGetSessionsMessage@@QAEPAVServersGetSessionsMessage@@XZ 10138e70 f   MessageDefinition.obj
 0002:0003fea0       ?GetBuffer@RPCServersGetSessionsResultMessage@@QAEPAVServersGetSessionsResultMessage@@XZ 10138ea0 f   MessageDefinition.obj
 0002:0003fed0       ?GetBuffer@RPCServersUpdateSessionMessage@@QAEPAVServersUpdateSessionMessage@@XZ 10138ed0 f   MessageDefinition.obj
 0002:0003ff00       ?GetBuffer@RPCServersUpdateSessionResultMessage@@QAEPAVServersUpdateSessionResultMessage@@XZ 10138f00 f   MessageDefinition.obj
 0002:0003ff30       ?GetBuffer@RPCStorageGetPublisherFileMessage@@QAEPAVStorageGetPublisherFileMessage@@XZ 10138f30 f   MessageDefinition.obj
 0002:0003ff60       ?GetBuffer@RPCStorageGetUserFileMessage@@QAEPAVStorageGetUserFileMessage@@XZ 10138f60 f   MessageDefinition.obj
 0002:0003ff90       ?GetBuffer@RPCStoragePublisherFileMessage@@QAEPAVStoragePublisherFileMessage@@XZ 10138f90 f   MessageDefinition.obj
 0002:0003ffc0       ?GetBuffer@RPCStorageSendRandomStringMessage@@QAEPAVStorageSendRandomStringMessage@@XZ 10138fc0 f   MessageDefinition.obj
 0002:0003fff0       ?GetBuffer@RPCStorageUserFileMessage@@QAEPAVStorageUserFileMessage@@XZ 10138ff0 f   MessageDefinition.obj
 0002:00040020       ?GetBuffer@RPCStorageWriteUserFileMessage@@QAEPAVStorageWriteUserFileMessage@@XZ 10139020 f   MessageDefinition.obj
 0002:00040050       ?GetBuffer@RPCStorageWriteUserFileResultMessage@@QAEPAVStorageWriteUserFileResultMessage@@XZ 10139050 f   MessageDefinition.obj
 0002:00040080       ?GetPayload@?$NPRPCBuffer@VAuthenticateExternalStatusMessage@@@@QAEPAVAuthenticateExternalStatusMessage@@XZ 10139080 f i MessageDefinition.obj
 0002:000400a0       ?GetPayload@?$NPRPCBuffer@VAuthenticateKickUserMessage@@@@QAEPAVAuthenticateKickUserMessage@@XZ 101390a0 f i MessageDefinition.obj
 0002:000400c0       ?GetPayload@?$NPRPCBuffer@VAuthenticateRegisterServerMessage@@@@QAEPAVAuthenticateRegisterServerMessage@@XZ 101390c0 f i MessageDefinition.obj
 0002:000400e0       ?GetPayload@?$NPRPCBuffer@VAuthenticateRegisterServerResultMessage@@@@QAEPAVAuthenticateRegisterServerResultMessage@@XZ 101390e0 f i MessageDefinition.obj
 0002:00040100       ?GetPayload@?$NPRPCBuffer@VAuthenticateResultMessage@@@@QAEPAVAuthenticateResultMessage@@XZ 10139100 f i MessageDefinition.obj
 0002:00040120       ?GetPayload@?$NPRPCBuffer@VAuthenticateUserGroupMessage@@@@QAEPAVAuthenticateUserGroupMessage@@XZ 10139120 f i MessageDefinition.obj
 0002:00040140       ?GetPayload@?$NPRPCBuffer@VAuthenticateValidateTicketMessage@@@@QAEPAVAuthenticateValidateTicketMessage@@XZ 10139140 f i MessageDefinition.obj
 0002:00040160       ?GetPayload@?$NPRPCBuffer@VAuthenticateValidateTicketResultMessage@@@@QAEPAVAuthenticateValidateTicketResultMessage@@XZ 10139160 f i MessageDefinition.obj
 0002:00040180       ?GetPayload@?$NPRPCBuffer@VAuthenticateWithDetailsMessage@@@@QAEPAVAuthenticateWithDetailsMessage@@XZ 10139180 f i MessageDefinition.obj
 0002:000401a0       ?GetPayload@?$NPRPCBuffer@VAuthenticateWithKeyMessage@@@@QAEPAVAuthenticateWithKeyMessage@@XZ 101391a0 f i MessageDefinition.obj
 0002:000401c0       ?GetPayload@?$NPRPCBuffer@VAuthenticateWithTokenMessage@@@@QAEPAVAuthenticateWithTokenMessage@@XZ 101391c0 f i MessageDefinition.obj
 0002:000401e0       ?GetPayload@?$NPRPCBuffer@VCloseAppMessage@@@@QAEPAVCloseAppMessage@@XZ 101391e0 f i MessageDefinition.obj
 0002:00040200       ?GetPayload@?$NPRPCBuffer@VFriendsGetUserAvatarMessage@@@@QAEPAVFriendsGetUserAvatarMessage@@XZ 10139200 f i MessageDefinition.obj
 0002:00040220       ?GetPayload@?$NPRPCBuffer@VFriendsGetUserAvatarResultMessage@@@@QAEPAVFriendsGetUserAvatarResultMessage@@XZ 10139220 f i MessageDefinition.obj
 0002:00040240       ?GetPayload@?$NPRPCBuffer@VFriendsRequestRoster@@@@QAEPAVFriendsRequestRoster@@XZ 10139240 f i MessageDefinition.obj
 0002:00040260       ?GetPayload@?$NPRPCBuffer@VFriendsRosterMessage@@@@QAEPAVFriendsRosterMessage@@XZ 10139260 f i MessageDefinition.obj
 0002:00040280       ?GetPayload@?$NPRPCBuffer@VFriendsSetPresenceMessage@@@@QAEPAVFriendsSetPresenceMessage@@XZ 10139280 f i MessageDefinition.obj
 0002:000402a0       ?GetPayload@?$NPRPCBuffer@VHelloMessage@@@@QAEPAVHelloMessage@@XZ 101392a0 f i MessageDefinition.obj
 0002:000402c0       ?GetPayload@?$NPRPCBuffer@VMessagingSendDataMessage@@@@QAEPAVMessagingSendDataMessage@@XZ 101392c0 f i MessageDefinition.obj
 0002:000402e0       ?GetPayload@?$NPRPCBuffer@VServersCreateSessionMessage@@@@QAEPAVServersCreateSessionMessage@@XZ 101392e0 f i MessageDefinition.obj
 0002:00040300       ?GetPayload@?$NPRPCBuffer@VServersCreateSessionResultMessage@@@@QAEPAVServersCreateSessionResultMessage@@XZ 10139300 f i MessageDefinition.obj
 0002:00040320       ?GetPayload@?$NPRPCBuffer@VServersDeleteSessionMessage@@@@QAEPAVServersDeleteSessionMessage@@XZ 10139320 f i MessageDefinition.obj
 0002:00040340       ?GetPayload@?$NPRPCBuffer@VServersDeleteSessionResultMessage@@@@QAEPAVServersDeleteSessionResultMessage@@XZ 10139340 f i MessageDefinition.obj
 0002:00040360       ?GetPayload@?$NPRPCBuffer@VServersGetSessionsMessage@@@@QAEPAVServersGetSessionsMessage@@XZ 10139360 f i MessageDefinition.obj
 0002:00040380       ?GetPayload@?$NPRPCBuffer@VServersGetSessionsResultMessage@@@@QAEPAVServersGetSessionsResultMessage@@XZ 10139380 f i MessageDefinition.obj
 0002:000403a0       ?GetPayload@?$NPRPCBuffer@VServersUpdateSessionMessage@@@@QAEPAVServersUpdateSessionMessage@@XZ 101393a0 f i MessageDefinition.obj
 0002:000403c0       ?GetPayload@?$NPRPCBuffer@VServersUpdateSessionResultMessage@@@@QAEPAVServersUpdateSessionResultMessage@@XZ 101393c0 f i MessageDefinition.obj
 0002:000403e0       ?GetPayload@?$NPRPCBuffer@VStorageGetPublisherFileMessage@@@@QAEPAVStorageGetPublisherFileMessage@@XZ 101393e0 f i MessageDefinition.obj
 0002:00040400       ?GetPayload@?$NPRPCBuffer@VStorageGetUserFileMessage@@@@QAEPAVStorageGetUserFileMessage@@XZ 10139400 f i MessageDefinition.obj
 0002:00040420       ?GetPayload@?$NPRPCBuffer@VStoragePublisherFileMessage@@@@QAEPAVStoragePublisherFileMessage@@XZ 10139420 f i MessageDefinition.obj
 0002:00040440       ?GetPayload@?$NPRPCBuffer@VStorageSendRandomStringMessage@@@@QAEPAVStorageSendRandomStringMessage@@XZ 10139440 f i MessageDefinition.obj
 0002:00040460       ?GetPayload@?$NPRPCBuffer@VStorageUserFileMessage@@@@QAEPAVStorageUserFileMessage@@XZ 10139460 f i MessageDefinition.obj
 0002:00040480       ?GetPayload@?$NPRPCBuffer@VStorageWriteUserFileMessage@@@@QAEPAVStorageWriteUserFileMessage@@XZ 10139480 f i MessageDefinition.obj
 0002:000404a0       ?GetPayload@?$NPRPCBuffer@VStorageWriteUserFileResultMessage@@@@QAEPAVStorageWriteUserFileResultMessage@@XZ 101394a0 f i MessageDefinition.obj
 0002:000404c0       ?GetType@RPCAuthenticateExternalStatusMessage@@UAEHXZ 101394c0 f   MessageDefinition.obj
 0002:000404e0       ?GetType@RPCAuthenticateKickUserMessage@@UAEHXZ 101394e0 f   MessageDefinition.obj
 0002:00040500       ?GetType@RPCAuthenticateRegisterServerMessage@@UAEHXZ 10139500 f   MessageDefinition.obj
 0002:00040520       ?GetType@RPCAuthenticateRegisterServerResultMessage@@UAEHXZ 10139520 f   MessageDefinition.obj
 0002:00040540       ?GetType@RPCAuthenticateResultMessage@@UAEHXZ 10139540 f   MessageDefinition.obj
 0002:00040560       ?GetType@RPCAuthenticateUserGroupMessage@@UAEHXZ 10139560 f   MessageDefinition.obj
 0002:00040580       ?GetType@RPCAuthenticateValidateTicketMessage@@UAEHXZ 10139580 f   MessageDefinition.obj
 0002:000405a0       ?GetType@RPCAuthenticateValidateTicketResultMessage@@UAEHXZ 101395a0 f   MessageDefinition.obj
 0002:000405c0       ?GetType@RPCAuthenticateWithDetailsMessage@@UAEHXZ 101395c0 f   MessageDefinition.obj
 0002:000405e0       ?GetType@RPCAuthenticateWithKeyMessage@@UAEHXZ 101395e0 f   MessageDefinition.obj
 0002:00040600       ?GetType@RPCAuthenticateWithTokenMessage@@UAEHXZ 10139600 f   MessageDefinition.obj
 0002:00040620       ?GetType@RPCCloseAppMessage@@UAEHXZ 10139620 f   MessageDefinition.obj
 0002:00040640       ?GetType@RPCFriendsGetUserAvatarMessage@@UAEHXZ 10139640 f   MessageDefinition.obj
 0002:00040660       ?GetType@RPCFriendsGetUserAvatarResultMessage@@UAEHXZ 10139660 f   MessageDefinition.obj
 0002:00040680       ?GetType@RPCFriendsRequestRoster@@UAEHXZ 10139680 f   MessageDefinition.obj
 0002:000406a0       ?GetType@RPCFriendsRosterMessage@@UAEHXZ 101396a0 f   MessageDefinition.obj
 0002:000406c0       ?GetType@RPCFriendsSetPresenceMessage@@UAEHXZ 101396c0 f   MessageDefinition.obj
 0002:000406e0       ?GetType@RPCHelloMessage@@UAEHXZ 101396e0 f   MessageDefinition.obj
 0002:00040700       ?GetType@RPCMessagingSendDataMessage@@UAEHXZ 10139700 f   MessageDefinition.obj
 0002:00040720       ?GetType@RPCServersCreateSessionMessage@@UAEHXZ 10139720 f   MessageDefinition.obj
 0002:00040740       ?GetType@RPCServersCreateSessionResultMessage@@UAEHXZ 10139740 f   MessageDefinition.obj
 0002:00040760       ?GetType@RPCServersDeleteSessionMessage@@UAEHXZ 10139760 f   MessageDefinition.obj
 0002:00040780       ?GetType@RPCServersDeleteSessionResultMessage@@UAEHXZ 10139780 f   MessageDefinition.obj
 0002:000407a0       ?GetType@RPCServersGetSessionsMessage@@UAEHXZ 101397a0 f   MessageDefinition.obj
 0002:000407c0       ?GetType@RPCServersGetSessionsResultMessage@@UAEHXZ 101397c0 f   MessageDefinition.obj
 0002:000407e0       ?GetType@RPCServersUpdateSessionMessage@@UAEHXZ 101397e0 f   MessageDefinition.obj
 0002:00040800       ?GetType@RPCServersUpdateSessionResultMessage@@UAEHXZ 10139800 f   MessageDefinition.obj
 0002:00040820       ?GetType@RPCStorageGetPublisherFileMessage@@UAEHXZ 10139820 f   MessageDefinition.obj
 0002:00040840       ?GetType@RPCStorageGetUserFileMessage@@UAEHXZ 10139840 f   MessageDefinition.obj
 0002:00040860       ?GetType@RPCStoragePublisherFileMessage@@UAEHXZ 10139860 f   MessageDefinition.obj
 0002:00040880       ?GetType@RPCStorageSendRandomStringMessage@@UAEHXZ 10139880 f   MessageDefinition.obj
 0002:000408a0       ?GetType@RPCStorageUserFileMessage@@UAEHXZ 101398a0 f   MessageDefinition.obj
 0002:000408c0       ?GetType@RPCStorageWriteUserFileMessage@@UAEHXZ 101398c0 f   MessageDefinition.obj
 0002:000408e0       ?GetType@RPCStorageWriteUserFileResultMessage@@UAEHXZ 101398e0 f   MessageDefinition.obj
 0002:00040900       ?Serialize@?$NPRPCBuffer@VAuthenticateExternalStatusMessage@@@@UAE?AV?$basic_string@DU?$char_traits@D@std@@V?$allocator@D@2@@std@@XZ 10139900 f i MessageDefinition.obj
 0002:000409c0       ?Serialize@?$NPRPCBuffer@VAuthenticateKickUserMessage@@@@UAE?AV?$basic_string@DU?$char_traits@D@std@@V?$allocator@D@2@@std@@XZ 101399c0 f i MessageDefinition.obj
 0002:00040a80       ?Serialize@?$NPRPCBuffer@VAuthenticateRegisterServerMessage@@@@UAE?AV?$basic_string@DU?$char_traits@D@std@@V?$allocator@D@2@@std@@XZ 10139a80 f i MessageDefinition.obj
 0002:00040b40       ?Serialize@?$NPRPCBuffer@VAuthenticateRegisterServerResultMessage@@@@UAE?AV?$basic_string@DU?$char_traits@D@std@@V?$allocator@D@2@@std@@XZ 10139b40 f i MessageDefinition.obj
 0002:00040c00       ?Serialize@?$NPRPCBuffer@VAuthenticateResultMessage@@@@UAE?AV?$basic_string@DU?$char_traits@D@std@@V?$allocator@D@2@@std@@XZ 10139c00 f i MessageDefinition.obj
 0002:00040cc0       ?Serialize@?$NPRPCBuffer@VAuthenticateUserGroupMessage@@@@UAE?AV?$basic_string@DU?$char_traits@D@std@@V?$allocator@D@2@@std@@XZ 10139cc0 f i MessageDefinition.obj
 0002:00040d80       ?Serialize@?$NPRPCBuffer@VAuthenticateValidateTicketMessage@@@@UAE?AV?$basic_string@DU?$char_traits@D@std@@V?$allocator@D@2@@std@@XZ 10139d80 f i MessageDefinition.obj
 0002:00040e40       ?Serialize@?$NPRPCBuffer@VAuthenticateValidateTicketResultMessage@@@@UAE?AV?$basic_string@DU?$char_traits@D@std@@V?$allocator@D@2@@std@@XZ 10139e40 f i MessageDefinition.obj
 0002:00040f00       ?Serialize@?$NPRPCBuffer@VAuthenticateWithDetailsMessage@@@@UAE?AV?$basic_string@DU?$char_traits@D@std@@V?$allocator@D@2@@std@@XZ 10139f00 f i MessageDefinition.obj
 0002:00040fc0       ?Serialize@?$NPRPCBuffer@VAuthenticateWithKeyMessage@@@@UAE?AV?$basic_string@DU?$char_traits@D@std@@V?$allocator@D@2@@std@@XZ 10139fc0 f i MessageDefinition.obj
 0002:00041080       ?Serialize@?$NPRPCBuffer@VAuthenticateWithTokenMessage@@@@UAE?AV?$basic_string@DU?$char_traits@D@std@@V?$allocator@D@2@@std@@XZ 1013a080 f i MessageDefinition.obj
 0002:00041140       ?Serialize@?$NPRPCBuffer@VCloseAppMessage@@@@UAE?AV?$basic_string@DU?$char_traits@D@std@@V?$allocator@D@2@@std@@XZ 1013a140 f i MessageDefinition.obj
 0002:00041200       ?Serialize@?$NPRPCBuffer@VFriendsGetUserAvatarMessage@@@@UAE?AV?$basic_string@DU?$char_traits@D@std@@V?$allocator@D@2@@std@@XZ 1013a200 f i MessageDefinition.obj
 0002:000412c0       ?Serialize@?$NPRPCBuffer@VFriendsGetUserAvatarResultMessage@@@@UAE?AV?$basic_string@DU?$char_traits@D@std@@V?$allocator@D@2@@std@@XZ 1013a2c0 f i MessageDefinition.obj
 0002:00041380       ?Serialize@?$NPRPCBuffer@VFriendsRequestRoster@@@@UAE?AV?$basic_string@DU?$char_traits@D@std@@V?$allocator@D@2@@std@@XZ 1013a380 f i MessageDefinition.obj
 0002:00041440       ?Serialize@?$NPRPCBuffer@VFriendsRosterMessage@@@@UAE?AV?$basic_string@DU?$char_traits@D@std@@V?$allocator@D@2@@std@@XZ 1013a440 f i MessageDefinition.obj
 0002:00041500       ?Serialize@?$NPRPCBuffer@VFriendsSetPresenceMessage@@@@UAE?AV?$basic_string@DU?$char_traits@D@std@@V?$allocator@D@2@@std@@XZ 1013a500 f i MessageDefinition.obj
 0002:000415c0       ?Serialize@?$NPRPCBuffer@VHelloMessage@@@@UAE?AV?$basic_string@DU?$char_traits@D@std@@V?$allocator@D@2@@std@@XZ 1013a5c0 f i MessageDefinition.obj
 0002:00041680       ?Serialize@?$NPRPCBuffer@VMessagingSendDataMessage@@@@UAE?AV?$basic_string@DU?$char_traits@D@std@@V?$allocator@D@2@@std@@XZ 1013a680 f i MessageDefinition.obj
 0002:00041740       ?Serialize@?$NPRPCBuffer@VServersCreateSessionMessage@@@@UAE?AV?$basic_string@DU?$char_traits@D@std@@V?$allocator@D@2@@std@@XZ 1013a740 f i MessageDefinition.obj
 0002:00041800       ?Serialize@?$NPRPCBuffer@VServersCreateSessionResultMessage@@@@UAE?AV?$basic_string@DU?$char_traits@D@std@@V?$allocator@D@2@@std@@XZ 1013a800 f i MessageDefinition.obj
 0002:000418c0       ?Serialize@?$NPRPCBuffer@VServersDeleteSessionMessage@@@@UAE?AV?$basic_string@DU?$char_traits@D@std@@V?$allocator@D@2@@std@@XZ 1013a8c0 f i MessageDefinition.obj
 0002:00041980       ?Serialize@?$NPRPCBuffer@VServersDeleteSessionResultMessage@@@@UAE?AV?$basic_string@DU?$char_traits@D@std@@V?$allocator@D@2@@std@@XZ 1013a980 f i MessageDefinition.obj
 0002:00041a40       ?Serialize@?$NPRPCBuffer@VServersGetSessionsMessage@@@@UAE?AV?$basic_string@DU?$char_traits@D@std@@V?$allocator@D@2@@std@@XZ 1013aa40 f i MessageDefinition.obj
 0002:00041b00       ?Serialize@?$NPRPCBuffer@VServersGetSessionsResultMessage@@@@UAE?AV?$basic_string@DU?$char_traits@D@std@@V?$allocator@D@2@@std@@XZ 1013ab00 f i MessageDefinition.obj
 0002:00041bc0       ?Serialize@?$NPRPCBuffer@VServersUpdateSessionMessage@@@@UAE?AV?$basic_string@DU?$char_traits@D@std@@V?$allocator@D@2@@std@@XZ 1013abc0 f i MessageDefinition.obj
 0002:00041c80       ?Serialize@?$NPRPCBuffer@VServersUpdateSessionResultMessage@@@@UAE?AV?$basic_string@DU?$char_traits@D@std@@V?$allocator@D@2@@std@@XZ 1013ac80 f i MessageDefinition.obj
 0002:00041d40       ?Serialize@?$NPRPCBuffer@VStorageGetPublisherFileMessage@@@@UAE?AV?$basic_string@DU?$char_traits@D@std@@V?$allocator@D@2@@std@@XZ 1013ad40 f i MessageDefinition.obj
 0002:00041e00       ?Serialize@?$NPRPCBuffer@VStorageGetUserFileMessage@@@@UAE?AV?$basic_string@DU?$char_traits@D@std@@V?$allocator@D@2@@std@@XZ 1013ae00 f i MessageDefinition.obj
 0002:00041ec0       ?Serialize@?$NPRPCBuffer@VStoragePublisherFileMessage@@@@UAE?AV?$basic_string@DU?$char_traits@D@std@@V?$allocator@D@2@@std@@XZ 1013aec0 f i MessageDefinition.obj
 0002:00041f80       ?Serialize@?$NPRPCBuffer@VStorageUserFileMessage@@@@UAE?AV?$basic_string@DU?$char_traits@D@std@@V?$allocator@D@2@@std@@XZ 1013af80 f i MessageDefinition.obj
 0002:00042040       ?Serialize@?$NPRPCBuffer@VStorageWriteUserFileMessage@@@@UAE?AV?$basic_string@DU?$char_traits@D@std@@V?$allocator@D@2@@std@@XZ 1013b040 f i MessageDefinition.obj
 0002:00042100       ?Serialize@?$NPRPCBuffer@VStorageWriteUserFileResultMessage@@@@UAE?AV?$basic_string@DU?$char_traits@D@std@@V?$allocator@D@2@@std@@XZ 1013b100 f i MessageDefinition.obj
 0002:000421c0       ?Serialize@RPCAuthenticateExternalStatusMessage@@UAEPAEPAII@Z 1013b1c0 f   MessageDefinition.obj
 0002:00042360       ?Serialize@RPCAuthenticateKickUserMessage@@UAEPAEPAII@Z 1013b360 f   MessageDefinition.obj
 0002:00042500       ?Serialize@RPCAuthenticateRegisterServerMessage@@UAEPAEPAII@Z 1013b500 f   MessageDefinition.obj
 0002:000426a0       ?Serialize@RPCAuthenticateRegisterServerResultMessage@@UAEPAEPAII@Z 1013b6a0 f   MessageDefinition.obj
 0002:00042840       ?Serialize@RPCAuthenticateResultMessage@@UAEPAEPAII@Z 1013b840 f   MessageDefinition.obj
 0002:000429e0       ?Serialize@RPCAuthenticateUserGroupMessage@@UAEPAEPAII@Z 1013b9e0 f   MessageDefinition.obj
 0002:00042b80       ?Serialize@RPCAuthenticateValidateTicketMessage@@UAEPAEPAII@Z 1013bb80 f   MessageDefinition.obj
 0002:00042d20       ?Serialize@RPCAuthenticateValidateTicketResultMessage@@UAEPAEPAII@Z 1013bd20 f   MessageDefinition.obj
 0002:00042ec0       ?Serialize@RPCAuthenticateWithDetailsMessage@@UAEPAEPAII@Z 1013bec0 f   MessageDefinition.obj
 0002:00043060       ?Serialize@RPCAuthenticateWithKeyMessage@@UAEPAEPAII@Z 1013c060 f   MessageDefinition.obj
 0002:00043200       ?Serialize@RPCAuthenticateWithTokenMessage@@UAEPAEPAII@Z 1013c200 f   MessageDefinition.obj
 0002:000433a0       ?Serialize@RPCCloseAppMessage@@UAEPAEPAII@Z 1013c3a0 f   MessageDefinition.obj
 0002:00043540       ?Serialize@RPCFriendsGetUserAvatarMessage@@UAEPAEPAII@Z 1013c540 f   MessageDefinition.obj
 0002:000436e0       ?Serialize@RPCFriendsGetUserAvatarResultMessage@@UAEPAEPAII@Z 1013c6e0 f   MessageDefinition.obj
 0002:00043880       ?Serialize@RPCFriendsRequestRoster@@UAEPAEPAII@Z 1013c880 f   MessageDefinition.obj
 0002:00043a20       ?Serialize@RPCFriendsRosterMessage@@UAEPAEPAII@Z 1013ca20 f   MessageDefinition.obj
 0002:00043bc0       ?Serialize@RPCFriendsSetPresenceMessage@@UAEPAEPAII@Z 1013cbc0 f   MessageDefinition.obj
 0002:00043d60       ?Serialize@RPCHelloMessage@@UAEPAEPAII@Z 1013cd60 f   MessageDefinition.obj
 0002:00043f00       ?Serialize@RPCMessagingSendDataMessage@@UAEPAEPAII@Z 1013cf00 f   MessageDefinition.obj
 0002:000440a0       ?Serialize@RPCServersCreateSessionMessage@@UAEPAEPAII@Z 1013d0a0 f   MessageDefinition.obj
 0002:00044240       ?Serialize@RPCServersCreateSessionResultMessage@@UAEPAEPAII@Z 1013d240 f   MessageDefinition.obj
 0002:000443e0       ?Serialize@RPCServersDeleteSessionMessage@@UAEPAEPAII@Z 1013d3e0 f   MessageDefinition.obj
 0002:00044580       ?Serialize@RPCServersDeleteSessionResultMessage@@UAEPAEPAII@Z 1013d580 f   MessageDefinition.obj
 0002:00044720       ?Serialize@RPCServersGetSessionsMessage@@UAEPAEPAII@Z 1013d720 f   MessageDefinition.obj
 0002:000448c0       ?Serialize@RPCServersGetSessionsResultMessage@@UAEPAEPAII@Z 1013d8c0 f   MessageDefinition.obj
 0002:00044a60       ?Serialize@RPCServersUpdateSessionMessage@@UAEPAEPAII@Z 1013da60 f   MessageDefinition.obj
 0002:00044c00       ?Serialize@RPCServersUpdateSessionResultMessage@@UAEPAEPAII@Z 1013dc00 f   MessageDefinition.obj
 0002:00044da0       ?Serialize@RPCStorageGetPublisherFileMessage@@UAEPAEPAII@Z 1013dda0 f   MessageDefinition.obj
 0002:00044f40       ?Serialize@RPCStorageGetUserFileMessage@@UAEPAEPAII@Z 1013df40 f   MessageDefinition.obj
 0002:000450e0       ?Serialize@RPCStoragePublisherFileMessage@@UAEPAEPAII@Z 1013e0e0 f   MessageDefinition.obj
 0002:00045280       ?Serialize@RPCStorageSendRandomStringMessage@@UAEPAEPAII@Z 1013e280 f   MessageDefinition.obj
 0002:00045420       ?Serialize@RPCStorageUserFileMessage@@UAEPAEPAII@Z 1013e420 f   MessageDefinition.obj
 0002:000455c0       ?Serialize@RPCStorageWriteUserFileMessage@@UAEPAEPAII@Z 1013e5c0 f   MessageDefinition.obj
 0002:00045760       ?Serialize@RPCStorageWriteUserFileResultMessage@@UAEPAEPAII@Z 1013e760 f   MessageDefinition.obj
 0002:00045900       ?c_str@?$basic_string@DU?$char_traits@D@std@@V?$allocator@D@2@@std@@QBEPBDXZ 1013e900 f i MessageDefinition.obj
 0002:00045930       ?length@?$basic_string@DU?$char_traits@D@std@@V?$allocator@D@2@@std@@QBEIXZ 1013e930 f i MessageDefinition.obj
 0002:00045950       ??$?0PAVNPAsyncCallback@@@?$allocator@PAPAVNPAsyncCallback@@@std@@QAE@ABV?$allocator@PAVNPAsyncCallback@@@1@@Z 1013e950 f i NPAsync.obj
 0002:00045970       ??$?0U?$_Wrap_alloc@V?$allocator@PAVNPAsyncCallback@@@std@@@std@@@?$_Wrap_alloc@V?$allocator@PAPAVNPAsyncCallback@@@std@@@std@@QAE@ABU?$_Wrap_alloc@V?$allocator@PAVNPAsyncCallback@@@std@@@1@@Z 1013e970 f i NPAsync.obj
 0002:000459a0       ??$_Allocate@U_Container_proxy@std@@@std@@YAPAU_Container_proxy@0@IPAU10@@Z 1013e9a0 f i NPAsync.obj
 0002:00045a00       ??$construct@U_Container_proxy@std@@U12@@?$_Wrap_alloc@V?$allocator@U_Container_proxy@std@@@std@@@std@@QAEXPAU_Container_proxy@1@$$QAU21@@Z 1013ea00 f i NPAsync.obj
 0002:00045a40       ??$construct@U_Container_proxy@std@@U12@@?$allocator@U_Container_proxy@std@@@std@@QAEXPAU_Container_proxy@1@$$QAU21@@Z 1013ea40 f i NPAsync.obj
 0002:00045b00       ??$construct@U_Container_proxy@std@@U12@@?$allocator_traits@V?$allocator@U_Container_proxy@std@@@std@@@std@@SAXAAV?$allocator@U_Container_proxy@std@@@1@PAU_Container_proxy@1@$$QAU31@@Z 1013eb00 f i NPAsync.obj
 0002:00045b40       ??$destroy@PAPAVNPAsyncCallback@@@?$_Wrap_alloc@V?$allocator@PAVNPAsyncCallback@@@std@@@std@@QAEXPAPAPAVNPAsyncCallback@@@Z 1013eb40 f i NPAsync.obj
 0002:00045b70       ??$destroy@PAPAVNPAsyncCallback@@@?$allocator@PAVNPAsyncCallback@@@std@@QAEXPAPAPAVNPAsyncCallback@@@Z 1013eb70 f i NPAsync.obj
 0002:00045b90       ??$destroy@PAPAVNPAsyncCallback@@@?$allocator_traits@V?$allocator@PAVNPAsyncCallback@@@std@@@std@@SAXAAV?$allocator@PAVNPAsyncCallback@@@1@PAPAPAVNPAsyncCallback@@@Z 1013eb90 f i NPAsync.obj
 0002:00045bc0       ??$destroy@PAVNPAsyncCallback@@@?$_Wrap_alloc@V?$allocator@PAVNPAsyncCallback@@@std@@@std@@QAEXPAPAVNPAsyncCallback@@@Z 1013ebc0 f i NPAsync.obj
 0002:00045bf0       ??$destroy@PAVNPAsyncCallback@@@?$allocator@PAVNPAsyncCallback@@@std@@QAEXPAPAVNPAsyncCallback@@@Z 1013ebf0 f i NPAsync.obj
 0002:00045c10       ??$destroy@PAVNPAsyncCallback@@@?$allocator_traits@V?$allocator@PAVNPAsyncCallback@@@std@@@std@@SAXAAV?$allocator@PAVNPAsyncCallback@@@1@PAPAVNPAsyncCallback@@@Z 1013ec10 f i NPAsync.obj
 0002:00045c40       ??$destroy@U_Container_proxy@std@@@?$_Wrap_alloc@V?$allocator@U_Container_proxy@std@@@std@@@std@@QAEXPAU_Container_proxy@1@@Z 1013ec40 f i NPAsync.obj
 0002:00045c70       ??$destroy@U_Container_proxy@std@@@?$allocator@U_Container_proxy@std@@@std@@QAEXPAU_Container_proxy@1@@Z 1013ec70 f i NPAsync.obj
 0002:00045c90       ??$destroy@U_Container_proxy@std@@@?$allocator_traits@V?$allocator@U_Container_proxy@std@@@std@@@std@@SAXAAV?$allocator@U_Container_proxy@std@@@1@PAU_Container_proxy@1@@Z 1013ec90 f i NPAsync.obj
 0002:00045cc0       ??$forward@U_Container_proxy@std@@@std@@YA$$QAU_Container_proxy@0@AAU10@@Z 1013ecc0 f i NPAsync.obj
 0002:00045ce0       ??0?$_Deque_alloc@$0A@U?$_Deque_base_types@PAVNPAsyncCallback@@V?$allocator@PAVNPAsyncCallback@@@std@@@std@@@std@@QAE@ABV?$allocator@PAVNPAsyncCallback@@@1@@Z 1013ece0 f i NPAsync.obj
 0002:00045d60       ??0?$_Deque_const_iterator@V?$_Deque_val@U?$_Deque_simple_types@PAVNPAsyncCallback@@@std@@@std@@@std@@QAE@IPBU_Container_base12@1@@Z 1013ed60 f i NPAsync.obj
 0002:00045df0       ??0?$_Deque_iterator@V?$_Deque_val@U?$_Deque_simple_types@PAVNPAsyncCallback@@@std@@@std@@@std@@QAE@IPBU_Container_base12@1@@Z 1013edf0 f i NPAsync.obj
 0002:00045e30       ??0?$_Deque_val@U?$_Deque_simple_types@PAVNPAsyncCallback@@@std@@@std@@QAE@XZ 1013ee30 f i NPAsync.obj
 0002:00045e90       ??0?$_Wrap_alloc@V?$allocator@PAVNPAsyncCallback@@@std@@@std@@QAE@XZ 1013ee90 f i NPAsync.obj
 0002:00045ec0       ??0?$_Wrap_alloc@V?$allocator@U_Container_proxy@std@@@std@@@std@@QAE@XZ 1013eec0 f i NPAsync.obj
 0002:00045ef0       ??0?$allocator@PAVNPAsyncCallback@@@std@@QAE@XZ 1013eef0 f i NPAsync.obj
 0002:00045f10       ??0?$allocator@U_Container_proxy@std@@@std@@QAE@XZ 1013ef10 f i NPAsync.obj
 0002:00045f30       ??0?$deque@PAVNPAsyncCallback@@V?$allocator@PAVNPAsyncCallback@@@std@@@std@@QAE@XZ 1013ef30 f i NPAsync.obj
 0002:00045f60       ??0?$queue@PAVNPAsyncCallback@@V?$deque@PAVNPAsyncCallback@@V?$allocator@PAVNPAsyncCallback@@@std@@@std@@@std@@QAE@XZ 1013ef60 f i NPAsync.obj
 0002:00045f90       ??0_Container_base12@std@@QAE@XZ 1013ef90 f i NPAsync.obj
 0002:00045fc0       ??0_Container_proxy@std@@QAE@XZ 1013efc0 f i NPAsync.obj
 0002:00046000       ??0_Iterator_base12@std@@QAE@XZ 1013f000 f i NPAsync.obj
 0002:00046040       ??1?$_Deque_alloc@$0A@U?$_Deque_base_types@PAVNPAsyncCallback@@V?$allocator@PAVNPAsyncCallback@@@std@@@std@@@std@@QAE@XZ 1013f040 f i NPAsync.obj
 0002:00046070       ??1?$_Deque_const_iterator@V?$_Deque_val@U?$_Deque_simple_types@PAVNPAsyncCallback@@@std@@@std@@@std@@QAE@XZ 1013f070 f i NPAsync.obj
 0002:000460a0       ??1?$_Deque_iterator@V?$_Deque_val@U?$_Deque_simple_types@PAVNPAsyncCallback@@@std@@@std@@@std@@QAE@XZ 1013f0a0 f i NPAsync.obj
 0002:000460d0       ??1?$_Deque_val@U?$_Deque_simple_types@PAVNPAsyncCallback@@@std@@@std@@QAE@XZ 1013f0d0 f i NPAsync.obj
 0002:00046100       ??1?$deque@PAVNPAsyncCallback@@V?$allocator@PAVNPAsyncCallback@@@std@@@std@@QAE@XZ 1013f100 f i NPAsync.obj
 0002:00046130       ??1?$queue@PAVNPAsyncCallback@@V?$deque@PAVNPAsyncCallback@@V?$allocator@PAVNPAsyncCallback@@@std@@@std@@@std@@QAE@XZ 1013f130 f i NPAsync.obj
 0002:00046160       ??1_Container_base12@std@@QAE@XZ 1013f160 f i NPAsync.obj
 0002:00046190       ??1_Iterator_base12@std@@QAE@XZ 1013f190 f i NPAsync.obj
 0002:000461b0       ??D?$_Deque_const_iterator@V?$_Deque_val@U?$_Deque_simple_types@PAVNPAsyncCallback@@@std@@@std@@@std@@QBEABQAVNPAsyncCallback@@XZ 1013f1b0 f i NPAsync.obj
 0002:00046220       ??D?$_Deque_iterator@V?$_Deque_val@U?$_Deque_simple_types@PAVNPAsyncCallback@@@std@@@std@@@std@@QBEAAPAVNPAsyncCallback@@XZ 1013f220 f i NPAsync.obj
 0002:00046250       ?Async_RunCallbacks@@YAXXZ 1013f250 f   NPAsync.obj
 0002:000462d0       ?_Adopt@_Iterator_base12@std@@QAEXPBU_Container_base12@2@@Z 1013f2d0 f i NPAsync.obj
 0002:00046310       ?_Alloc_proxy@?$_Deque_alloc@$0A@U?$_Deque_base_types@PAVNPAsyncCallback@@V?$allocator@PAVNPAsyncCallback@@@std@@@std@@@std@@QAEXXZ 1013f310 f i NPAsync.obj
 0002:00046370       ?_Free_proxy@?$_Deque_alloc@$0A@U?$_Deque_base_types@PAVNPAsyncCallback@@V?$allocator@PAVNPAsyncCallback@@@std@@@std@@@std@@QAEXXZ 1013f370 f i NPAsync.obj
 0002:000463d0       ?_Getal@?$_Deque_alloc@$0A@U?$_Deque_base_types@PAVNPAsyncCallback@@V?$allocator@PAVNPAsyncCallback@@@std@@@std@@@std@@QBE?AU?$_Wrap_alloc@V?$allocator@PAVNPAsyncCallback@@@std@@@2@XZ 1013f3d0 f i NPAsync.obj
 0002:00046400       ?_Getblock@?$_Deque_val@U?$_Deque_simple_types@PAVNPAsyncCallback@@@std@@@std@@QBEII@Z 1013f400 f i NPAsync.obj
 0002:00046430       ?_Getcont@_Iterator_base12@std@@QBEPBU_Container_base12@2@XZ 1013f430 f i NPAsync.obj
 0002:00046470       ?_Orphan_all@_Container_base12@std@@QAEXXZ 1013f470 f i NPAsync.obj
 0002:00046490       ?_Setcont@?$_Deque_const_iterator@V?$_Deque_val@U?$_Deque_simple_types@PAVNPAsyncCallback@@@std@@@std@@@std@@QAEXPBV?$_Deque_val@U?$_Deque_simple_types@PAVNPAsyncCallback@@@std@@@2@@Z 1013f490 f i NPAsync.obj
 0002:000464c0       ?_Tidy@?$deque@PAVNPAsyncCallback@@V?$allocator@PAVNPAsyncCallback@@@std@@@std@@IAEXXZ 1013f4c0 f i NPAsync.obj
 0002:000465e0       ?allocate@?$_Wrap_alloc@V?$allocator@U_Container_proxy@std@@@std@@@std@@QAEPAU_Container_proxy@2@I@Z 1013f5e0 f i NPAsync.obj
 0002:00046610       ?allocate@?$allocator@U_Container_proxy@std@@@std@@QAEPAU_Container_proxy@2@I@Z 1013f610 f i NPAsync.obj
 0002:00046640       ?begin@?$deque@PAVNPAsyncCallback@@V?$allocator@PAVNPAsyncCallback@@@std@@@std@@QAE?AV?$_Deque_iterator@V?$_Deque_val@U?$_Deque_simple_types@PAVNPAsyncCallback@@@std@@@std@@@2@XZ 1013f640 f i NPAsync.obj
 0002:00046680       ?deallocate@?$_Wrap_alloc@V?$allocator@PAPAVNPAsyncCallback@@@std@@@std@@QAEXPAPAPAVNPAsyncCallback@@I@Z 1013f680 f i NPAsync.obj
 0002:000466b0       ?deallocate@?$_Wrap_alloc@V?$allocator@PAVNPAsyncCallback@@@std@@@std@@QAEXPAPAVNPAsyncCallback@@I@Z 1013f6b0 f i NPAsync.obj
 0002:000466e0       ?deallocate@?$_Wrap_alloc@V?$allocator@U_Container_proxy@std@@@std@@@std@@QAEXPAU_Container_proxy@2@I@Z 1013f6e0 f i NPAsync.obj
 0002:00046710       ?deallocate@?$allocator@PAPAVNPAsyncCallback@@@std@@QAEXPAPAPAVNPAsyncCallback@@I@Z 1013f710 f i NPAsync.obj
 0002:00046740       ?deallocate@?$allocator@PAVNPAsyncCallback@@@std@@QAEXPAPAVNPAsyncCallback@@I@Z 1013f740 f i NPAsync.obj
 0002:00046770       ?deallocate@?$allocator@U_Container_proxy@std@@@std@@QAEXPAU_Container_proxy@2@I@Z 1013f770 f i NPAsync.obj
 0002:000467a0       ?empty@?$deque@PAVNPAsyncCallback@@V?$allocator@PAVNPAsyncCallback@@@std@@@std@@QBE_NXZ 1013f7a0 f i NPAsync.obj
 0002:000467e0       ?empty@?$queue@PAVNPAsyncCallback@@V?$deque@PAVNPAsyncCallback@@V?$allocator@PAVNPAsyncCallback@@@std@@@std@@@std@@QBE_NXZ 1013f7e0 f i NPAsync.obj
 0002:00046810       ?front@?$deque@PAVNPAsyncCallback@@V?$allocator@PAVNPAsyncCallback@@@std@@@std@@QAEAAPAVNPAsyncCallback@@XZ 1013f810 f i NPAsync.obj
 0002:000468b0       ?front@?$queue@PAVNPAsyncCallback@@V?$deque@PAVNPAsyncCallback@@V?$allocator@PAVNPAsyncCallback@@@std@@@std@@@std@@QAEAAPAVNPAsyncCallback@@XZ 1013f8b0 f i NPAsync.obj
 0002:000468e0       ?pop@?$queue@PAVNPAsyncCallback@@V?$deque@PAVNPAsyncCallback@@V?$allocator@PAVNPAsyncCallback@@@std@@@std@@@std@@QAEXXZ 1013f8e0 f i NPAsync.obj
 0002:00046910       ?pop_back@?$deque@PAVNPAsyncCallback@@V?$allocator@PAVNPAsyncCallback@@@std@@@std@@QAEXXZ 1013f910 f i NPAsync.obj
 0002:000469c0       ?pop_front@?$deque@PAVNPAsyncCallback@@V?$allocator@PAVNPAsyncCallback@@@std@@@std@@QAEXXZ 1013f9c0 f i NPAsync.obj
 0002:00046a70       ??$_Allocate@PAPAVNPAsyncCallback@@@std@@YAPAPAPAVNPAsyncCallback@@IPAPAPAV1@@Z 1013fa70 f i NPAuthenticate.obj
 0002:00046ad0       ??$_Allocate@PAVNPAsyncCallback@@@std@@YAPAPAVNPAsyncCallback@@IPAPAV1@@Z 1013fad0 f i NPAuthenticate.obj
 0002:00046b30       ??$_Destroy_range@U?$_Wrap_alloc@V?$allocator@PAPAVNPAsyncCallback@@@std@@@std@@@std@@YAXPAPAPAVNPAsyncCallback@@0AAU?$_Wrap_alloc@V?$allocator@PAPAVNPAsyncCallback@@@std@@@0@@Z 1013fb30 f i NPAuthenticate.obj
 0002:00046b80       ??$_Destroy_range@U?$_Wrap_alloc@V?$allocator@PAPAVNPAsyncCallback@@@std@@@std@@@std@@YAXPAPAPAVNPAsyncCallback@@0AAU?$_Wrap_alloc@V?$allocator@PAPAVNPAsyncCallback@@@std@@@0@U_Scalar_ptr_iterator_tag@0@@Z 1013fb80 f i NPAuthenticate.obj
 0002:00046ba0       ??$_Fill_n@PAPAPAVNPAsyncCallback@@IPAPAV1@@std@@YAPAPAPAVNPAsyncCallback@@PAPAPAV1@IABQAPAV1@@Z 1013fba0 f i NPAuthenticate.obj
 0002:00046bf0       ??$_Ptr_cat@PAPAVNPAsyncCallback@@PAPAV1@@std@@YA?AU_Scalar_ptr_iterator_tag@0@PAPAPAVNPAsyncCallback@@0@Z 1013fbf0 f i NPAuthenticate.obj
 0002:00046c10       ??$_Rechecked@PAPAPAVNPAsyncCallback@@PAPAPAV1@@std@@YAAAPAPAPAVNPAsyncCallback@@AAPAPAPAV1@PAPAPAV1@@Z 1013fc10 f i NPAuthenticate.obj
 0002:00046c40       ??$_Unchecked@PAPAPAVNPAsyncCallback@@@std@@YAPAPAPAVNPAsyncCallback@@PAPAPAV1@@Z 1013fc40 f i NPAuthenticate.obj
 0002:00046c60       ??$_Uninit_copy@PAPAPAVNPAsyncCallback@@PAPAPAV1@U?$_Wrap_alloc@V?$allocator@PAPAVNPAsyncCallback@@@std@@@std@@@std@@YAPAPAPAVNPAsyncCallback@@PAPAPAV1@00AAU?$_Wrap_alloc@V?$allocator@PAPAVNPAsyncCallback@@@std@@@0@@Z 1013fc60 f i NPAuthenticate.obj
 0002:00046cb0       ??$_Uninit_copy@PAPAVNPAsyncCallback@@PAPAV1@@std@@YAPAPAPAVNPAsyncCallback@@PAPAPAV1@00AAU?$_Wrap_alloc@V?$allocator@PAPAVNPAsyncCallback@@@std@@@0@U_Scalar_ptr_iterator_tag@0@@Z 1013fcb0 f i NPAuthenticate.obj
 0002:00046d00       ??$_Uninit_def_fill_n@PAPAVNPAsyncCallback@@IPAPAV1@@std@@YAXPAPAPAVNPAsyncCallback@@IAAU?$_Wrap_alloc@V?$allocator@PAPAVNPAsyncCallback@@@std@@@0@0U_Scalar_ptr_iterator_tag@0@@Z 1013fd00 f i NPAuthenticate.obj
 0002:00046d40       ??$_Uninitialized_copy@PAPAPAVNPAsyncCallback@@PAPAPAV1@U?$_Wrap_alloc@V?$allocator@PAPAVNPAsyncCallback@@@std@@@std@@@std@@YAPAPAPAVNPAsyncCallback@@PAPAPAV1@00AAU?$_Wrap_alloc@V?$allocator@PAPAVNPAsyncCallback@@@std@@@0@@Z 1013fd40 f i NPAuthenticate.obj
 0002:00046db0       ??$_Uninitialized_default_fill_n@PAPAPAVNPAsyncCallback@@IU?$_Wrap_alloc@V?$allocator@PAPAVNPAsyncCallback@@@std@@@std@@@std@@YAXPAPAPAVNPAsyncCallback@@IAAU?$_Wrap_alloc@V?$allocator@PAPAVNPAsyncCallback@@@std@@@0@@Z 1013fdb0 f i NPAuthenticate.obj
 0002:00046e10       ??$_Val_type@PAPAPAVNPAsyncCallback@@@std@@YAPAPAPAVNPAsyncCallback@@PAPAPAV1@@Z 1013fe10 f i NPAuthenticate.obj
 0002:00046e30       ??$construct@PAVNPAsyncCallback@@PAV1@@?$_Wrap_alloc@V?$allocator@PAVNPAsyncCallback@@@std@@@std@@QAEXPAPAVNPAsyncCallback@@$$QAPAV2@@Z 1013fe30 f i NPAuthenticate.obj
 0002:00046e70       ??$construct@PAVNPAsyncCallback@@PAV1@@?$allocator@PAVNPAsyncCallback@@@std@@QAEXPAPAVNPAsyncCallback@@$$QAPAV2@@Z 1013fe70 f i NPAuthenticate.obj
 0002:00046f20       ??$construct@PAVNPAsyncCallback@@PAV1@@?$allocator_traits@V?$allocator@PAVNPAsyncCallback@@@std@@@std@@SAXAAV?$allocator@PAVNPAsyncCallback@@@1@PAPAVNPAsyncCallback@@$$QAPAV3@@Z 1013ff20 f i NPAuthenticate.obj
 0002:00046f60       ??$forward@PAVNPAsyncCallback@@@std@@YA$$QAPAVNPAsyncCallback@@AAPAV1@@Z 1013ff60 f i NPAuthenticate.obj
 0002:00046f80       ??$move@AAPAVNPAsyncCallback@@@std@@YA$$QAPAVNPAsyncCallback@@AAPAV1@@Z 1013ff80 f i NPAuthenticate.obj
 0002:00046fa0       ??$strcpy_s@$0CA@@@YAHAAY0CA@DPBD@Z 1013ffa0 f i NPAuthenticate.obj
 0002:00046fd0       ??0?$NPAsync@VNPAuthenticateResult@@@@QAE@XZ 1013ffd0 f i NPAuthenticate.obj
 0002:00047000       ??0?$NPAsync@VNPRegisterServerResult@@@@QAE@XZ 10140000 f i NPAuthenticate.obj
 0002:00047030       ??0?$NPAsync@VNPValidateUserTicketResult@@@@QAE@XZ 10140030 f i NPAuthenticate.obj
 0002:00047060       ??0?$NPAsyncImpl@VNPAuthenticateResult@@@@QAE@XZ 10140060 f i NPAuthenticate.obj
 0002:000470f0       ??0?$NPAsyncImpl@VNPRegisterServerResult@@@@QAE@XZ 101400f0 f i NPAuthenticate.obj
 0002:00047180       ??0?$NPAsyncImpl@VNPValidateUserTicketResult@@@@QAE@XZ 10140180 f i NPAuthenticate.obj
 0002:00047210       ??0?$_Wrap_alloc@V?$allocator@D@std@@@std@@QAE@ABV?$allocator@D@1@@Z 10140210 f i NPAuthenticate.obj
 0002:00047240       ??0?$allocator@D@std@@QAE@ABV01@@Z 10140240 f i NPAuthenticate.obj
 0002:00047260       ??0?$basic_string@DU?$char_traits@D@std@@V?$allocator@D@2@@std@@QAE@ABV01@@Z 10140260 f i NPAuthenticate.obj
 0002:000472d0       ??0?$basic_string@DU?$char_traits@D@std@@V?$allocator@D@2@@std@@QAE@PBDI@Z 101402d0 f i NPAuthenticate.obj
 0002:00047330       ??0NPAsyncCallback@@QAE@XZ 10140330 f i NPAuthenticate.obj
 0002:00047500       ?Authenticate_EAHandler@@YAXPAVINPRPCMessage@@@Z 10140500 f   NPAuthenticate.obj
 0002:00047550       ?Authenticate_Init@@YAXXZ  10140550 f   NPAuthenticate.obj
 0002:000475b0       ?Authenticate_KickUser@@YAXPAVINPRPCMessage@@@Z 101405b0 f   NPAuthenticate.obj
 0002:00047620       ?Authenticate_Reauthenticate@@YAXXZ 10140620 f   NPAuthenticate.obj
 0002:000476a0       ?Authenticate_SetUserGroup@@YAXPAVINPRPCMessage@@@Z 101406a0 f   NPAuthenticate.obj
 0002:000476e0       ?Free@?$NPAsyncImpl@VNPAuthenticateResult@@@@UAEXXZ 101406e0 f i NPAuthenticate.obj
 0002:00047744       ?Free@?$NPAsyncImpl@VNPAuthenticateResult@@@@W3AEXXZ 10140744 f i NPAuthenticate.obj
 0002:00047750       ?Free@?$NPAsyncImpl@VNPRegisterServerResult@@@@UAEXXZ 10140750 f i NPAuthenticate.obj
 0002:000477b4       ?Free@?$NPAsyncImpl@VNPRegisterServerResult@@@@W3AEXXZ 101407b4 f i NPAuthenticate.obj
 0002:000477c0       ?Free@?$NPAsyncImpl@VNPValidateUserTicketResult@@@@UAEXXZ 101407c0 f i NPAuthenticate.obj
 0002:00047824       ?Free@?$NPAsyncImpl@VNPValidateUserTicketResult@@@@W3AEXXZ 10140824 f i NPAuthenticate.obj
 0002:00047830       ?GetResult@?$NPAsyncImpl@VNPAuthenticateResult@@@@UAEPAVNPAuthenticateResult@@XZ 10140830 f i NPAuthenticate.obj
 0002:00047850       ?GetResult@?$NPAsyncImpl@VNPRegisterServerResult@@@@UAEPAVNPRegisterServerResult@@XZ 10140850 f i NPAuthenticate.obj
 0002:00047870       ?GetResult@?$NPAsyncImpl@VNPValidateUserTicketResult@@@@UAEPAVNPValidateUserTicketResult@@XZ 10140870 f i NPAuthenticate.obj
 0002:00047890       ?GetUserData@?$NPAsyncImpl@VNPAuthenticateResult@@@@UAEPAXXZ 10140890 f i NPAuthenticate.obj
 0002:000478b0       ?GetUserData@?$NPAsyncImpl@VNPRegisterServerResult@@@@UAEPAXXZ 101408b0 f i NPAuthenticate.obj
 0002:000478d0       ?GetUserData@?$NPAsyncImpl@VNPValidateUserTicketResult@@@@UAEPAXXZ 101408d0 f i NPAuthenticate.obj
 0002:000478f0       ?HasCompleted@?$NPAsyncImpl@VNPAuthenticateResult@@@@UAE_NXZ 101408f0 f i NPAuthenticate.obj
 0002:00047930       ?HasCompleted@?$NPAsyncImpl@VNPRegisterServerResult@@@@UAE_NXZ 10140930 f i NPAuthenticate.obj
 0002:00047970       ?HasCompleted@?$NPAsyncImpl@VNPValidateUserTicketResult@@@@UAE_NXZ 10140970 f i NPAuthenticate.obj
 0002:00047b20       ?RunCallback@?$NPAsyncImpl@VNPAuthenticateResult@@@@UAE_NXZ 10140b20 f i NPAuthenticate.obj
 0002:00047b90       ?RunCallback@?$NPAsyncImpl@VNPRegisterServerResult@@@@UAE_NXZ 10140b90 f i NPAuthenticate.obj
 0002:00047c00       ?RunCallback@?$NPAsyncImpl@VNPValidateUserTicketResult@@@@UAE_NXZ 10140c00 f i NPAuthenticate.obj
 0002:00047c70       ?SetCallback@?$NPAsyncImpl@VNPAuthenticateResult@@@@UAEXP6AXPAV?$NPAsync@VNPAuthenticateResult@@@@@ZPAX@Z 10140c70 f i NPAuthenticate.obj
 0002:00047cb0       ?SetCallback@?$NPAsyncImpl@VNPRegisterServerResult@@@@UAEXP6AXPAV?$NPAsync@VNPRegisterServerResult@@@@@ZPAX@Z 10140cb0 f i NPAuthenticate.obj
 0002:00047cf0       ?SetCallback@?$NPAsyncImpl@VNPValidateUserTicketResult@@@@UAEXP6AXPAV?$NPAsync@VNPValidateUserTicketResult@@@@@ZPAX@Z 10140cf0 f i NPAuthenticate.obj
 0002:00047d30       ?SetResult@?$NPAsyncImpl@VNPAuthenticateResult@@@@QAEXPAVNPAuthenticateResult@@@Z 10140d30 f i NPAuthenticate.obj
 0002:00047da0       ?SetResult@?$NPAsyncImpl@VNPRegisterServerResult@@@@QAEXPAVNPRegisterServerResult@@@Z 10140da0 f i NPAuthenticate.obj
 0002:00047e10       ?SetResult@?$NPAsyncImpl@VNPValidateUserTicketResult@@@@QAEXPAVNPValidateUserTicketResult@@@Z 10140e10 f i NPAuthenticate.obj
 0002:00047f70       ?Wait@?$NPAsyncImpl@VNPAuthenticateResult@@@@UAEPAVNPAuthenticateResult@@XZ 10140f70 f i NPAuthenticate.obj
 0002:00047fd0       ?Wait@?$NPAsyncImpl@VNPRegisterServerResult@@@@UAEPAVNPRegisterServerResult@@XZ 10140fd0 f i NPAuthenticate.obj
 0002:00048030       ?Wait@?$NPAsyncImpl@VNPValidateUserTicketResult@@@@UAEPAVNPValidateUserTicketResult@@XZ 10141030 f i NPAuthenticate.obj
 0002:00048090       ?_Growmap@?$deque@PAVNPAsyncCallback@@V?$allocator@PAVNPAsyncCallback@@@std@@@std@@IAEXI@Z 10141090 f i NPAuthenticate.obj
 0002:00048330       ?_Xlen@?$deque@PAVNPAsyncCallback@@V?$allocator@PAVNPAsyncCallback@@@std@@@std@@IBEXXZ 10141330 f i NPAuthenticate.obj
 0002:00048360       ?allocate@?$_Wrap_alloc@V?$allocator@PAPAVNPAsyncCallback@@@std@@@std@@QAEPAPAPAVNPAsyncCallback@@I@Z 10141360 f i NPAuthenticate.obj
 0002:00048390       ?allocate@?$_Wrap_alloc@V?$allocator@PAVNPAsyncCallback@@@std@@@std@@QAEPAPAVNPAsyncCallback@@I@Z 10141390 f i NPAuthenticate.obj
 0002:000483c0       ?allocate@?$allocator@PAPAVNPAsyncCallback@@@std@@QAEPAPAPAVNPAsyncCallback@@I@Z 101413c0 f i NPAuthenticate.obj
 0002:000483f0       ?allocate@?$allocator@PAVNPAsyncCallback@@@std@@QAEPAPAVNPAsyncCallback@@I@Z 101413f0 f i NPAuthenticate.obj
 0002:00048420       ?assign@?$basic_string@DU?$char_traits@D@std@@V?$allocator@D@2@@std@@QAEAAV12@ABV12@@Z 10141420 f i NPAuthenticate.obj
 0002:00048460       ?groupid@AuthenticateUserGroupMessage@@QBEHXZ 10141460 f i NPAuthenticate.obj
 0002:00048480       ?groupid@AuthenticateValidateTicketResultMessage@@QBEHXZ 10141480 f i NPAuthenticate.obj
 0002:000484a0       ?licensekey@AuthenticateRegisterServerResultMessage@@QBEABV?$basic_string@DU?$char_traits@D@std@@V?$allocator@D@2@@std@@XZ 101414a0 f i NPAuthenticate.obj
 0002:000484c0       ?max_size@?$_Wrap_alloc@V?$allocator@PAVNPAsyncCallback@@@std@@@std@@QBEIXZ 101414c0 f i NPAuthenticate.obj
 0002:000484f0       ?max_size@?$allocator@PAVNPAsyncCallback@@@std@@QBEIXZ 101414f0 f i NPAuthenticate.obj
 0002:00048510       ?max_size@?$allocator_traits@V?$allocator@PAVNPAsyncCallback@@@std@@@std@@SAIABV?$allocator@PAVNPAsyncCallback@@@2@@Z 10141510 f i NPAuthenticate.obj
 0002:00048530       ?max_size@?$deque@PAVNPAsyncCallback@@V?$allocator@PAVNPAsyncCallback@@@std@@@std@@QBEIXZ 10141530 f i NPAuthenticate.obj
 0002:00048560       ?npid@AuthenticateKickUserMessage@@QBE_KXZ 10141560 f i NPAuthenticate.obj
 0002:00048590       ?npid@AuthenticateResultMessage@@QBE_KXZ 10141590 f i NPAuthenticate.obj
 0002:000485c0       ?npid@AuthenticateValidateTicketResultMessage@@QBE_KXZ 101415c0 f i NPAuthenticate.obj
 0002:000485f0       ?push@?$queue@PAVNPAsyncCallback@@V?$deque@PAVNPAsyncCallback@@V?$allocator@PAVNPAsyncCallback@@@std@@@std@@@std@@QAEX$$QAPAVNPAsyncCallback@@@Z 101415f0 f i NPAuthenticate.obj
 0002:00048630       ?push_back@?$deque@PAVNPAsyncCallback@@V?$allocator@PAVNPAsyncCallback@@@std@@@std@@QAEX$$QAPAVNPAsyncCallback@@@Z 10141630 f i NPAuthenticate.obj
 0002:00048780       ?reasonstring@AuthenticateKickUserMessage@@QBEABV?$basic_string@DU?$char_traits@D@std@@V?$allocator@D@2@@std@@XZ 10141780 f i NPAuthenticate.obj
 0002:000487a0       ?result@AuthenticateRegisterServerResultMessage@@QBEHXZ 101417a0 f i NPAuthenticate.obj
 0002:000487c0       ?result@AuthenticateResultMessage@@QBEHXZ 101417c0 f i NPAuthenticate.obj
 0002:000487e0       ?result@AuthenticateValidateTicketResultMessage@@QBEHXZ 101417e0 f i NPAuthenticate.obj
 0002:00048800       ?select_on_container_copy_construction@?$_Wrap_alloc@V?$allocator@D@std@@@std@@QBE?AU12@XZ 10141800 f i NPAuthenticate.obj
 0002:00048840       ?select_on_container_copy_construction@?$allocator@D@std@@QBE?AV12@XZ 10141840 f i NPAuthenticate.obj
 0002:00048870       ?select_on_container_copy_construction@?$allocator_traits@V?$allocator@D@std@@@std@@SA?AV?$allocator@D@2@ABV32@@Z 10141870 f i NPAuthenticate.obj
 0002:000488a0       ?serverid@AuthenticateRegisterServerResultMessage@@QBEHXZ 101418a0 f i NPAuthenticate.obj
 0002:000488c0       ?sessiontoken@AuthenticateResultMessage@@QBEABV?$basic_string@DU?$char_traits@D@std@@V?$allocator@D@2@@std@@XZ 101418c0 f i NPAuthenticate.obj
 0002:000488e0       ?set_clientip@AuthenticateValidateTicketMessage@@QAEXI@Z 101418e0 f i NPAuthenticate.obj
 0002:00048910       ?set_configpath@AuthenticateRegisterServerMessage@@QAEXPBD@Z 10141910 f i NPAuthenticate.obj
 0002:000489e0       ?set_has_clientip@AuthenticateValidateTicketMessage@@AAEXXZ 101419e0 f i NPAuthenticate.obj
 0002:00048a30       ?set_has_configpath@AuthenticateRegisterServerMessage@@AAEXXZ 10141a30 f i NPAuthenticate.obj
 0002:00048a80       ?set_has_licensekey@AuthenticateWithKeyMessage@@AAEXXZ 10141a80 f i NPAuthenticate.obj
 0002:00048ad0       ?set_has_name@AuthenticateValidateTicketMessage@@AAEXXZ 10141ad0 f i NPAuthenticate.obj
 0002:00048b20       ?set_has_npid@AuthenticateValidateTicketMessage@@AAEXXZ 10141b20 f i NPAuthenticate.obj
 0002:00048b70       ?set_has_password@AuthenticateWithDetailsMessage@@AAEXXZ 10141b70 f i NPAuthenticate.obj
 0002:00048bc0       ?set_has_ticket@AuthenticateValidateTicketMessage@@AAEXXZ 10141bc0 f i NPAuthenticate.obj
 0002:00048c10       ?set_has_token@AuthenticateWithTokenMessage@@AAEXXZ 10141c10 f i NPAuthenticate.obj
 0002:00048c60       ?set_has_username@AuthenticateWithDetailsMessage@@AAEXXZ 10141c60 f i NPAuthenticate.obj
 0002:00048cb0       ?set_licensekey@AuthenticateWithKeyMessage@@QAEXPBD@Z 10141cb0 f i NPAuthenticate.obj
 0002:00048d80       ?set_name@AuthenticateValidateTicketMessage@@QAEXPBD@Z 10141d80 f i NPAuthenticate.obj
 0002:00048e50       ?set_npid@AuthenticateValidateTicketMessage@@QAEX_K@Z 10141e50 f i NPAuthenticate.obj
 0002:00048e90       ?set_password@AuthenticateWithDetailsMessage@@QAEXPBD@Z 10141e90 f i NPAuthenticate.obj
 0002:00048f60       ?set_ticket@AuthenticateValidateTicketMessage@@QAEXABV?$basic_string@DU?$char_traits@D@std@@V?$allocator@D@2@@std@@@Z 10141f60 f i NPAuthenticate.obj
 0002:00049030       ?set_token@AuthenticateWithTokenMessage@@QAEXPBD@Z 10142030 f i NPAuthenticate.obj
 0002:00049100       ?set_username@AuthenticateWithDetailsMessage@@QAEXPBD@Z 10142100 f i NPAuthenticate.obj
 0002:000491d0       ?status@AuthenticateExternalStatusMessage@@QBEHXZ 101421d0 f i NPAuthenticate.obj
 0002:000491f0       _NP_AuthenticateWithDetails 101421f0 f   NPAuthenticate.obj
 0002:00049340       _NP_AuthenticateWithLicenseKey 10142340 f   NPAuthenticate.obj
 0002:00049460       _NP_AuthenticateWithToken  10142460 f   NPAuthenticate.obj
 0002:00049580       _NP_GetNPID                10142580 f   NPAuthenticate.obj
 0002:000495d0       _NP_GetUserGroup           101425d0 f   NPAuthenticate.obj
 0002:000495f0       _NP_GetUserTicket          101425f0 f   NPAuthenticate.obj
 0002:00049690       _NP_LoadGameModule         10142690 f   NPAuthenticate.obj
 0002:00049820       _NP_RegisterEACallback     10142820 f   NPAuthenticate.obj
 0002:00049850       _NP_RegisterKickCallback   10142850 f   NPAuthenticate.obj
 0002:00049870       _NP_RegisterServer         10142870 f   NPAuthenticate.obj
 0002:00049960       _NP_TerminateGameConnection 10142960 f   NPAuthenticate.obj
 0002:00049980       _NP_ValidateUserTicket     10142980 f   NPAuthenticate.obj
 0002:00049b00       ??$?0V?$basic_string@DU?$char_traits@D@std@@V?$allocator@D@2@@std@@@ConstByteArrayParameter@CryptoPP@@QAE@ABV?$basic_string@DU?$char_traits@D@std@@V?$allocator@D@2@@std@@_N@Z 10142b00 f i NPEncryption.obj
 0002:00049ba0       ??$?HDU?$char_traits@D@std@@V?$allocator@D@1@@std@@YA?AV?$basic_string@DU?$char_traits@D@std@@V?$allocator@D@2@@0@$$QAV10@PBD@Z 10142ba0 f i NPEncryption.obj
 0002:00049c00       ??$?HDU?$char_traits@D@std@@V?$allocator@D@1@@std@@YA?AV?$basic_string@DU?$char_traits@D@std@@V?$allocator@D@2@@0@PBDABV10@@Z 10142c00 f i NPEncryption.obj
 0002:00049cf0       ??$?RH@AlgorithmParameters@CryptoPP@@QAEAAV01@PBDABH@Z 10142cf0 f i NPEncryption.obj
 0002:00049d30       ??$?RH@AlgorithmParameters@CryptoPP@@QAEAAV01@PBDABH_N@Z 10142d30 f i NPEncryption.obj
 0002:00049e60       ??$?RVConstByteArrayParameter@CryptoPP@@@AlgorithmParameters@CryptoPP@@QAEAAV01@PBDABVConstByteArrayParameter@1@@Z 10142e60 f i NPEncryption.obj
 0002:00049ea0       ??$?RVConstByteArrayParameter@CryptoPP@@@AlgorithmParameters@CryptoPP@@QAEAAV01@PBDABVConstByteArrayParameter@1@_N@Z 10142ea0 f i NPEncryption.obj
 0002:00049fd0       ??$?R_N@AlgorithmParameters@CryptoPP@@QAEAAV01@PBDAB_N_N@Z 10142fd0 f i NPEncryption.obj
 0002:0004a100       ??$GetAlignmentOf@G@CryptoPP@@YAIPAG@Z 10143100 f i NPEncryption.obj
 0002:0004a130       ??$GetAlignmentOf@I@CryptoPP@@YAIPAI@Z 10143130 f i NPEncryption.obj
 0002:0004a160       ??$GetValue@PAV?$basic_string@DU?$char_traits@D@std@@V?$allocator@D@2@@std@@@NameValuePairs@CryptoPP@@QBE_NPBDAAPAV?$basic_string@DU?$char_traits@D@std@@V?$allocator@D@2@@std@@@Z 10143160 f i NPEncryption.obj
 0002:0004a1a0       ??$MakeParameters@VConstByteArrayParameter@CryptoPP@@@CryptoPP@@YA?AVAlgorithmParameters@0@PBDABVConstByteArrayParameter@0@_N@Z 101431a0 f i NPEncryption.obj
 0002:0004a260       ??$MakeParameters@_N@CryptoPP@@YA?AVAlgorithmParameters@0@PBDAB_N_N@Z 10143260 f i NPEncryption.obj
 0002:0004a320       ??$STDMIN@I@CryptoPP@@YAABIABI0@Z 10143320 f i NPEncryption.obj
 0002:0004a360       ??$SecureWipeArray@E@CryptoPP@@YAXPAEI@Z 10143360 f i NPEncryption.obj
 0002:0004a3e0       ??$SecureWipeArray@I@CryptoPP@@YAXPAII@Z 101433e0 f i NPEncryption.obj
 0002:0004a4d0       ??$SecureWipeBuffer@E@CryptoPP@@YAXPAEI@Z 101434d0 f i NPEncryption.obj
 0002:0004a500       ??$SecureWipeBuffer@G@CryptoPP@@YAXPAGI@Z 10143500 f i NPEncryption.obj
 0002:0004a530       ??$SecureWipeBuffer@I@CryptoPP@@YAXPAII@Z 10143530 f i NPEncryption.obj
 0002:0004a560       ??$SecureWipeBuffer@_K@CryptoPP@@YAXPA_KI@Z 10143560 f i NPEncryption.obj
 0002:0004a590       ??$StandardReallocate@EV?$AllocatorWithCleanup@E$00@CryptoPP@@@CryptoPP@@YAPAEAAV?$AllocatorWithCleanup@E$00@0@PAEII_N@Z 10143590 f i NPEncryption.obj
 0002:0004a650       ??$StandardReallocate@EV?$AllocatorWithCleanup@E$0A@@CryptoPP@@@CryptoPP@@YAPAEAAV?$AllocatorWithCleanup@E$0A@@0@PAEII_N@Z 10143650 f i NPEncryption.obj
 0002:0004a710       ??$move@AAV?$basic_string@DU?$char_traits@D@std@@V?$allocator@D@2@@std@@@std@@YA$$QAV?$basic_string@DU?$char_traits@D@std@@V?$allocator@D@2@@0@AAV10@@Z 10143710 f i NPEncryption.obj
 0002:0004a730       ??0?$AlgorithmImpl@V?$SimpleKeyingInterfaceImpl@V?$TwoBases@VBlockCipher@CryptoPP@@URijndael_Info@2@@CryptoPP@@V12@@CryptoPP@@V12@@CryptoPP@@QAE@ABV01@@Z 10143730 f i NPEncryption.obj
 0002:0004a760       ??0?$AlgorithmImpl@V?$SimpleKeyingInterfaceImpl@V?$TwoBases@VBlockCipher@CryptoPP@@URijndael_Info@2@@CryptoPP@@V12@@CryptoPP@@V12@@CryptoPP@@QAE@XZ 10143760 f i NPEncryption.obj
 0002:0004a790       ??0?$AlgorithmImpl@VCBC_Decryption@CryptoPP@@V?$CipherModeFinalTemplate_CipherHolder@V?$BlockCipherFinal@$00VDec@Rijndael@CryptoPP@@@CryptoPP@@VCBC_Decryption@2@@2@@CryptoPP@@QAE@XZ 10143790 f i NPEncryption.obj
 0002:0004a7c0       ??0?$AlgorithmImpl@VCBC_Encryption@CryptoPP@@V?$CipherModeFinalTemplate_CipherHolder@V?$BlockCipherFinal@$0A@VEnc@Rijndael@CryptoPP@@@CryptoPP@@VCBC_Encryption@2@@2@@CryptoPP@@QAE@XZ 101437c0 f i NPEncryption.obj
 0002:0004a7f0       ??0?$AlgorithmParametersTemplate@H@CryptoPP@@QAE@ABV01@@Z 101437f0 f i NPEncryption.obj
 0002:0004a840       ??0?$AlgorithmParametersTemplate@H@CryptoPP@@QAE@PBDABH_N@Z 10143840 f i NPEncryption.obj
 0002:0004a890       ??0?$AlgorithmParametersTemplate@VConstByteArrayParameter@CryptoPP@@@CryptoPP@@QAE@ABV01@@Z 10143890 f i NPEncryption.obj
 0002:0004a930       ??0?$AlgorithmParametersTemplate@VConstByteArrayParameter@CryptoPP@@@CryptoPP@@QAE@PBDABVConstByteArrayParameter@1@_N@Z 10143930 f i NPEncryption.obj
 0002:0004a9d0       ??0?$AlgorithmParametersTemplate@_N@CryptoPP@@QAE@ABV01@@Z 101439d0 f i NPEncryption.obj
 0002:0004aa20       ??0?$AlgorithmParametersTemplate@_N@CryptoPP@@QAE@PBDAB_N_N@Z 10143a20 f i NPEncryption.obj
 0002:0004aa70       ??0?$AllocatorWithCleanup@E$00@CryptoPP@@QAE@XZ 10143a70 f i NPEncryption.obj
 0002:0004aa90       ??0?$AllocatorWithCleanup@E$0A@@CryptoPP@@QAE@XZ 10143a90 f i NPEncryption.obj
 0002:0004aab0       ??0?$AutoSignaling@V?$InputRejecting@VBufferedTransformation@CryptoPP@@@CryptoPP@@@CryptoPP@@QAE@H@Z 10143ab0 f i NPEncryption.obj
 0002:0004aaf0       ??0?$BlockCipherFinal@$00VDec@Rijndael@CryptoPP@@@CryptoPP@@QAE@ABV01@@Z 10143af0 f i NPEncryption.obj
 0002:0004ab40       ??0?$BlockCipherFinal@$00VDec@Rijndael@CryptoPP@@@CryptoPP@@QAE@XZ 10143b40 f i NPEncryption.obj
 0002:0004ab80       ??0?$BlockCipherFinal@$0A@VEnc@Rijndael@CryptoPP@@@CryptoPP@@QAE@ABV01@@Z 10143b80 f i NPEncryption.obj
 0002:0004abd0       ??0?$BlockCipherFinal@$0A@VEnc@Rijndael@CryptoPP@@@CryptoPP@@QAE@XZ 10143bd0 f i NPEncryption.obj
 0002:0004ac10       ??0?$BlockCipherImpl@URijndael_Info@CryptoPP@@VBlockCipher@2@@CryptoPP@@QAE@ABV01@@Z 10143c10 f i NPEncryption.obj
 0002:0004ac40       ??0?$BlockCipherImpl@URijndael_Info@CryptoPP@@VBlockCipher@2@@CryptoPP@@QAE@XZ 10143c40 f i NPEncryption.obj
 0002:0004ac70       ??0?$Bufferless@VFilter@CryptoPP@@@CryptoPP@@QAE@XZ 10143c70 f i NPEncryption.obj
 0002:0004aca0       ??0?$Bufferless@VSink@CryptoPP@@@CryptoPP@@QAE@XZ 10143ca0 f i NPEncryption.obj
 0002:0004acd0       ??0?$CipherModeFinalTemplate_CipherHolder@V?$BlockCipherFinal@$00VDec@Rijndael@CryptoPP@@@CryptoPP@@VCBC_Decryption@2@@CryptoPP@@QAE@XZ 10143cd0 f i NPEncryption.obj
 0002:0004ad80       ??0?$CipherModeFinalTemplate_CipherHolder@V?$BlockCipherFinal@$0A@VEnc@Rijndael@CryptoPP@@@CryptoPP@@VCBC_Encryption@2@@CryptoPP@@QAE@XZ 10143d80 f i NPEncryption.obj
 0002:0004ae30       ??0?$ClonableImpl@V?$BlockCipherFinal@$00VDec@Rijndael@CryptoPP@@@CryptoPP@@VDec@Rijndael@2@@CryptoPP@@QAE@ABV01@@Z 10143e30 f i NPEncryption.obj
 0002:0004ae60       ??0?$ClonableImpl@V?$BlockCipherFinal@$00VDec@Rijndael@CryptoPP@@@CryptoPP@@VDec@Rijndael@2@@CryptoPP@@QAE@XZ 10143e60 f i NPEncryption.obj
 0002:0004ae90       ??0?$ClonableImpl@V?$BlockCipherFinal@$0A@VEnc@Rijndael@CryptoPP@@@CryptoPP@@VEnc@Rijndael@2@@CryptoPP@@QAE@ABV01@@Z 10143e90 f i NPEncryption.obj
 0002:0004aec0       ??0?$ClonableImpl@V?$BlockCipherFinal@$0A@VEnc@Rijndael@CryptoPP@@@CryptoPP@@VEnc@Rijndael@2@@CryptoPP@@QAE@XZ 10143ec0 f i NPEncryption.obj
 0002:0004aef0       ??0?$FixedSizeAlignedSecBlock@I$0DM@$00@CryptoPP@@QAE@ABV01@@Z 10143ef0 f i NPEncryption.obj
 0002:0004af20       ??0?$FixedSizeAlignedSecBlock@I$0DM@$00@CryptoPP@@QAE@XZ 10143f20 f i NPEncryption.obj
 0002:0004af50       ??0?$FixedSizeAllocatorWithCleanup@I$0DM@V?$NullAllocator@I@CryptoPP@@$00@CryptoPP@@QAE@XZ 10143f50 f i NPEncryption.obj
 0002:0004af80       ??0?$FixedSizeSecBlock@I$0DM@V?$FixedSizeAllocatorWithCleanup@I$0DM@V?$NullAllocator@I@CryptoPP@@$00@CryptoPP@@@CryptoPP@@QAE@ABV01@@Z 10143f80 f i NPEncryption.obj
 0002:0004afb0       ??0?$FixedSizeSecBlock@I$0DM@V?$FixedSizeAllocatorWithCleanup@I$0DM@V?$NullAllocator@I@CryptoPP@@$00@CryptoPP@@@CryptoPP@@QAE@XZ 10143fb0 f i NPEncryption.obj
 0002:0004afe0       ??0?$InputRejecting@VBufferedTransformation@CryptoPP@@@CryptoPP@@QAE@XZ 10143fe0 f i NPEncryption.obj
 0002:0004b010       ??0?$InputRejecting@VFilter@CryptoPP@@@CryptoPP@@QAE@XZ 10144010 f i NPEncryption.obj
 0002:0004b040       ??0?$ObjectHolder@V?$BlockCipherFinal@$00VDec@Rijndael@CryptoPP@@@CryptoPP@@@CryptoPP@@QAE@XZ 10144040 f i NPEncryption.obj
 0002:0004b070       ??0?$ObjectHolder@V?$BlockCipherFinal@$0A@VEnc@Rijndael@CryptoPP@@@CryptoPP@@@CryptoPP@@QAE@XZ 10144070 f i NPEncryption.obj
 0002:0004b0a0       ??0?$SecBlock@EV?$AllocatorWithCleanup@E$00@CryptoPP@@@CryptoPP@@QAE@I@Z 101440a0 f i NPEncryption.obj
 0002:0004b0f0       ??0?$SecBlock@EV?$AllocatorWithCleanup@E$0A@@CryptoPP@@@CryptoPP@@QAE@ABV01@@Z 101440f0 f i NPEncryption.obj
 0002:0004b170       ??0?$SecBlock@EV?$AllocatorWithCleanup@E$0A@@CryptoPP@@@CryptoPP@@QAE@I@Z 10144170 f i NPEncryption.obj
 0002:0004b1c0       ??0?$SecBlock@IV?$FixedSizeAllocatorWithCleanup@I$0DM@V?$NullAllocator@I@CryptoPP@@$00@CryptoPP@@@CryptoPP@@QAE@ABV01@@Z 101441c0 f i NPEncryption.obj
 0002:0004b270       ??0?$SecBlock@IV?$FixedSizeAllocatorWithCleanup@I$0DM@V?$NullAllocator@I@CryptoPP@@$00@CryptoPP@@@CryptoPP@@QAE@I@Z 10144270 f i NPEncryption.obj
 0002:0004b2d0       ??0?$SimpleKeyingInterfaceImpl@V?$TwoBases@VBlockCipher@CryptoPP@@URijndael_Info@2@@CryptoPP@@V12@@CryptoPP@@QAE@ABV01@@Z 101442d0 f i NPEncryption.obj
 0002:0004b300       ??0?$SimpleKeyingInterfaceImpl@V?$TwoBases@VBlockCipher@CryptoPP@@URijndael_Info@2@@CryptoPP@@V12@@CryptoPP@@QAE@XZ 10144300 f i NPEncryption.obj
 0002:0004b330       ??0?$SourceTemplate@VStringStore@CryptoPP@@@CryptoPP@@QAE@PAVBufferedTransformation@1@@Z 10144330 f i NPEncryption.obj
 0002:0004b3d0       ??0?$StringSinkTemplate@V?$basic_string@DU?$char_traits@D@std@@V?$allocator@D@2@@std@@@CryptoPP@@QAE@AAV?$basic_string@DU?$char_traits@D@std@@V?$allocator@D@2@@std@@@Z 101443d0 f i NPEncryption.obj
 0002:0004b420       ??0?$TwoBases@VBlockCipher@CryptoPP@@URijndael_Info@2@@CryptoPP@@QAE@ABV01@@Z 10144420 f i NPEncryption.obj
 0002:0004b480       ??0?$TwoBases@VBlockCipher@CryptoPP@@URijndael_Info@2@@CryptoPP@@QAE@XZ 10144480 f i NPEncryption.obj
 0002:0004b4b0       ??0?$Unflushable@VFilter@CryptoPP@@@CryptoPP@@QAE@XZ 101444b0 f i NPEncryption.obj
 0002:0004b4e0       ??0?$_String_const_iterator@V?$_String_val@U?$_Simple_types@D@std@@@std@@@std@@QAE@PBDPBU_Container_base0@1@@Z 101444e0 f i NPEncryption.obj
 0002:0004b520       ??0?$_String_iterator@V?$_String_val@U?$_Simple_types@D@std@@@std@@@std@@QAE@PADPBU_Container_base0@1@@Z 10144520 f i NPEncryption.obj
 0002:0004b560       ??0?$member_ptr@VAlgorithmParametersBase@CryptoPP@@@CryptoPP@@QAE@PAVAlgorithmParametersBase@1@@Z 10144560 f i NPEncryption.obj
 0002:0004b590       ??0Algorithm@CryptoPP@@QAE@ABV01@@Z 10144590 f i NPEncryption.obj
 0002:0004b5c0       ??0AlgorithmParametersBase@CryptoPP@@QAE@ABV01@@Z 101445c0 f i NPEncryption.obj
 0002:0004b6a0       ??0AlgorithmParametersBase@CryptoPP@@QAE@PBD_N@Z 101446a0 f i NPEncryption.obj
 0002:0004b700       ??0AutoSeededRandomPool@CryptoPP@@QAE@_NI@Z 10144700 f i NPEncryption.obj
 0002:0004b790       ??0Base@Rijndael@CryptoPP@@QAE@ABV012@@Z 10144790 f i NPEncryption.obj
 0002:0004b830       ??0Base@Rijndael@CryptoPP@@QAE@XZ 10144830 f i NPEncryption.obj
 0002:0004b8b0       ??0BaseN_Encoder@CryptoPP@@QAE@PAVBufferedTransformation@1@@Z 101448b0 f i NPEncryption.obj
 0002:0004b960       ??0BlockCipher@CryptoPP@@QAE@ABV01@@Z 10144960 f i NPEncryption.obj
 0002:0004b9c0       ??0BlockCipher@CryptoPP@@QAE@XZ 101449c0 f i NPEncryption.obj
 0002:0004ba40       ??0BlockOrientedCipherModeBase@CryptoPP@@QAE@XZ 10144a40 f i NPEncryption.obj
 0002:0004bac0       ??0BlockTransformation@CryptoPP@@QAE@ABV01@@Z 10144ac0 f i NPEncryption.obj
 0002:0004bb00       ??0BlockTransformation@CryptoPP@@QAE@XZ 10144b00 f i NPEncryption.obj
 0002:0004bb30       ??0BufferedTransformation@CryptoPP@@QAE@XZ 10144b30 f i NPEncryption.obj
 0002:0004bb70       ??0CBC_Decryption@CryptoPP@@QAE@XZ 10144b70 f i NPEncryption.obj
 0002:0004bbf0       ??0CBC_Encryption@CryptoPP@@QAE@XZ 10144bf0 f i NPEncryption.obj
 0002:0004bc20       ??0CBC_ModeBase@CryptoPP@@QAE@XZ 10144c20 f i NPEncryption.obj
 0002:0004bc50       ??0CannotFlush@CryptoPP@@QAE@ABV01@@Z 10144c50 f i NPEncryption.obj
 0002:0004bc90       ??0CannotFlush@CryptoPP@@QAE@ABV?$basic_string@DU?$char_traits@D@std@@V?$allocator@D@2@@std@@@Z 10144c90 f i NPEncryption.obj
 0002:0004bcd0       ??0CipherModeBase@CryptoPP@@IAE@XZ 10144cd0 f i NPEncryption.obj
 0002:0004bd60       ??0Clonable@CryptoPP@@QAE@ABV01@@Z 10144d60 f i NPEncryption.obj
 0002:0004bd80       ??0ConstByteArrayParameter@CryptoPP@@QAE@ABV01@@Z 10144d80 f i NPEncryption.obj
 0002:0004bde0       ??0ConstByteArrayParameter@CryptoPP@@QAE@PBD_N@Z 10144de0 f i NPEncryption.obj
 0002:0004bea0       ??0ConstByteArrayParameter@CryptoPP@@QAE@PBEI_N@Z 10144ea0 f i NPEncryption.obj
 0002:0004bf30       ??0Dec@Rijndael@CryptoPP@@QAE@ABV012@@Z 10144f30 f i NPEncryption.obj
 0002:0004bf60       ??0Dec@Rijndael@CryptoPP@@QAE@XZ 10144f60 f i NPEncryption.obj
 0002:0004bf90       ??0Enc@Rijndael@CryptoPP@@QAE@ABV012@@Z 10144f90 f i NPEncryption.obj
 0002:0004bfc0       ??0Enc@Rijndael@CryptoPP@@QAE@XZ 10144fc0 f i NPEncryption.obj
 0002:0004bff0       ??0Exception@CryptoPP@@QAE@ABV01@@Z 10144ff0 f i NPEncryption.obj
 0002:0004c0a0       ??0Exception@CryptoPP@@QAE@W4ErrorType@01@ABV?$basic_string@DU?$char_traits@D@std@@V?$allocator@D@2@@std@@@Z 101450a0 f i NPEncryption.obj
 0002:0004c140       ??0Grouper@CryptoPP@@QAE@PAVBufferedTransformation@1@@Z 10145140 f i NPEncryption.obj
 0002:0004c200       ??0HexEncoder@CryptoPP@@QAE@PAVBufferedTransformation@1@_NHABV?$basic_string@DU?$char_traits@D@std@@V?$allocator@D@2@@std@@2@Z 10145200 f i NPEncryption.obj
 0002:0004c490       ??0InputRejected@?$InputRejecting@VBufferedTransformation@CryptoPP@@@CryptoPP@@QAE@ABU012@@Z 10145490 f i NPEncryption.obj
 0002:0004c4d0       ??0InputRejected@?$InputRejecting@VBufferedTransformation@CryptoPP@@@CryptoPP@@QAE@XZ 101454d0 f i NPEncryption.obj
 0002:0004c580       ??0InputRejected@?$InputRejecting@VFilter@CryptoPP@@@CryptoPP@@QAE@ABU012@@Z 10145580 f i NPEncryption.obj
 0002:0004c5c0       ??0InputRejected@?$InputRejecting@VFilter@CryptoPP@@@CryptoPP@@QAE@XZ 101455c0 f i NPEncryption.obj
 0002:0004c670       ??0InvalidArgument@CryptoPP@@QAE@ABV01@@Z 10145670 f i NPEncryption.obj
 0002:0004c6b0       ??0InvalidArgument@CryptoPP@@QAE@ABV?$basic_string@DU?$char_traits@D@std@@V?$allocator@D@2@@std@@@Z 101456b0 f i NPEncryption.obj
 0002:0004c6f0       ??0NotImplemented@CryptoPP@@QAE@ABV01@@Z 101456f0 f i NPEncryption.obj
 0002:0004c730       ??0NotImplemented@CryptoPP@@QAE@ABV?$basic_string@DU?$char_traits@D@std@@V?$allocator@D@2@@std@@@Z 10145730 f i NPEncryption.obj
 0002:0004c770       ??0ParameterNotUsed@AlgorithmParametersBase@CryptoPP@@QAE@ABV012@@Z 10145770 f i NPEncryption.obj
 0002:0004c7b0       ??0ParameterNotUsed@AlgorithmParametersBase@CryptoPP@@QAE@PBD@Z 101457b0 f i NPEncryption.obj
 0002:0004c920       ??0SimpleKeyingInterface@CryptoPP@@QAE@ABV01@@Z 10145920 f i NPEncryption.obj
 0002:0004c940       ??0SimpleKeyingInterface@CryptoPP@@QAE@XZ 10145940 f i NPEncryption.obj
 0002:0004c960       ??0SimpleProxyFilter@CryptoPP@@QAE@PAVBufferedTransformation@1@0@Z 10145960 f i NPEncryption.obj
 0002:0004c9b0       ??0Sink@CryptoPP@@QAE@XZ   101459b0 f i NPEncryption.obj
 0002:0004c9e0       ??0Source@CryptoPP@@QAE@PAVBufferedTransformation@1@@Z 101459e0 f i NPEncryption.obj
 0002:0004ca60       ??0Store@CryptoPP@@QAE@XZ  10145a60 f i NPEncryption.obj
 0002:0004ca90       ??0StreamTransformation@CryptoPP@@QAE@XZ 10145a90 f i NPEncryption.obj
 0002:0004cac0       ??0StringSource@CryptoPP@@QAE@ABV?$basic_string@DU?$char_traits@D@std@@V?$allocator@D@2@@std@@_NPAVBufferedTransformation@1@@Z 10145ac0 f i NPEncryption.obj
 0002:0004cbe0       ??0StringSource@CryptoPP@@QAE@PBEI_NPAVBufferedTransformation@1@@Z 10145be0 f i NPEncryption.obj
 0002:0004cd00       ??0StringStore@CryptoPP@@QAE@PBD@Z 10145d00 f i NPEncryption.obj
 0002:0004ce10       ??0SymmetricCipher@CryptoPP@@QAE@XZ 10145e10 f i NPEncryption.obj
 0002:0004ce90       ??0ValueTypeMismatch@NameValuePairs@CryptoPP@@QAE@ABV012@@Z 10145e90 f i NPEncryption.obj
 0002:0004cef0       ??0ValueTypeMismatch@NameValuePairs@CryptoPP@@QAE@ABV?$basic_string@DU?$char_traits@D@std@@V?$allocator@D@2@@std@@ABVtype_info@@1@Z 10145ef0 f i NPEncryption.obj
 0002:0004d180       ??0Waitable@CryptoPP@@QAE@XZ 10146180 f i NPEncryption.obj
 0002:0004d1a0       ??1?$AlgorithmImpl@V?$SimpleKeyingInterfaceImpl@V?$TwoBases@VBlockCipher@CryptoPP@@URijndael_Info@2@@CryptoPP@@V12@@CryptoPP@@V12@@CryptoPP@@UAE@XZ 101461a0 f i NPEncryption.obj
 0002:0004d1d0       ??1?$AlgorithmImpl@VCBC_Decryption@CryptoPP@@V?$CipherModeFinalTemplate_CipherHolder@V?$BlockCipherFinal@$00VDec@Rijndael@CryptoPP@@@CryptoPP@@VCBC_Decryption@2@@2@@CryptoPP@@UAE@XZ 101461d0 f i NPEncryption.obj
 0002:0004d200       ??1?$AlgorithmImpl@VCBC_Encryption@CryptoPP@@V?$CipherModeFinalTemplate_CipherHolder@V?$BlockCipherFinal@$0A@VEnc@Rijndael@CryptoPP@@@CryptoPP@@VCBC_Encryption@2@@2@@CryptoPP@@UAE@XZ 10146200 f i NPEncryption.obj
 0002:0004d230       ??1?$AlgorithmParametersTemplate@H@CryptoPP@@UAE@XZ 10146230 f i NPEncryption.obj
 0002:0004d260       ??1?$AlgorithmParametersTemplate@VConstByteArrayParameter@CryptoPP@@@CryptoPP@@UAE@XZ 10146260 f i NPEncryption.obj
 0002:0004d2e0       ??1?$AlgorithmParametersTemplate@_N@CryptoPP@@UAE@XZ 101462e0 f i NPEncryption.obj
 0002:0004d310       ??1?$AutoSignaling@V?$InputRejecting@VBufferedTransformation@CryptoPP@@@CryptoPP@@@CryptoPP@@UAE@XZ 10146310 f i NPEncryption.obj
 0002:0004d340       ??1?$BlockCipherFinal@$00VDec@Rijndael@CryptoPP@@@CryptoPP@@UAE@XZ 10146340 f i NPEncryption.obj
 0002:0004d370       ??1?$BlockCipherFinal@$0A@VEnc@Rijndael@CryptoPP@@@CryptoPP@@UAE@XZ 10146370 f i NPEncryption.obj
 0002:0004d3a0       ??1?$BlockCipherImpl@URijndael_Info@CryptoPP@@VBlockCipher@2@@CryptoPP@@UAE@XZ 101463a0 f i NPEncryption.obj
 0002:0004d3d0       ??1?$Bufferless@VFilter@CryptoPP@@@CryptoPP@@UAE@XZ 101463d0 f i NPEncryption.obj
 0002:0004d400       ??1?$Bufferless@VSink@CryptoPP@@@CryptoPP@@UAE@XZ 10146400 f i NPEncryption.obj
 0002:0004d430       ??1?$CipherModeFinalTemplate_CipherHolder@V?$BlockCipherFinal@$00VDec@Rijndael@CryptoPP@@@CryptoPP@@VCBC_Decryption@2@@CryptoPP@@UAE@XZ 10146430 f i NPEncryption.obj
 0002:0004d4b0       ??1?$CipherModeFinalTemplate_CipherHolder@V?$BlockCipherFinal@$0A@VEnc@Rijndael@CryptoPP@@@CryptoPP@@VCBC_Encryption@2@@CryptoPP@@UAE@XZ 101464b0 f i NPEncryption.obj
 0002:0004d530       ??1?$ClonableImpl@V?$BlockCipherFinal@$00VDec@Rijndael@CryptoPP@@@CryptoPP@@VDec@Rijndael@2@@CryptoPP@@UAE@XZ 10146530 f i NPEncryption.obj
 0002:0004d560       ??1?$ClonableImpl@V?$BlockCipherFinal@$0A@VEnc@Rijndael@CryptoPP@@@CryptoPP@@VEnc@Rijndael@2@@CryptoPP@@UAE@XZ 10146560 f i NPEncryption.obj
 0002:0004d590       ??1?$FixedSizeAlignedSecBlock@I$0DM@$00@CryptoPP@@QAE@XZ 10146590 f i NPEncryption.obj
 0002:0004d5c0       ??1?$FixedSizeSecBlock@E$0BA@V?$FixedSizeAllocatorWithCleanup@E$0BA@V?$NullAllocator@E@CryptoPP@@$0A@@CryptoPP@@@CryptoPP@@QAE@XZ 101465c0 f i NPEncryption.obj
 0002:0004d5f0       ??1?$FixedSizeSecBlock@E$0CA@V?$FixedSizeAllocatorWithCleanup@E$0CA@V?$NullAllocator@E@CryptoPP@@$0A@@CryptoPP@@@CryptoPP@@QAE@XZ 101465f0 f i NPEncryption.obj
 0002:0004d620       ??1?$FixedSizeSecBlock@I$0DM@V?$FixedSizeAllocatorWithCleanup@I$0DM@V?$NullAllocator@I@CryptoPP@@$00@CryptoPP@@@CryptoPP@@QAE@XZ 10146620 f i NPEncryption.obj
 0002:0004d650       ??1?$InputRejecting@VBufferedTransformation@CryptoPP@@@CryptoPP@@UAE@XZ 10146650 f i NPEncryption.obj
 0002:0004d680       ??1?$InputRejecting@VFilter@CryptoPP@@@CryptoPP@@UAE@XZ 10146680 f i NPEncryption.obj
 0002:0004d6b0       ??1?$ObjectHolder@V?$BlockCipherFinal@$00VDec@Rijndael@CryptoPP@@@CryptoPP@@@CryptoPP@@QAE@XZ 101466b0 f i NPEncryption.obj
 0002:0004d6e0       ??1?$ObjectHolder@V?$BlockCipherFinal@$0A@VEnc@Rijndael@CryptoPP@@@CryptoPP@@@CryptoPP@@QAE@XZ 101466e0 f i NPEncryption.obj
 0002:0004d710       ??1?$SecBlock@EV?$AllocatorWithCleanup@E$00@CryptoPP@@@CryptoPP@@QAE@XZ 10146710 f i NPEncryption.obj
 0002:0004d750       ??1?$SecBlock@EV?$AllocatorWithCleanup@E$0A@@CryptoPP@@@CryptoPP@@QAE@XZ 10146750 f i NPEncryption.obj
 0002:0004d790       ??1?$SecBlock@EV?$FixedSizeAllocatorWithCleanup@E$0BA@V?$NullAllocator@E@CryptoPP@@$0A@@CryptoPP@@@CryptoPP@@QAE@XZ 10146790 f i NPEncryption.obj
 0002:0004d7d0       ??1?$SecBlock@EV?$FixedSizeAllocatorWithCleanup@E$0CA@V?$NullAllocator@E@CryptoPP@@$0A@@CryptoPP@@@CryptoPP@@QAE@XZ 101467d0 f i NPEncryption.obj
 0002:0004d810       ??1?$SecBlock@IV?$FixedSizeAllocatorWithCleanup@I$0DM@V?$NullAllocator@I@CryptoPP@@$00@CryptoPP@@@CryptoPP@@QAE@XZ 10146810 f i NPEncryption.obj
 0002:0004d850       ??1?$SimpleKeyingInterfaceImpl@V?$TwoBases@VBlockCipher@CryptoPP@@URijndael_Info@2@@CryptoPP@@V12@@CryptoPP@@UAE@XZ 10146850 f i NPEncryption.obj
 0002:0004d880       ??1?$SourceTemplate@VStringStore@CryptoPP@@@CryptoPP@@UAE@XZ 10146880 f i NPEncryption.obj
 0002:0004d900       ??1?$StringSinkTemplate@V?$basic_string@DU?$char_traits@D@std@@V?$allocator@D@2@@std@@@CryptoPP@@UAE@XZ 10146900 f i NPEncryption.obj
 0002:0004d930       ??1?$TwoBases@VBlockCipher@CryptoPP@@URijndael_Info@2@@CryptoPP@@UAE@XZ 10146930 f i NPEncryption.obj
 0002:0004d960       ??1?$Unflushable@VFilter@CryptoPP@@@CryptoPP@@UAE@XZ 10146960 f i NPEncryption.obj
 0002:0004d990       ??1?$member_ptr@VAlgorithmParametersBase@CryptoPP@@@CryptoPP@@QAE@XZ 10146990 f i NPEncryption.obj
 0002:0004d9f0       ??1?$member_ptr@VBlockCipher@CryptoPP@@@CryptoPP@@QAE@XZ 101469f0 f i NPEncryption.obj
 0002:0004da50       ??1?$member_ptr@VBufferedTransformation@CryptoPP@@@CryptoPP@@QAE@XZ 10146a50 f i NPEncryption.obj
 0002:0004dab0       ??1Algorithm@CryptoPP@@UAE@XZ 10146ab0 f i NPEncryption.obj
 0002:0004dae0       ??1AlgorithmParameters@CryptoPP@@UAE@XZ 10146ae0 f i NPEncryption.obj
 0002:0004db60       ??1AlgorithmParametersBase@CryptoPP@@UAE@XZ 10146b60 f i NPEncryption.obj
 0002:0004dc40       ??1AutoSeededRandomPool@CryptoPP@@UAE@XZ 10146c40 f i NPEncryption.obj
 0002:0004dc70       ??1Base@Rijndael@CryptoPP@@UAE@XZ 10146c70 f i NPEncryption.obj
 0002:0004dcf0       ??1BaseN_Encoder@CryptoPP@@UAE@XZ 10146cf0 f i NPEncryption.obj
 0002:0004dd70       ??1BlockCipher@CryptoPP@@UAE@XZ 10146d70 f i NPEncryption.obj
 0002:0004ddf0       ??1BlockOrientedCipherModeBase@CryptoPP@@UAE@XZ 10146df0 f i NPEncryption.obj
 0002:0004de70       ??1BlockQueue@FilterWithBufferedInput@CryptoPP@@QAE@XZ 10146e70 f i NPEncryption.obj
 0002:0004dea0       ??1BlockTransformation@CryptoPP@@UAE@XZ 10146ea0 f i NPEncryption.obj
 0002:0004ded0       ??1BufferedTransformation@CryptoPP@@UAE@XZ 10146ed0 f i NPEncryption.obj
 0002:0004df50       ??1CBC_Decryption@CryptoPP@@UAE@XZ 10146f50 f i NPEncryption.obj
 0002:0004dfd0       ??1CBC_Encryption@CryptoPP@@UAE@XZ 10146fd0 f i NPEncryption.obj
 0002:0004e000       ??1CBC_ModeBase@CryptoPP@@UAE@XZ 10147000 f i NPEncryption.obj
 0002:0004e030       ??1CannotFlush@CryptoPP@@UAE@XZ 10147030 f i NPEncryption.obj
 0002:0004e060       ??1CipherModeBase@CryptoPP@@UAE@XZ 10147060 f i NPEncryption.obj
 0002:0004e0e0       ??1Clonable@CryptoPP@@UAE@XZ 101470e0 f i NPEncryption.obj
 0002:0004e100       ??1ConstByteArrayParameter@CryptoPP@@QAE@XZ 10147100 f i NPEncryption.obj
 0002:0004e130       ??1Dec@Rijndael@CryptoPP@@UAE@XZ 10147130 f i NPEncryption.obj
 0002:0004e160       ??1Enc@Rijndael@CryptoPP@@UAE@XZ 10147160 f i NPEncryption.obj
 0002:0004e190       ??1Exception@CryptoPP@@UAE@XZ 10147190 f i NPEncryption.obj
 0002:0004e1d0       ??1Filter@CryptoPP@@UAE@XZ 101471d0 f i NPEncryption.obj
 0002:0004e250       ??1FilterWithBufferedInput@CryptoPP@@UAE@XZ 10147250 f i NPEncryption.obj
 0002:0004e2d0       ??1Grouper@CryptoPP@@UAE@XZ 101472d0 f i NPEncryption.obj
 0002:0004e360       ??1HexEncoder@CryptoPP@@UAE@XZ 10147360 f i NPEncryption.obj
 0002:0004e390       ??1InputRejected@?$InputRejecting@VBufferedTransformation@CryptoPP@@@CryptoPP@@UAE@XZ 10147390 f i NPEncryption.obj
 0002:0004e3c0       ??1InputRejected@?$InputRejecting@VFilter@CryptoPP@@@CryptoPP@@UAE@XZ 101473c0 f i NPEncryption.obj
 0002:0004e3f0       ??1InvalidArgument@CryptoPP@@UAE@XZ 101473f0 f i NPEncryption.obj
 0002:0004e420       ??1NameValuePairs@CryptoPP@@UAE@XZ 10147420 f i NPEncryption.obj
 0002:0004e440       ??1NotImplemented@CryptoPP@@UAE@XZ 10147440 f i NPEncryption.obj
 0002:0004e470       ??1ParameterNotUsed@AlgorithmParametersBase@CryptoPP@@UAE@XZ 10147470 f i NPEncryption.obj
 0002:0004e4a0       ??1ProxyFilter@CryptoPP@@UAE@XZ 101474a0 f i NPEncryption.obj
 0002:0004e520       ??1RandomNumberGenerator@CryptoPP@@UAE@XZ 10147520 f i NPEncryption.obj
 0002:0004e550       ??1RandomPool@CryptoPP@@UAE@XZ 10147550 f i NPEncryption.obj
 0002:0004e5f0       ??1SimpleKeyingInterface@CryptoPP@@UAE@XZ 101475f0 f i NPEncryption.obj
 0002:0004e610       ??1SimpleProxyFilter@CryptoPP@@UAE@XZ 10147610 f i NPEncryption.obj
 0002:0004e640       ??1Sink@CryptoPP@@UAE@XZ   10147640 f i NPEncryption.obj
 0002:0004e670       ??1Source@CryptoPP@@UAE@XZ 10147670 f i NPEncryption.obj
 0002:0004e6a0       ??1Store@CryptoPP@@UAE@XZ  101476a0 f i NPEncryption.obj
 0002:0004e6d0       ??1StreamTransformation@CryptoPP@@UAE@XZ 101476d0 f i NPEncryption.obj
 0002:0004e700       ??1StringSource@CryptoPP@@UAE@XZ 10147700 f i NPEncryption.obj
 0002:0004e730       ??1StringStore@CryptoPP@@UAE@XZ 10147730 f i NPEncryption.obj
 0002:0004e760       ??1SymmetricCipher@CryptoPP@@UAE@XZ 10147760 f i NPEncryption.obj
 0002:0004e7e0       ??1ValueTypeMismatch@NameValuePairs@CryptoPP@@UAE@XZ 101477e0 f i NPEncryption.obj
 0002:0004e810       ??1Waitable@CryptoPP@@UAE@XZ 10147810 f i NPEncryption.obj
 0002:0004e830       ??4?$SecBlock@EV?$AllocatorWithCleanup@E$0A@@CryptoPP@@@CryptoPP@@QAEAAV01@ABV01@@Z 10147830 f i NPEncryption.obj
 0002:0004e860       ??4ConstByteArrayParameter@CryptoPP@@QAEAAV01@ABV01@@Z 10147860 f i NPEncryption.obj
 0002:0004e8c0       ??B?$SecBlock@EV?$AllocatorWithCleanup@E$00@CryptoPP@@@CryptoPP@@QAEPAXXZ 101478c0 f i NPEncryption.obj
 0002:0004e8e0       ??C?$member_ptr@VAlgorithmParametersBase@CryptoPP@@@CryptoPP@@QAEPAVAlgorithmParametersBase@1@XZ 101478e0 f i NPEncryption.obj
 0002:0004e900       ??C?$member_ptr@VBufferedTransformation@CryptoPP@@@CryptoPP@@QAEPAVBufferedTransformation@1@XZ 10147900 f i NPEncryption.obj
 0002:0004e920       ??G?$_String_const_iterator@V?$_String_val@U?$_Simple_types@D@std@@@std@@@std@@QBEHABV01@@Z 10147920 f i NPEncryption.obj
 0002:0004e960       ??Y?$basic_string@DU?$char_traits@D@std@@V?$allocator@D@2@@std@@QAEAAV01@ABV01@@Z 10147960 f i NPEncryption.obj
 0002:0004e990       ??Y?$basic_string@DU?$char_traits@D@std@@V?$allocator@D@2@@std@@QAEAAV01@PBD@Z 10147990 f i NPEncryption.obj
 0002:0004e9b9       ??_E?$BlockCipherFinal@$00VDec@Rijndael@CryptoPP@@@CryptoPP@@W3AEPAXI@Z 101479b9 f i NPEncryption.obj
 0002:0004e9c3       ??_E?$BlockCipherFinal@$0A@VEnc@Rijndael@CryptoPP@@@CryptoPP@@W3AEPAXI@Z 101479c3 f i NPEncryption.obj
 0002:0004e9cd       ??_E?$CipherModeFinalTemplate_CipherHolder@V?$BlockCipherFinal@$00VDec@Rijndael@CryptoPP@@@CryptoPP@@VCBC_Decryption@2@@CryptoPP@@W3AEPAXI@Z 101479cd f i NPEncryption.obj
 0002:0004e9d7       ??_E?$CipherModeFinalTemplate_CipherHolder@V?$BlockCipherFinal@$0A@VEnc@Rijndael@CryptoPP@@@CryptoPP@@VCBC_Encryption@2@@CryptoPP@@W3AEPAXI@Z 101479d7 f i NPEncryption.obj
 0002:0004e9e1       ??_E?$SourceTemplate@VStringStore@CryptoPP@@@CryptoPP@@W3AEPAXI@Z 101479e1 f i NPEncryption.obj
 0002:0004e9eb       ??_E?$StringSinkTemplate@V?$basic_string@DU?$char_traits@D@std@@V?$allocator@D@2@@std@@@CryptoPP@@W3AEPAXI@Z 101479eb f i NPEncryption.obj
 0002:0004e9f5       ??_EBaseN_Encoder@CryptoPP@@W3AEPAXI@Z 101479f5 f i NPEncryption.obj
 0002:0004e9ff       ??_EGrouper@CryptoPP@@W3AEPAXI@Z 101479ff f i NPEncryption.obj
 0002:0004ea09       ??_EHexEncoder@CryptoPP@@W3AEPAXI@Z 10147a09 f i NPEncryption.obj
 0002:0004ea13       ??_ESimpleProxyFilter@CryptoPP@@W3AEPAXI@Z 10147a13 f i NPEncryption.obj
 0002:0004ea1d       ??_EStringSource@CryptoPP@@W3AEPAXI@Z 10147a1d f i NPEncryption.obj
 0002:0004ea27       ??_EStringStore@CryptoPP@@W3AEPAXI@Z 10147a27 f i NPEncryption.obj
 0002:0004ea40       ??_E?$AlgorithmParametersTemplate@H@CryptoPP@@UAEPAXI@Z 10147a40 f i NPEncryption.obj
 0002:0004ea40       ??_G?$AlgorithmParametersTemplate@H@CryptoPP@@UAEPAXI@Z 10147a40 f i NPEncryption.obj
 0002:0004ea90       ??_E?$AlgorithmParametersTemplate@VConstByteArrayParameter@CryptoPP@@@CryptoPP@@UAEPAXI@Z 10147a90 f i NPEncryption.obj
 0002:0004ea90       ??_G?$AlgorithmParametersTemplate@VConstByteArrayParameter@CryptoPP@@@CryptoPP@@UAEPAXI@Z 10147a90 f i NPEncryption.obj
 0002:0004eae0       ??_G?$AlgorithmParametersTemplate@_N@CryptoPP@@UAEPAXI@Z 10147ae0 f i NPEncryption.obj
 0002:0004eae0       ??_E?$AlgorithmParametersTemplate@_N@CryptoPP@@UAEPAXI@Z 10147ae0 f i NPEncryption.obj
 0002:0004eb30       ??_E?$BlockCipherFinal@$00VDec@Rijndael@CryptoPP@@@CryptoPP@@UAEPAXI@Z 10147b30 f i NPEncryption.obj
 0002:0004eb30       ??_G?$BlockCipherFinal@$00VDec@Rijndael@CryptoPP@@@CryptoPP@@UAEPAXI@Z 10147b30 f i NPEncryption.obj
 0002:0004eb80       ??_E?$BlockCipherFinal@$0A@VEnc@Rijndael@CryptoPP@@@CryptoPP@@UAEPAXI@Z 10147b80 f i NPEncryption.obj
 0002:0004eb80       ??_G?$BlockCipherFinal@$0A@VEnc@Rijndael@CryptoPP@@@CryptoPP@@UAEPAXI@Z 10147b80 f i NPEncryption.obj
 0002:0004ebd0       ??_E?$CipherModeFinalTemplate_CipherHolder@V?$BlockCipherFinal@$00VDec@Rijndael@CryptoPP@@@CryptoPP@@VCBC_Decryption@2@@CryptoPP@@UAEPAXI@Z 10147bd0 f i NPEncryption.obj
 0002:0004ebd0       ??_G?$CipherModeFinalTemplate_CipherHolder@V?$BlockCipherFinal@$00VDec@Rijndael@CryptoPP@@@CryptoPP@@VCBC_Decryption@2@@CryptoPP@@UAEPAXI@Z 10147bd0 f i NPEncryption.obj
 0002:0004ec20       ??_G?$CipherModeFinalTemplate_CipherHolder@V?$BlockCipherFinal@$0A@VEnc@Rijndael@CryptoPP@@@CryptoPP@@VCBC_Encryption@2@@CryptoPP@@UAEPAXI@Z 10147c20 f i NPEncryption.obj
 0002:0004ec20       ??_E?$CipherModeFinalTemplate_CipherHolder@V?$BlockCipherFinal@$0A@VEnc@Rijndael@CryptoPP@@@CryptoPP@@VCBC_Encryption@2@@CryptoPP@@UAEPAXI@Z 10147c20 f i NPEncryption.obj
 0002:0004ec70       ??_E?$SourceTemplate@VStringStore@CryptoPP@@@CryptoPP@@UAEPAXI@Z 10147c70 f i NPEncryption.obj
 0002:0004ec70       ??_G?$SourceTemplate@VStringStore@CryptoPP@@@CryptoPP@@UAEPAXI@Z 10147c70 f i NPEncryption.obj
 0002:0004ecc0       ??_E?$StringSinkTemplate@V?$basic_string@DU?$char_traits@D@std@@V?$allocator@D@2@@std@@@CryptoPP@@UAEPAXI@Z 10147cc0 f i NPEncryption.obj
 0002:0004ecc0       ??_G?$StringSinkTemplate@V?$basic_string@DU?$char_traits@D@std@@V?$allocator@D@2@@std@@@CryptoPP@@UAEPAXI@Z 10147cc0 f i NPEncryption.obj
 0002:0004ed10       ??_GAlgorithmParametersBase@CryptoPP@@UAEPAXI@Z 10147d10 f i NPEncryption.obj
 0002:0004ed10       ??_EAlgorithmParametersBase@CryptoPP@@UAEPAXI@Z 10147d10 f i NPEncryption.obj
 0002:0004ed60       ??_EAutoSeededRandomPool@CryptoPP@@UAEPAXI@Z 10147d60 f i NPEncryption.obj
 0002:0004ed60       ??_GAutoSeededRandomPool@CryptoPP@@UAEPAXI@Z 10147d60 f i NPEncryption.obj
 0002:0004edb0       ??_EBaseN_Encoder@CryptoPP@@UAEPAXI@Z 10147db0 f i NPEncryption.obj
 0002:0004edb0       ??_GBaseN_Encoder@CryptoPP@@UAEPAXI@Z 10147db0 f i NPEncryption.obj
 0002:0004ee00       ??_GCannotFlush@CryptoPP@@UAEPAXI@Z 10147e00 f i NPEncryption.obj
 0002:0004ee00       ??_ECannotFlush@CryptoPP@@UAEPAXI@Z 10147e00 f i NPEncryption.obj
 0002:0004ee50       ??_EException@CryptoPP@@UAEPAXI@Z 10147e50 f i NPEncryption.obj
 0002:0004ee50       ??_GException@CryptoPP@@UAEPAXI@Z 10147e50 f i NPEncryption.obj
 0002:0004eea0       ??_EGrouper@CryptoPP@@UAEPAXI@Z 10147ea0 f i NPEncryption.obj
 0002:0004eea0       ??_GGrouper@CryptoPP@@UAEPAXI@Z 10147ea0 f i NPEncryption.obj
 0002:0004eef0       ??_EHexEncoder@CryptoPP@@UAEPAXI@Z 10147ef0 f i NPEncryption.obj
 0002:0004eef0       ??_GHexEncoder@CryptoPP@@UAEPAXI@Z 10147ef0 f i NPEncryption.obj
 0002:0004ef40       ??_EInputRejected@?$InputRejecting@VBufferedTransformation@CryptoPP@@@CryptoPP@@UAEPAXI@Z 10147f40 f i NPEncryption.obj
 0002:0004ef40       ??_GInputRejected@?$InputRejecting@VBufferedTransformation@CryptoPP@@@CryptoPP@@UAEPAXI@Z 10147f40 f i NPEncryption.obj
 0002:0004ef90       ??_EInputRejected@?$InputRejecting@VFilter@CryptoPP@@@CryptoPP@@UAEPAXI@Z 10147f90 f i NPEncryption.obj
 0002:0004ef90       ??_GInputRejected@?$InputRejecting@VFilter@CryptoPP@@@CryptoPP@@UAEPAXI@Z 10147f90 f i NPEncryption.obj
 0002:0004efe0       ??_GInvalidArgument@CryptoPP@@UAEPAXI@Z 10147fe0 f i NPEncryption.obj
 0002:0004efe0       ??_EInvalidArgument@CryptoPP@@UAEPAXI@Z 10147fe0 f i NPEncryption.obj
 0002:0004f030       ??_GNotImplemented@CryptoPP@@UAEPAXI@Z 10148030 f i NPEncryption.obj
 0002:0004f030       ??_ENotImplemented@CryptoPP@@UAEPAXI@Z 10148030 f i NPEncryption.obj
 0002:0004f080       ??_GParameterNotUsed@AlgorithmParametersBase@CryptoPP@@UAEPAXI@Z 10148080 f i NPEncryption.obj
 0002:0004f080       ??_EParameterNotUsed@AlgorithmParametersBase@CryptoPP@@UAEPAXI@Z 10148080 f i NPEncryption.obj
 0002:0004f0d0       ??_GSimpleProxyFilter@CryptoPP@@UAEPAXI@Z 101480d0 f i NPEncryption.obj
 0002:0004f0d0       ??_ESimpleProxyFilter@CryptoPP@@UAEPAXI@Z 101480d0 f i NPEncryption.obj
 0002:0004f120       ??_GStringSource@CryptoPP@@UAEPAXI@Z 10148120 f i NPEncryption.obj
 0002:0004f120       ??_EStringSource@CryptoPP@@UAEPAXI@Z 10148120 f i NPEncryption.obj
 0002:0004f170       ??_GStringStore@CryptoPP@@UAEPAXI@Z 10148170 f i NPEncryption.obj
 0002:0004f170       ??_EStringStore@CryptoPP@@UAEPAXI@Z 10148170 f i NPEncryption.obj
 0002:0004f1c0       ??_EValueTypeMismatch@NameValuePairs@CryptoPP@@UAEPAXI@Z 101481c0 f i NPEncryption.obj
 0002:0004f1c0       ??_GValueTypeMismatch@NameValuePairs@CryptoPP@@UAEPAXI@Z 101481c0 f i NPEncryption.obj
 0002:0004f210       ?AlgorithmName@?$AlgorithmImpl@V?$SimpleKeyingInterfaceImpl@V?$TwoBases@VBlockCipher@CryptoPP@@URijndael_Info@2@@CryptoPP@@V12@@CryptoPP@@V12@@CryptoPP@@UBE?AV?$basic_string@DU?$char_traits@D@std@@V?$allocator@D@2@@std@@XZ 10148210 f i NPEncryption.obj
 0002:0004f260       ?AlgorithmName@?$AlgorithmImpl@VCBC_Decryption@CryptoPP@@V?$CipherModeFinalTemplate_CipherHolder@V?$BlockCipherFinal@$00VDec@Rijndael@CryptoPP@@@CryptoPP@@VCBC_Decryption@2@@2@@CryptoPP@@UBE?AV?$basic_string@DU?$char_traits@D@std@@V?$allocator@D@2@@std@@XZ 10148260 f i NPEncryption.obj
 0002:0004f2b0       ?AlgorithmName@?$AlgorithmImpl@VCBC_Encryption@CryptoPP@@V?$CipherModeFinalTemplate_CipherHolder@V?$BlockCipherFinal@$0A@VEnc@Rijndael@CryptoPP@@@CryptoPP@@VCBC_Encryption@2@@2@@CryptoPP@@UBE?AV?$basic_string@DU?$char_traits@D@std@@V?$allocator@D@2@@std@@XZ 101482b0 f i NPEncryption.obj
 0002:0004f300       ?AlgorithmName@Algorithm@CryptoPP@@UBE?AV?$basic_string@DU?$char_traits@D@std@@V?$allocator@D@2@@std@@XZ 10148300 f i NPEncryption.obj
 0002:0004f350       ?Assign@?$SecBlock@EV?$AllocatorWithCleanup@E$0A@@CryptoPP@@@CryptoPP@@QAEXABV12@@Z 10148350 f i NPEncryption.obj
 0002:0004f3c0       ?Assign@?$SecBlock@EV?$AllocatorWithCleanup@E$0A@@CryptoPP@@@CryptoPP@@QAEXPBEI@Z 101483c0 f i NPEncryption.obj
 0002:0004f410       ?Assign@ConstByteArrayParameter@CryptoPP@@QAEXPBEI_N@Z 10148410 f i NPEncryption.obj
 0002:0004f470       ?AssignValue@?$AlgorithmParametersTemplate@H@CryptoPP@@UBEXPBDABVtype_info@@PAX@Z 10148470 f i NPEncryption.obj
 0002:0004f500       ?AssignValue@?$AlgorithmParametersTemplate@VConstByteArrayParameter@CryptoPP@@@CryptoPP@@UBEXPBDABVtype_info@@PAX@Z 10148500 f i NPEncryption.obj
 0002:0004f5a0       ?AssignValue@?$AlgorithmParametersTemplate@_N@CryptoPP@@UBEXPBDABVtype_info@@PAX@Z 101485a0 f i NPEncryption.obj
 0002:0004f630       ?Attachable@BufferedTransformation@CryptoPP@@UAE_NXZ 10148630 f i NPEncryption.obj
 0002:0004f650       ?Attachable@Filter@CryptoPP@@UAE_NXZ 10148650 f i NPEncryption.obj
 0002:0004f670       ?AttachedTransformation@BufferedTransformation@CryptoPP@@UAEPAV12@XZ 10148670 f i NPEncryption.obj
 0002:0004f690       ?AttachedTransformation@BufferedTransformation@CryptoPP@@UBEPBV12@XZ 10148690 f i NPEncryption.obj
 0002:0004f6c0       ?BlockSize@?$BlockCipherImpl@URijndael_Info@CryptoPP@@VBlockCipher@2@@CryptoPP@@UBEIXZ 101486c0 f i NPEncryption.obj
 0002:0004f6e0       ?BlockSize@CipherModeBase@CryptoPP@@IBEIXZ 101486e0 f i NPEncryption.obj
 0002:0004f710       ?CanIncorporateEntropy@RandomPool@CryptoPP@@UBE_NXZ 10148710 f i NPEncryption.obj
 0002:0004f730       ?CanModifyInput@BufferedTransformation@CryptoPP@@UBE_NXZ 10148730 f i NPEncryption.obj
 0002:0004f750       ?ChannelFlush@?$Unflushable@VFilter@CryptoPP@@@CryptoPP@@UAE_NABV?$basic_string@DU?$char_traits@D@std@@V?$allocator@D@2@@std@@_NH1@Z 10148750 f i NPEncryption.obj
 0002:0004f8b0       ?ChannelMessageSeriesEnd@?$InputRejecting@VBufferedTransformation@CryptoPP@@@CryptoPP@@UAE_NABV?$basic_string@DU?$char_traits@D@std@@V?$allocator@D@2@@std@@H_N@Z 101488b0 f i NPEncryption.obj
 0002:0004f900       ?ChannelMessageSeriesEnd@?$InputRejecting@VFilter@CryptoPP@@@CryptoPP@@UAE_NABV?$basic_string@DU?$char_traits@D@std@@V?$allocator@D@2@@std@@H_N@Z 10148900 f i NPEncryption.obj
 0002:0004f950       ?ChannelPut2@?$InputRejecting@VBufferedTransformation@CryptoPP@@@CryptoPP@@UAEIABV?$basic_string@DU?$char_traits@D@std@@V?$allocator@D@2@@std@@PBEIH_N@Z 10148950 f i NPEncryption.obj
 0002:0004f9a0       ?ChannelPut2@?$InputRejecting@VFilter@CryptoPP@@@CryptoPP@@UAEIABV?$basic_string@DU?$char_traits@D@std@@V?$allocator@D@2@@std@@PBEIH_N@Z 101489a0 f i NPEncryption.obj
 0002:0004f9f0       ?CheckSize@?$AllocatorBase@E@CryptoPP@@KAXI@Z 101489f0 f i NPEncryption.obj
 0002:0004fab0       ?Clone@?$ClonableImpl@V?$BlockCipherFinal@$00VDec@Rijndael@CryptoPP@@@CryptoPP@@VDec@Rijndael@2@@CryptoPP@@UBEPAVClonable@2@XZ 10148ab0 f i NPEncryption.obj
 0002:0004fb80       ?Clone@?$ClonableImpl@V?$BlockCipherFinal@$0A@VEnc@Rijndael@CryptoPP@@@CryptoPP@@VEnc@Rijndael@2@@CryptoPP@@UBEPAVClonable@2@XZ 10148b80 f i NPEncryption.obj
 0002:0004fc50       ?Clone@Clonable@CryptoPP@@UBEPAV12@XZ 10148c50 f i NPEncryption.obj
 0002:0004fd10       ?CopyRangeTo2@Sink@CryptoPP@@UBEIAAVBufferedTransformation@2@AA_K_KABV?$basic_string@DU?$char_traits@D@std@@V?$allocator@D@2@@std@@_N@Z 10148d10 f i NPEncryption.obj
 0002:0004fd30       ?CreatePutSpace@BufferedTransformation@CryptoPP@@UAEPAEAAI@Z 10148d30 f i NPEncryption.obj
 0002:0004fd60       ?DefaultKeyLength@?$SimpleKeyingInterfaceImpl@V?$TwoBases@VBlockCipher@CryptoPP@@URijndael_Info@2@@CryptoPP@@V12@@CryptoPP@@UBEIXZ 10148d60 f i NPEncryption.obj
 0002:0004fd80       ?DefaultKeyLength@CipherModeBase@CryptoPP@@UBEIXZ 10148d80 f i NPEncryption.obj
 0002:0004fdb0       ?Detach@BufferedTransformation@CryptoPP@@UAEXPAV12@@Z 10148db0 f i NPEncryption.obj
 0002:0004fe70       ?FirstPut@SimpleProxyFilter@CryptoPP@@UAEXPBE@Z 10148e70 f i NPEncryption.obj
 0002:0004fe90       ?Flush@?$Unflushable@VFilter@CryptoPP@@@CryptoPP@@UAE_N_NH0@Z 10148e90 f i NPEncryption.obj
 0002:0004fee0       ?FlushDerived@FilterWithBufferedInput@CryptoPP@@MAEXXZ 10148ee0 f i NPEncryption.obj
 0002:0004ff00       ?GetAlgorithm@BlockCipher@CryptoPP@@MBEABVAlgorithm@2@XZ 10148f00 f i NPEncryption.obj
 0002:0004ff40       ?GetAlgorithm@SymmetricCipher@CryptoPP@@MBEABVAlgorithm@2@XZ 10148f40 f i NPEncryption.obj
 0002:0004ff80       ?GetAlignedArray@?$FixedSizeAllocatorWithCleanup@E$0BA@V?$NullAllocator@E@CryptoPP@@$0A@@CryptoPP@@AAEPAEXZ 10148f80 f i NPEncryption.obj
 0002:0004ffd0       ?GetAlignedArray@?$FixedSizeAllocatorWithCleanup@E$0CA@V?$NullAllocator@E@CryptoPP@@$0A@@CryptoPP@@AAEPAEXZ 10148fd0 f i NPEncryption.obj
 0002:00050020       ?GetAlignedArray@?$FixedSizeAllocatorWithCleanup@I$0DM@V?$NullAllocator@I@CryptoPP@@$00@CryptoPP@@AAEPAIXZ 10149020 f i NPEncryption.obj
 0002:00050070       ?GetAutoSignalPropagation@?$AutoSignaling@V?$InputRejecting@VBufferedTransformation@CryptoPP@@@CryptoPP@@@CryptoPP@@UBEHXZ 10149070 f i NPEncryption.obj
 0002:00050090       ?GetAutoSignalPropagation@?$SourceTemplate@VStringStore@CryptoPP@@@CryptoPP@@UBEHXZ 10149090 f i NPEncryption.obj
 0002:000500c0       ?GetAutoSignalPropagation@BufferedTransformation@CryptoPP@@UBEHXZ 101490c0 f i NPEncryption.obj
 0002:000500e0       ?GetNextMessageSeries@BufferedTransformation@CryptoPP@@UAE_NXZ 101490e0 f i NPEncryption.obj
 0002:00050100       ?GetOptimalBlockSizeUsed@StreamTransformation@CryptoPP@@UBEIXZ 10149100 f i NPEncryption.obj
 0002:00050120       ?GetValidKeyLength@?$SimpleKeyingInterfaceImpl@V?$TwoBases@VBlockCipher@CryptoPP@@URijndael_Info@2@@CryptoPP@@V12@@CryptoPP@@UBEII@Z 10149120 f i NPEncryption.obj
 0002:00050150       ?GetValidKeyLength@CipherModeBase@CryptoPP@@UBEII@Z 10149150 f i NPEncryption.obj
 0002:00050190       ?GroupSize@Name@CryptoPP@@YAPBDXZ 10149190 f i NPEncryption.obj
 0002:000501b0       ?IVRequirement@?$SimpleKeyingInterfaceImpl@V?$TwoBases@VBlockCipher@CryptoPP@@URijndael_Info@2@@CryptoPP@@V12@@CryptoPP@@UBE?AW4IV_Requirement@SimpleKeyingInterface@2@XZ 101491b0 f i NPEncryption.obj
 0002:000501d0       ?IVRequirement@CBC_ModeBase@CryptoPP@@UBE?AW4IV_Requirement@SimpleKeyingInterface@2@XZ 101491d0 f i NPEncryption.obj
 0002:000501f0       ?IVSize@?$SimpleKeyingInterfaceImpl@V?$TwoBases@VBlockCipher@CryptoPP@@URijndael_Info@2@@CryptoPP@@V12@@CryptoPP@@UBEIXZ 101491f0 f i NPEncryption.obj
 0002:00050210       ?IVSize@CipherModeBase@CryptoPP@@UBEIXZ 10149210 f i NPEncryption.obj
 0002:00050240       ?InitializeDerived@FilterWithBufferedInput@CryptoPP@@MAEXABVNameValuePairs@2@@Z 10149240 f i NPEncryption.obj
 0002:00050260       ?InitializeDerivedAndReturnNewSizes@FilterWithBufferedInput@CryptoPP@@MAEXABVNameValuePairs@2@AAI11@Z 10149260 f i NPEncryption.obj
 0002:000502a0       ?InputBufferIsEmpty@?$Unflushable@VFilter@CryptoPP@@@CryptoPP@@MBE_NXZ 101492a0 f i NPEncryption.obj
 0002:000502c0       ?IsForwardTransformation@?$BlockCipherFinal@$00VDec@Rijndael@CryptoPP@@@CryptoPP@@UBE_NXZ 101492c0 f i NPEncryption.obj
 0002:000502e0       ?IsForwardTransformation@?$BlockCipherFinal@$0A@VEnc@Rijndael@CryptoPP@@@CryptoPP@@UBE_NXZ 101492e0 f i NPEncryption.obj
 0002:00050300       ?IsForwardTransformation@BlockOrientedCipherModeBase@CryptoPP@@UBE_NXZ 10149300 f i NPEncryption.obj
 0002:00050340       ?IsPermutation@BlockTransformation@CryptoPP@@UBE_NXZ 10149340 f i NPEncryption.obj
 0002:00050360       ?IsRandomAccess@BlockOrientedCipherModeBase@CryptoPP@@UBE_NXZ 10149360 f i NPEncryption.obj
 0002:00050380       ?IsSelfInverting@BlockOrientedCipherModeBase@CryptoPP@@UBE_NXZ 10149380 f i NPEncryption.obj
 0002:000503a0       ?IsValidKeyLength@CipherModeBase@CryptoPP@@UBE_NI@Z 101493a0 f i NPEncryption.obj
 0002:000503e0       ?IsValidKeyLength@SimpleKeyingInterface@CryptoPP@@UBE_NI@Z 101493e0 f i NPEncryption.obj
 0002:00050430       ?IsolatedFlush@?$Bufferless@VFilter@CryptoPP@@@CryptoPP@@UAE_N_N0@Z 10149430 f i NPEncryption.obj
 0002:00050450       ?IsolatedFlush@?$Bufferless@VSink@CryptoPP@@@CryptoPP@@UAE_N_N0@Z 10149450 f i NPEncryption.obj
 0002:00050470       ?IsolatedFlush@?$InputRejecting@VBufferedTransformation@CryptoPP@@@CryptoPP@@UAE_N_N0@Z 10149470 f i NPEncryption.obj
 0002:00050490       ?IsolatedFlush@?$InputRejecting@VFilter@CryptoPP@@@CryptoPP@@UAE_N_N0@Z 10149490 f i NPEncryption.obj
 0002:000504b0       ?IsolatedFlush@?$Unflushable@VFilter@CryptoPP@@@CryptoPP@@UAE_N_N0@Z 101494b0 f i NPEncryption.obj
 0002:000504d0       ?IsolatedInitialize@?$SourceTemplate@VStringStore@CryptoPP@@@CryptoPP@@UAEXABVNameValuePairs@2@@Z 101494d0 f i NPEncryption.obj
 0002:00050510       ?IsolatedInitialize@?$StringSinkTemplate@V?$basic_string@DU?$char_traits@D@std@@V?$allocator@D@2@@std@@@CryptoPP@@UAEXABVNameValuePairs@2@@Z 10149510 f i NPEncryption.obj
 0002:000505f0       ?IsolatedInitialize@Store@CryptoPP@@UAEXABVNameValuePairs@2@@Z 101495f0 f i NPEncryption.obj
 0002:00050630       ?IsolatedMessageSeriesEnd@?$InputRejecting@VBufferedTransformation@CryptoPP@@@CryptoPP@@UAE_N_N@Z 10149630 f i NPEncryption.obj
 0002:00050680       ?IsolatedMessageSeriesEnd@?$InputRejecting@VFilter@CryptoPP@@@CryptoPP@@UAE_N_N@Z 10149680 f i NPEncryption.obj
 0002:000506d0       ?IsolatedMessageSeriesEnd@BufferedTransformation@CryptoPP@@UAE_N_N@Z 101496d0 f i NPEncryption.obj
 0002:000506f0       ?LastPut@SimpleProxyFilter@CryptoPP@@UAEXPBEI@Z 101496f0 f i NPEncryption.obj
 0002:00050730       ?MandatoryBlockSize@BlockOrientedCipherModeBase@CryptoPP@@UBEIXZ 10149730 f i NPEncryption.obj
 0002:00050760       ?MaxIVLength@SimpleKeyingInterface@CryptoPP@@UBEIXZ 10149760 f i NPEncryption.obj
 0002:00050790       ?MaxKeyLength@?$SimpleKeyingInterfaceImpl@V?$TwoBases@VBlockCipher@CryptoPP@@URijndael_Info@2@@CryptoPP@@V12@@CryptoPP@@UBEIXZ 10149790 f i NPEncryption.obj
 0002:000507b0       ?MaxKeyLength@CipherModeBase@CryptoPP@@UBEIXZ 101497b0 f i NPEncryption.obj
 0002:000507e0       ?MessageEnd@BufferedTransformation@CryptoPP@@QAE_NH_N@Z 101497e0 f i NPEncryption.obj
 0002:00050860       ?MinIVLength@SimpleKeyingInterface@CryptoPP@@UBEIXZ 10149860 f i NPEncryption.obj
 0002:00050890       ?MinKeyLength@?$SimpleKeyingInterfaceImpl@V?$TwoBases@VBlockCipher@CryptoPP@@URijndael_Info@2@@CryptoPP@@V12@@CryptoPP@@UBEIXZ 10149890 f i NPEncryption.obj
 0002:000508b0       ?MinKeyLength@CipherModeBase@CryptoPP@@UBEIXZ 101498b0 f i NPEncryption.obj
 0002:000508e0       ?MinLastBlockSize@CBC_ModeBase@CryptoPP@@UBEIXZ 101498e0 f i NPEncryption.obj
 0002:00050900       ?MoveInto@?$AlgorithmParametersTemplate@H@CryptoPP@@UBEXPAX@Z 10149900 f i NPEncryption.obj
 0002:000509b0       ?MoveInto@?$AlgorithmParametersTemplate@VConstByteArrayParameter@CryptoPP@@@CryptoPP@@UBEXPAX@Z 101499b0 f i NPEncryption.obj
 0002:00050a60       ?MoveInto@?$AlgorithmParametersTemplate@_N@CryptoPP@@UBEXPAX@Z 10149a60 f i NPEncryption.obj
 0002:00050b10       ?New@?$SecBlock@EV?$AllocatorWithCleanup@E$00@CryptoPP@@@CryptoPP@@QAEXI@Z 10149b10 f i NPEncryption.obj
 0002:00050b60       ?New@?$SecBlock@EV?$AllocatorWithCleanup@E$0A@@CryptoPP@@@CryptoPP@@QAEXI@Z 10149b60 f i NPEncryption.obj
 0002:00050bb0       ?NextPut@FilterWithBufferedInput@CryptoPP@@MAEHPBEI@Z 10149bb0 f i NPEncryption.obj
 0002:00050bd0       ?NextPutSingle@FilterWithBufferedInput@CryptoPP@@MAEXPBE@Z 10149bd0 f i NPEncryption.obj
 0002:00050bf0       ?NumberOfMessageSeries@BufferedTransformation@CryptoPP@@UBEIXZ 10149bf0 f i NPEncryption.obj
 0002:00050c10       ?NumberOfMessages@Store@CryptoPP@@UBEIXZ 10149c10 f i NPEncryption.obj
 0002:00050c50       ?NumberOfMessagesInThisSeries@BufferedTransformation@CryptoPP@@UBEIXZ 10149c50 f i NPEncryption.obj
 0002:00050c80       ?OptimalBlockSize@StreamTransformation@CryptoPP@@UBEIXZ 10149c80 f i NPEncryption.obj
 0002:00050cb0       ?OptimalDataAlignment@CipherModeBase@CryptoPP@@UBEIXZ 10149cb0 f i NPEncryption.obj
 0002:00050cf0       ?OptimalNumberOfParallelBlocks@BlockTransformation@CryptoPP@@UBEIXZ 10149cf0 f i NPEncryption.obj
 0002:00050d10       ?Pump2@?$SourceTemplate@VStringStore@CryptoPP@@@CryptoPP@@UAEIAA_K_N@Z 10149d10 f i NPEncryption.obj
 0002:00050d70       ?PumpAll2@?$SourceTemplate@VStringStore@CryptoPP@@@CryptoPP@@UAEI_N@Z 10149d70 f i NPEncryption.obj
 0002:00050dc0       ?PumpAll@Source@CryptoPP@@QAEXXZ 10149dc0 f i NPEncryption.obj
 0002:00050df0       ?PumpMessages2@?$SourceTemplate@VStringStore@CryptoPP@@@CryptoPP@@UAEIAAI_N@Z 10149df0 f i NPEncryption.obj
 0002:00050e40       ?Put2@?$InputRejecting@VBufferedTransformation@CryptoPP@@@CryptoPP@@UAEIPBEIH_N@Z 10149e40 f i NPEncryption.obj
 0002:00050e90       ?Put2@?$InputRejecting@VFilter@CryptoPP@@@CryptoPP@@UAEIPBEIH_N@Z 10149e90 f i NPEncryption.obj
 0002:00050ee0       ?Put2@?$StringSinkTemplate@V?$basic_string@DU?$char_traits@D@std@@V?$allocator@D@2@@std@@@CryptoPP@@UAEIPBEIH_N@Z 10149ee0 f i NPEncryption.obj
 0002:00050f70       ?Put2@FilterWithBufferedInput@CryptoPP@@UAEIPBEIH_N@Z 10149f70 f i NPEncryption.obj
 0002:00050fb0       ?PutModifiable2@BufferedTransformation@CryptoPP@@UAEIPAEIH_N@Z 10149fb0 f i NPEncryption.obj
 0002:00050ff0       ?PutModifiable2@FilterWithBufferedInput@CryptoPP@@UAEIPAEIH_N@Z 10149ff0 f i NPEncryption.obj
 0002:00051030       ?ResizeBuffers@BlockOrientedCipherModeBase@CryptoPP@@MAEXXZ 1014a030 f i NPEncryption.obj
 0002:00051070       ?ResizeBuffers@CBC_Decryption@CryptoPP@@MAEXXZ 1014a070 f i NPEncryption.obj
 0002:000510b0       ?ResizeBuffers@CipherModeBase@CryptoPP@@MAEXXZ 1014a0b0 f i NPEncryption.obj
 0002:00051100       ?Resynchronize@BlockOrientedCipherModeBase@CryptoPP@@UAEXPBEH@Z 1014a100 f i NPEncryption.obj
 0002:00051160       ?Resynchronize@SimpleKeyingInterface@CryptoPP@@UAEXPBEH@Z 1014a160 f i NPEncryption.obj
 0002:000512b0       ?Seek@StreamTransformation@CryptoPP@@UAEX_K@Z 1014a2b0 f i NPEncryption.obj
 0002:00051370       ?Separator@Name@CryptoPP@@YAPBDXZ 1014a370 f i NPEncryption.obj
 0002:00051390       ?SetAutoSignalPropagation@?$AutoSignaling@V?$InputRejecting@VBufferedTransformation@CryptoPP@@@CryptoPP@@@CryptoPP@@UAEXH@Z 1014a390 f i NPEncryption.obj
 0002:000513c0       ?SetAutoSignalPropagation@?$SourceTemplate@VStringStore@CryptoPP@@@CryptoPP@@UAEXH@Z 1014a3c0 f i NPEncryption.obj
 0002:00051400       ?SetAutoSignalPropagation@BufferedTransformation@CryptoPP@@UAEXH@Z 1014a400 f i NPEncryption.obj
 0002:00051420       ?SetFeedbackSize@CipherModeBase@CryptoPP@@MAEXI@Z 1014a420 f i NPEncryption.obj
 0002:00051500       ?SetKeyWithIV@SimpleKeyingInterface@CryptoPP@@QAEXPBEI0@Z 1014a500 f i NPEncryption.obj
 0002:00051550       ?ShouldPropagateMessageEnd@Filter@CryptoPP@@MBE_NXZ 1014a550 f i NPEncryption.obj
 0002:00051570       ?ShouldPropagateMessageSeriesEnd@Filter@CryptoPP@@MBE_NXZ 1014a570 f i NPEncryption.obj
 0002:00051590       ?SourceExhausted@?$SourceTemplate@VStringStore@CryptoPP@@@CryptoPP@@UBE_NXZ 1014a590 f i NPEncryption.obj
 0002:00051600       ?SourceInitialize@Source@CryptoPP@@IAEX_NABVNameValuePairs@2@@Z 1014a600 f i NPEncryption.obj
 0002:00051650       ?StaticAlgorithmName@?$AlgorithmImpl@V?$SimpleKeyingInterfaceImpl@V?$TwoBases@VBlockCipher@CryptoPP@@URijndael_Info@2@@CryptoPP@@V12@@CryptoPP@@V12@@CryptoPP@@SA?AV?$basic_string@DU?$char_traits@D@std@@V?$allocator@D@2@@std@@XZ 1014a650 f i NPEncryption.obj
 0002:00051690       ?StaticAlgorithmName@?$CipherModeFinalTemplate_CipherHolder@V?$BlockCipherFinal@$00VDec@Rijndael@CryptoPP@@@CryptoPP@@VCBC_Decryption@2@@CryptoPP@@SA?AV?$basic_string@DU?$char_traits@D@std@@V?$allocator@D@2@@std@@XZ 1014a690 f i NPEncryption.obj
 0002:000517c0       ?StaticAlgorithmName@?$CipherModeFinalTemplate_CipherHolder@V?$BlockCipherFinal@$0A@VEnc@Rijndael@CryptoPP@@@CryptoPP@@VCBC_Encryption@2@@CryptoPP@@SA?AV?$basic_string@DU?$char_traits@D@std@@V?$allocator@D@2@@std@@XZ 1014a7c0 f i NPEncryption.obj
 0002:000518f0       ?StaticAlgorithmName@CBC_ModeBase@CryptoPP@@SAPBDXZ 1014a8f0 f i NPEncryption.obj
 0002:00051910       ?StaticAlgorithmName@Rijndael_Info@CryptoPP@@SAPBDXZ 1014a910 f i NPEncryption.obj
 0002:00051930       ?StaticGetValidKeyLength@?$VariableKeyLength@$0BA@$0BA@$0CA@$07$03$0A@@CryptoPP@@SAII@Z 1014a930 f i NPEncryption.obj
 0002:00051990       ?Terminator@Name@CryptoPP@@YAPBDXZ 1014a990 f i NPEncryption.obj
 0002:000519b0       ?ThrowIfTypeMismatch@NameValuePairs@CryptoPP@@SAXPBDABVtype_info@@1@Z 1014a9b0 f i NPEncryption.obj
 0002:00051a90       ?TransferTo2@Sink@CryptoPP@@UAEIAAVBufferedTransformation@2@AA_KABV?$basic_string@DU?$char_traits@D@std@@V?$allocator@D@2@@std@@_N@Z 1014aa90 f i NPEncryption.obj
 0002:00051ac0       ?Uppercase@Name@CryptoPP@@YAPBDXZ 1014aac0 f i NPEncryption.obj
 0002:00051ae0       ?_Adopt@_Iterator_base0@std@@QAEXPBX@Z 1014aae0 f i NPEncryption.obj
 0002:00051b00       ?_Compat@?$_String_const_iterator@V?$_String_val@U?$_Simple_types@D@std@@@std@@@std@@QBEXABV12@@Z 1014ab00 f i NPEncryption.obj
 0002:00051b20       ?_Pdif@?$basic_string@DU?$char_traits@D@std@@V?$allocator@D@2@@std@@SAIV?$_String_const_iterator@V?$_String_val@U?$_Simple_types@D@std@@@std@@@2@0@Z 1014ab20 f i NPEncryption.obj
 0002:00051b60       ?allocate@?$AllocatorWithCleanup@E$00@CryptoPP@@QAEPAEIPBX@Z 1014ab60 f i NPEncryption.obj
 0002:00051bd0       ?allocate@?$AllocatorWithCleanup@E$0A@@CryptoPP@@QAEPAEIPBX@Z 1014abd0 f i NPEncryption.obj
 0002:00051c30       ?allocate@?$FixedSizeAllocatorWithCleanup@I$0DM@V?$NullAllocator@I@CryptoPP@@$00@CryptoPP@@QAEPAIIPBX@Z 1014ac30 f i NPEncryption.obj
 0002:00051ca0       ?allocate@?$NullAllocator@I@CryptoPP@@QAEPAIIPBX@Z 1014aca0 f i NPEncryption.obj
 0002:00051cc0       ?append@?$basic_string@DU?$char_traits@D@std@@V?$allocator@D@2@@std@@QAEAAV12@ABV12@@Z 1014acc0 f i NPEncryption.obj
 0002:00051d00       ?append@?$basic_string@DU?$char_traits@D@std@@V?$allocator@D@2@@std@@QAEAAV12@ABV12@II@Z 1014ad00 f i NPEncryption.obj
 0002:00051df0       ?append@?$basic_string@DU?$char_traits@D@std@@V?$allocator@D@2@@std@@QAEAAV12@PBD0@Z 1014adf0 f i NPEncryption.obj
 0002:00051e60       ?append@?$basic_string@DU?$char_traits@D@std@@V?$allocator@D@2@@std@@QAEAAV12@PBD@Z 1014ae60 f i NPEncryption.obj
 0002:00051ea0       ?append@?$basic_string@DU?$char_traits@D@std@@V?$allocator@D@2@@std@@QAEAAV12@PBDI@Z 1014aea0 f i NPEncryption.obj
 0002:00051f90       ?begin@?$basic_string@DU?$char_traits@D@std@@V?$allocator@D@2@@std@@QAE?AV?$_String_iterator@V?$_String_val@U?$_Simple_types@D@std@@@std@@@2@XZ 1014af90 f i NPEncryption.obj
 0002:00051fd0       ?capacity@?$basic_string@DU?$char_traits@D@std@@V?$allocator@D@2@@std@@QBEIXZ 1014afd0 f i NPEncryption.obj
 0002:00051ff0       ?clear@?$basic_string@DU?$char_traits@D@std@@V?$allocator@D@2@@std@@QAEXXZ 1014aff0 f i NPEncryption.obj
 0002:00052020       ?data@?$basic_string@DU?$char_traits@D@std@@V?$allocator@D@2@@std@@QBEPBDXZ 1014b020 f i NPEncryption.obj
 0002:00052050       ?deallocate@?$AllocatorWithCleanup@E$00@CryptoPP@@QAEXPAXI@Z 1014b050 f i NPEncryption.obj
 0002:000520c0       ?deallocate@?$AllocatorWithCleanup@E$0A@@CryptoPP@@QAEXPAXI@Z 1014b0c0 f i NPEncryption.obj
 0002:00052120       ?deallocate@?$FixedSizeAllocatorWithCleanup@E$0BA@V?$NullAllocator@E@CryptoPP@@$0A@@CryptoPP@@QAEXPAXI@Z 1014b120 f i NPEncryption.obj
 0002:00052190       ?deallocate@?$FixedSizeAllocatorWithCleanup@E$0CA@V?$NullAllocator@E@CryptoPP@@$0A@@CryptoPP@@QAEXPAXI@Z 1014b190 f i NPEncryption.obj
 0002:00052200       ?deallocate@?$FixedSizeAllocatorWithCleanup@I$0DM@V?$NullAllocator@I@CryptoPP@@$00@CryptoPP@@QAEXPAXI@Z 1014b200 f i NPEncryption.obj
 0002:00052270       ?deallocate@?$NullAllocator@E@CryptoPP@@QAEXPAXI@Z 1014b270 f i NPEncryption.obj
 0002:00052290       ?deallocate@?$NullAllocator@I@CryptoPP@@QAEXPAXI@Z 1014b290 f i NPEncryption.obj
 0002:000522b0       ?end@?$basic_string@DU?$char_traits@D@std@@V?$allocator@D@2@@std@@QAE?AV?$_String_iterator@V?$_String_val@U?$_Simple_types@D@std@@@std@@@2@XZ 1014b2b0 f i NPEncryption.obj
 0002:000522f0       ?reallocate@?$AllocatorWithCleanup@E$00@CryptoPP@@QAEPAEPAEII_N@Z 1014b2f0 f i NPEncryption.obj
 0002:00052330       ?reallocate@?$AllocatorWithCleanup@E$0A@@CryptoPP@@QAEPAEPAEII_N@Z 1014b330 f i NPEncryption.obj
 0002:00052370       ?release@?$member_ptr@VAlgorithmParametersBase@CryptoPP@@@CryptoPP@@QAEPAVAlgorithmParametersBase@2@XZ 1014b370 f i NPEncryption.obj
 0002:000523a0       ?replace@?$basic_string@DU?$char_traits@D@std@@V?$allocator@D@2@@std@@QAEAAV12@IIABV12@II@Z 1014b3a0 f i NPEncryption.obj
 0002:00052710       ?replace@?$basic_string@DU?$char_traits@D@std@@V?$allocator@D@2@@std@@QAEAAV12@IIPBDI@Z 1014b710 f i NPEncryption.obj
 0002:000528e0       ?replace@?$basic_string@DU?$char_traits@D@std@@V?$allocator@D@2@@std@@QAEAAV12@V?$_String_const_iterator@V?$_String_val@U?$_Simple_types@D@std@@@std@@@2@0PBD1@Z 1014b8e0 f i NPEncryption.obj
 0002:000529b0       ?reserve@?$basic_string@DU?$char_traits@D@std@@V?$allocator@D@2@@std@@QAEXI@Z 1014b9b0 f i NPEncryption.obj
 0002:00052a20       ?reset@?$member_ptr@VAlgorithmParametersBase@CryptoPP@@@CryptoPP@@QAEXPAVAlgorithmParametersBase@2@@Z 1014ba20 f i NPEncryption.obj
 0002:00052a80       ?size@?$SecBlock@EV?$AllocatorWithCleanup@E$00@CryptoPP@@@CryptoPP@@QBEIXZ 1014ba80 f i NPEncryption.obj
 0002:00052aa0       ?what@Exception@CryptoPP@@UBEPBDXZ 1014baa0 f i NPEncryption.obj
 0002:00052ad0       _NP_Encrypt                1014bad0 f   NPEncryption.obj
 0002:00053960       ??$?0$$QAV?$basic_string@DU?$char_traits@D@std@@V?$allocator@D@2@@std@@$$$V@?$pair@$$CBV?$basic_string@DU?$char_traits@D@std@@V?$allocator@D@2@@std@@V12@@std@@QAE@Upiecewise_construct_t@1@V?$tuple@$$QAV?$basic_string@DU?$char_traits@D@std@@V?$allocator@D@2@@std@@@1@V?$tuple@$$$V@1@@Z 1014c960 f i NPFriends.obj
 0002:000539b0       ??$?0$$QAV?$basic_string@DU?$char_traits@D@std@@V?$allocator@D@2@@std@@PAPAX@?$tuple@$$QAV?$basic_string@DU?$char_traits@D@std@@V?$allocator@D@2@@std@@@std@@QAE@$$QAV01@@Z 1014c9b0 f i NPFriends.obj
 0002:00053a10       ??$?0AAIABIX@?$pair@II@std@@QAE@AAIABI@Z 1014ca10 f i NPFriends.obj
 0002:00053a60       ??$?0AAV?$_Tree_iterator@V?$_Tree_val@U?$_Tree_simple_types@U?$pair@$$CBV?$basic_string@DU?$char_traits@D@std@@V?$allocator@D@2@@std@@V12@@std@@@std@@@std@@@std@@AAV01@X@?$pair@V?$_Tree_iterator@V?$_Tree_val@U?$_Tree_simple_types@U?$pair@$$CBV?$basic_string@DU?$char_traits@D@std@@V?$allocator@D@2@@std@@V12@@std@@@std@@@std@@@std@@V12@@std@@QAE@AAV?$_Tree_iterator@V?$_Tree_val@U?$_Tree_simple_types@U?$pair@$$CBV?$basic_string@DU?$char_traits@D@std@@V?$allocator@D@2@@std@@V12@@std@@@std@@@std@@@1@0@Z 1014ca60 f i NPFriends.obj
 0002:00053ab0       ??$?0AAV?$_Tree_iterator@V?$_Tree_val@U?$_Tree_simple_types@U?$pair@$$CBV?$basic_string@DU?$char_traits@D@std@@V?$allocator@D@2@@std@@V12@@std@@@std@@@std@@@std@@_NX@?$pair@V?$_Tree_iterator@V?$_Tree_val@U?$_Tree_simple_types@U?$pair@$$CBV?$basic_string@DU?$char_traits@D@std@@V?$allocator@D@2@@std@@V12@@std@@@std@@@std@@@std@@_N@std@@QAE@AAV?$_Tree_iterator@V?$_Tree_val@U?$_Tree_simple_types@U?$pair@$$CBV?$basic_string@DU?$char_traits@D@std@@V?$allocator@D@2@@std@@V12@@std@@@std@@@std@@@1@$$QA_N@Z 1014cab0 f i NPFriends.obj
 0002:00053b00       ??$?0ABIAAIX@?$pair@II@std@@QAE@ABIAAI@Z 1014cb00 f i NPFriends.obj
 0002:00053b50       ??$?0AB_KUNPFriend@@X@?$pair@$$CB_KUNPFriend@@@std@@QAE@AB_K$$QAUNPFriend@@@Z 1014cb50 f i NPFriends.obj
 0002:00053bb0       ??$?0AB_KUNPFriend@@X@?$pair@_KUNPFriend@@@std@@QAE@AB_K$$QAUNPFriend@@@Z 1014cbb0 f i NPFriends.obj
 0002:00053c10       ??$?0U?$dense_hashtable_iterator@U?$pair@$$CB_KUNPFriend@@@std@@_KV?$hash_compare@_KU?$less@_K@std@@@stdext@@USelectKey@?$dense_hash_map@_KUNPFriend@@V?$hash_compare@_KU?$less@_K@std@@@stdext@@U?$equal_to@_K@std@@V?$libc_allocator_with_realloc@U?$pair@$$CB_KUNPFriend@@@std@@@google@@@google@@USetKey@67@U?$equal_to@_K@2@V?$libc_allocator_with_realloc@U?$pair@$$CB_KUNPFriend@@@std@@@7@@google@@_NX@?$pair@U?$dense_hashtable_iterator@U?$pair@$$CB_KUNPFriend@@@std@@_KV?$hash_compare@_KU?$less@_K@std@@@stdext@@USelectKey@?$dense_hash_map@_KUNPFriend@@V?$hash_compare@_KU?$less@_K@std@@@stdext@@U?$equal_to@_K@std@@V?$libc_allocator_with_realloc@U?$pair@$$CB_KUNPFriend@@@std@@@google@@@google@@USetKey@67@U?$equal_to@_K@2@V?$libc_allocator_with_realloc@U?$pair@$$CB_KUNPFriend@@@std@@@7@@google@@_N@std@@QAE@$$QAU?$dense_hashtable_iterator@U?$pair@$$CB_KUNPFriend@@@std@@_KV?$hash_compare@_KU?$less@_K@std@@@stdext@@USelectKey@?$dense_hash_map@_KUNPFriend@@V?$hash_compare@_KU?$less@_K@std@@@stdext@@U?$equal_to@_K@std@@V?$libc_allocator_with_realloc@U?$pair@$$CB_KUNPFriend@@@std@@@google@@@google@@USetKey@67@U?$equal_to@_K@2@V?$libc_allocator_with_realloc@U?$pair@$$CB_KUNPFriend@@@std@@@7@@google@@$$QA_N@Z 1014cc10 f i NPFriends.obj
 0002:00053c70       ??$?0V?$_Tree_iterator@V?$_Tree_val@U?$_Tree_simple_types@U?$pair@$$CBV?$basic_string@DU?$char_traits@D@std@@V?$allocator@D@2@@std@@V12@@std@@@std@@@std@@@std@@_NX@?$pair@V?$_Tree_iterator@V?$_Tree_val@U?$_Tree_simple_types@U?$pair@$$CBV?$basic_string@DU?$char_traits@D@std@@V?$allocator@D@2@@std@@V12@@std@@@std@@@std@@@std@@_N@std@@QAE@$$QAV?$_Tree_iterator@V?$_Tree_val@U?$_Tree_simple_types@U?$pair@$$CBV?$basic_string@DU?$char_traits@D@std@@V?$allocator@D@2@@std@@V12@@std@@@std@@@std@@@1@$$QA_N@Z 1014cc70 f i NPFriends.obj
 0002:00053cc0       ??$?0V?$basic_string@DU?$char_traits@D@std@@V?$allocator@D@2@@std@@$$$VPAPAX@?$tuple@$$QAV?$basic_string@DU?$char_traits@D@std@@V?$allocator@D@2@@std@@@std@@QAE@$$QAV?$basic_string@DU?$char_traits@D@std@@V?$allocator@D@2@@1@@Z 1014ccc0 f i NPFriends.obj
 0002:00053d10       ??$?0V?$basic_string@DU?$char_traits@D@std@@V?$allocator@D@2@@std@@@?$_Tuple_val@$$QAV?$basic_string@DU?$char_traits@D@std@@V?$allocator@D@2@@std@@@std@@QAE@$$QAV?$basic_string@DU?$char_traits@D@std@@V?$allocator@D@2@@1@@Z 1014cd10 f i NPFriends.obj
 0002:00053d50       ??$?0V?$tuple@$$QAV?$basic_string@DU?$char_traits@D@std@@V?$allocator@D@2@@std@@@std@@V?$tuple@$$$V@1@$0A@$S@?$pair@$$CBV?$basic_string@DU?$char_traits@D@std@@V?$allocator@D@2@@std@@V12@@std@@QAE@AAV?$tuple@$$QAV?$basic_string@DU?$char_traits@D@std@@V?$allocator@D@2@@std@@@1@AAV?$tuple@$$$V@1@U?$_Arg_idx@$0A@@1@U?$_Arg_idx@$S@1@@Z 1014cd50 f i NPFriends.obj
 0002:00053df0       ??$?0_KUNPFriend@@X@?$pair@$$CB_KUNPFriend@@@std@@QAE@$$QAU?$pair@_KUNPFriend@@@1@@Z 1014cdf0 f i NPFriends.obj
 0002:00053e60       ??$?MDU?$char_traits@D@std@@V?$allocator@D@1@@std@@YA_NABV?$basic_string@DU?$char_traits@D@std@@V?$allocator@D@2@@0@0@Z 1014ce60 f i NPFriends.obj
 0002:00053ea0       ??$Add@VTypeHandler@?$RepeatedPtrField@VFriendsPresence@@@protobuf@google@@@RepeatedPtrFieldBase@internal@protobuf@google@@IAEPAVFriendsPresence@@XZ 1014cea0 f i NPFriends.obj
 0002:00053f80       ??$Get@VTypeHandler@?$RepeatedPtrField@VFriendsRosterMessage_FriendDetails@@@protobuf@google@@@RepeatedPtrFieldBase@internal@protobuf@google@@IBEABVFriendsRosterMessage_FriendDetails@@H@Z 1014cf80 f i NPFriends.obj
 0002:00054160       ??$_Allocate@U?$_Tree_node@U?$pair@$$CBV?$basic_string@DU?$char_traits@D@std@@V?$allocator@D@2@@std@@V12@@std@@PAX@std@@@std@@YAPAU?$_Tree_node@U?$pair@$$CBV?$basic_string@DU?$char_traits@D@std@@V?$allocator@D@2@@std@@V12@@std@@PAX@0@IPAU10@@Z 1014d160 f i NPFriends.obj
 0002:000541c0       ??$_Buynode@ABUpiecewise_construct_t@std@@V?$tuple@$$QAV?$basic_string@DU?$char_traits@D@std@@V?$allocator@D@2@@std@@@2@V?$tuple@$$$V@2@@?$_Tree_buy@U?$pair@$$CBV?$basic_string@DU?$char_traits@D@std@@V?$allocator@D@2@@std@@V12@@std@@V?$allocator@U?$pair@$$CBV?$basic_string@DU?$char_traits@D@std@@V?$allocator@D@2@@std@@V12@@std@@@2@@std@@QAEPAU?$_Tree_node@U?$pair@$$CBV?$basic_string@DU?$char_traits@D@std@@V?$allocator@D@2@@std@@V12@@std@@PAX@1@ABUpiecewise_construct_t@1@$$QAV?$tuple@$$QAV?$basic_string@DU?$char_traits@D@std@@V?$allocator@D@2@@std@@@1@$$QAV?$tuple@$$$V@1@@Z 1014d1c0 f i NPFriends.obj
 0002:00054320       ??$_Buynode_if_nil@AAU?$pair@$$CBV?$basic_string@DU?$char_traits@D@std@@V?$allocator@D@2@@std@@V12@@std@@@?$_Tree@V?$_Tmap_traits@V?$basic_string@DU?$char_traits@D@std@@V?$allocator@D@2@@std@@V12@U?$less@V?$basic_string@DU?$char_traits@D@std@@V?$allocator@D@2@@std@@@2@V?$allocator@U?$pair@$$CBV?$basic_string@DU?$char_traits@D@std@@V?$allocator@D@2@@std@@V12@@std@@@2@$0A@@std@@@std@@IAEPAU?$_Tree_node@U?$pair@$$CBV?$basic_string@DU?$char_traits@D@std@@V?$allocator@D@2@@std@@V12@@std@@PAX@1@PAU21@AAU?$pair@$$CBV?$basic_string@DU?$char_traits@D@std@@V?$allocator@D@2@@std@@V12@@1@@Z 1014d320 f i NPFriends.obj
 0002:00054340       ??$_Construct@U?$pair@$$CB_KUNPFriend@@@std@@ABU12@@std@@YAXPAU?$pair@$$CB_KUNPFriend@@@0@ABU10@@Z 1014d340 f i NPFriends.obj
 0002:00054400       ??$_Destroy@U?$pair@$$CB_KUNPFriend@@@std@@@std@@YAXPAU?$pair@$$CB_KUNPFriend@@@0@@Z 1014d400 f i NPFriends.obj
 0002:00054420       ??$_Distance2@V?$_Tree_iterator@V?$_Tree_val@U?$_Tree_simple_types@U?$pair@$$CBV?$basic_string@DU?$char_traits@D@std@@V?$allocator@D@2@@std@@V12@@std@@@std@@@std@@@std@@I@std@@YAXV?$_Tree_iterator@V?$_Tree_val@U?$_Tree_simple_types@U?$pair@$$CBV?$basic_string@DU?$char_traits@D@std@@V?$allocator@D@2@@std@@V12@@std@@@std@@@std@@@0@0AAIUbidirectional_iterator_tag@0@@Z 1014d420 f i NPFriends.obj
 0002:00054470       ??$_Distance@V?$_Tree_iterator@V?$_Tree_val@U?$_Tree_simple_types@U?$pair@$$CBV?$basic_string@DU?$char_traits@D@std@@V?$allocator@D@2@@std@@V12@@std@@@std@@@std@@@std@@I@std@@YAXV?$_Tree_iterator@V?$_Tree_val@U?$_Tree_simple_types@U?$pair@$$CBV?$basic_string@DU?$char_traits@D@std@@V?$allocator@D@2@@std@@V12@@std@@@std@@@std@@@0@0AAI@Z 1014d470 f i NPFriends.obj
 0002:000544c0       ??$_Insert_at@AAU?$pair@$$CBV?$basic_string@DU?$char_traits@D@std@@V?$allocator@D@2@@std@@V12@@std@@PAU?$_Tree_node@U?$pair@$$CBV?$basic_string@DU?$char_traits@D@std@@V?$allocator@D@2@@std@@V12@@std@@PAX@2@@?$_Tree@V?$_Tmap_traits@V?$basic_string@DU?$char_traits@D@std@@V?$allocator@D@2@@std@@V12@U?$less@V?$basic_string@DU?$char_traits@D@std@@V?$allocator@D@2@@std@@@2@V?$allocator@U?$pair@$$CBV?$basic_string@DU?$char_traits@D@std@@V?$allocator@D@2@@std@@V12@@std@@@2@$0A@@std@@@std@@IAE?AV?$_Tree_iterator@V?$_Tree_val@U?$_Tree_simple_types@U?$pair@$$CBV?$basic_string@DU?$char_traits@D@std@@V?$allocator@D@2@@std@@V12@@std@@@std@@@std@@@1@_NPAU?$_Tree_node@U?$pair@$$CBV?$basic_string@DU?$char_traits@D@std@@V?$allocator@D@2@@std@@V12@@std@@PAX@1@AAU?$pair@$$CBV?$basic_string@DU?$char_traits@D@std@@V?$allocator@D@2@@std@@V12@@1@1@Z 1014d4c0 f i NPFriends.obj
 0002:00054a00       ??$_Insert_hint@AAU?$pair@$$CBV?$basic_string@DU?$char_traits@D@std@@V?$allocator@D@2@@std@@V12@@std@@PAU?$_Tree_node@U?$pair@$$CBV?$basic_string@DU?$char_traits@D@std@@V?$allocator@D@2@@std@@V12@@std@@PAX@2@@?$_Tree@V?$_Tmap_traits@V?$basic_string@DU?$char_traits@D@std@@V?$allocator@D@2@@std@@V12@U?$less@V?$basic_string@DU?$char_traits@D@std@@V?$allocator@D@2@@std@@@2@V?$allocator@U?$pair@$$CBV?$basic_string@DU?$char_traits@D@std@@V?$allocator@D@2@@std@@V12@@std@@@2@$0A@@std@@@std@@IAE?AV?$_Tree_iterator@V?$_Tree_val@U?$_Tree_simple_types@U?$pair@$$CBV?$basic_string@DU?$char_traits@D@std@@V?$allocator@D@2@@std@@V12@@std@@@std@@@std@@@1@V?$_Tree_const_iterator@V?$_Tree_val@U?$_Tree_simple_types@U?$pair@$$CBV?$basic_string@DU?$char_traits@D@std@@V?$allocator@D@2@@std@@V12@@std@@@std@@@std@@@1@AAU?$pair@$$CBV?$basic_string@DU?$char_traits@D@std@@V?$allocator@D@2@@std@@V12@@1@PAU?$_Tree_node@U?$pair@$$CBV?$basic_string@DU?$char_traits@D@std@@V?$allocator@D@2@@std@@V12@@std@@PAX@1@@Z 1014da00 f i NPFriends.obj
 0002:000559c0       ??$_Insert_nohint@AAU?$pair@$$CBV?$basic_string@DU?$char_traits@D@std@@V?$allocator@D@2@@std@@V12@@std@@PAU?$_Tree_node@U?$pair@$$CBV?$basic_string@DU?$char_traits@D@std@@V?$allocator@D@2@@std@@V12@@std@@PAX@2@@?$_Tree@V?$_Tmap_traits@V?$basic_string@DU?$char_traits@D@std@@V?$allocator@D@2@@std@@V12@U?$less@V?$basic_string@DU?$char_traits@D@std@@V?$allocator@D@2@@std@@@2@V?$allocator@U?$pair@$$CBV?$basic_string@DU?$char_traits@D@std@@V?$allocator@D@2@@std@@V12@@std@@@2@$0A@@std@@@std@@IAE?AU?$pair@V?$_Tree_iterator@V?$_Tree_val@U?$_Tree_simple_types@U?$pair@$$CBV?$basic_string@DU?$char_traits@D@std@@V?$allocator@D@2@@std@@V12@@std@@@std@@@std@@@std@@_N@1@_NAAU?$pair@$$CBV?$basic_string@DU?$char_traits@D@std@@V?$allocator@D@2@@std@@V12@@1@PAU?$_Tree_node@U?$pair@$$CBV?$basic_string@DU?$char_traits@D@std@@V?$allocator@D@2@@std@@V12@@std@@PAX@1@@Z 1014e9c0 f i NPFriends.obj
 0002:00055ed0       ??$_Iter_cat@V?$_Tree_iterator@V?$_Tree_val@U?$_Tree_simple_types@U?$pair@$$CBV?$basic_string@DU?$char_traits@D@std@@V?$allocator@D@2@@std@@V12@@std@@@std@@@std@@@std@@@std@@YA?AUbidirectional_iterator_tag@0@ABV?$_Tree_iterator@V?$_Tree_val@U?$_Tree_simple_types@U?$pair@$$CBV?$basic_string@DU?$char_traits@D@std@@V?$allocator@D@2@@std@@V12@@std@@@std@@@std@@@0@@Z 1014eed0 f i NPFriends.obj
 0002:00055f00       ??$_Kfn@$$CBV?$basic_string@DU?$char_traits@D@std@@V?$allocator@D@2@@std@@V12@@?$_Tmap_traits@V?$basic_string@DU?$char_traits@D@std@@V?$allocator@D@2@@std@@V12@U?$less@V?$basic_string@DU?$char_traits@D@std@@V?$allocator@D@2@@std@@@2@V?$allocator@U?$pair@$$CBV?$basic_string@DU?$char_traits@D@std@@V?$allocator@D@2@@std@@V12@@std@@@2@$0A@@std@@SAABV?$basic_string@DU?$char_traits@D@std@@V?$allocator@D@2@@1@ABU?$pair@$$CBV?$basic_string@DU?$char_traits@D@std@@V?$allocator@D@2@@std@@V12@@1@@Z 1014ef00 f i NPFriends.obj
 0002:00055f20       ??$_Move@AAD@std@@YA$$QADAAD@Z 1014ef20 f i NPFriends.obj
 0002:00055f40       ??$_Move@AAI@std@@YA$$QAIAAI@Z 1014ef40 f i NPFriends.obj
 0002:00055f60       ??$_Move@AAPAU?$pair@$$CB_KUNPFriend@@@std@@@std@@YA$$QAPAU?$pair@$$CB_KUNPFriend@@@0@AAPAU10@@Z 1014ef60 f i NPFriends.obj
 0002:00055f80       ??$_Move@AAUSettings@?$dense_hashtable@U?$pair@$$CB_KUNPFriend@@@std@@_KV?$hash_compare@_KU?$less@_K@std@@@stdext@@USelectKey@?$dense_hash_map@_KUNPFriend@@V?$hash_compare@_KU?$less@_K@std@@@stdext@@U?$equal_to@_K@std@@V?$libc_allocator_with_realloc@U?$pair@$$CB_KUNPFriend@@@std@@@google@@@google@@USetKey@67@U?$equal_to@_K@2@V?$libc_allocator_with_realloc@U?$pair@$$CB_KUNPFriend@@@std@@@7@@google@@@std@@YA$$QAUSettings@?$dense_hashtable@U?$pair@$$CB_KUNPFriend@@@std@@_KV?$hash_compare@_KU?$less@_K@std@@@stdext@@USelectKey@?$dense_hash_map@_KUNPFriend@@V?$hash_compare@_KU?$less@_K@std@@@stdext@@U?$equal_to@_K@std@@V?$libc_allocator_with_realloc@U?$pair@$$CB_KUNPFriend@@@std@@@google@@@google@@USetKey@67@U?$equal_to@_K@2@V?$libc_allocator_with_realloc@U?$pair@$$CB_KUNPFriend@@@std@@@7@@google@@AAU123@@Z 1014ef80 f i NPFriends.obj
 0002:00055fa0       ??$_Move@AAVKeyInfo@?$dense_hashtable@U?$pair@$$CB_KUNPFriend@@@std@@_KV?$hash_compare@_KU?$less@_K@std@@@stdext@@USelectKey@?$dense_hash_map@_KUNPFriend@@V?$hash_compare@_KU?$less@_K@std@@@stdext@@U?$equal_to@_K@std@@V?$libc_allocator_with_realloc@U?$pair@$$CB_KUNPFriend@@@std@@@google@@@google@@USetKey@67@U?$equal_to@_K@2@V?$libc_allocator_with_realloc@U?$pair@$$CB_KUNPFriend@@@std@@@7@@google@@@std@@YA$$QAVKeyInfo@?$dense_hashtable@U?$pair@$$CB_KUNPFriend@@@std@@_KV?$hash_compare@_KU?$less@_K@std@@@stdext@@USelectKey@?$dense_hash_map@_KUNPFriend@@V?$hash_compare@_KU?$less@_K@std@@@stdext@@U?$equal_to@_K@std@@V?$libc_allocator_with_realloc@U?$pair@$$CB_KUNPFriend@@@std@@@google@@@google@@USetKey@67@U?$equal_to@_K@2@V?$libc_allocator_with_realloc@U?$pair@$$CB_KUNPFriend@@@std@@@7@@google@@AAV123@@Z 1014efa0 f i NPFriends.obj
 0002:00055fc0       ??$_Ptr_cat@U?$pair@$$CB_KUNPFriend@@@std@@U12@@std@@YA?AU_Nonscalar_ptr_iterator_tag@0@PAU?$pair@$$CB_KUNPFriend@@@0@0@Z 1014efc0 f i NPFriends.obj
 0002:00055fe0       ??$_Uninit_fill@PAU?$pair@$$CB_KUNPFriend@@@std@@U12@@std@@YAXPAU?$pair@$$CB_KUNPFriend@@@0@0ABU10@U_Nonscalar_ptr_iterator_tag@0@@Z 1014efe0 f i NPFriends.obj
 0002:000560d0       ??$addressof@PAU?$_Tree_node@U?$pair@$$CBV?$basic_string@DU?$char_traits@D@std@@V?$allocator@D@2@@std@@V12@@std@@PAX@std@@@std@@YAPAPAU?$_Tree_node@U?$pair@$$CBV?$basic_string@DU?$char_traits@D@std@@V?$allocator@D@2@@std@@V12@@std@@PAX@0@AAPAU10@@Z 1014f0d0 f i NPFriends.obj
 0002:000560f0       ??$addressof@U?$pair@$$CBV?$basic_string@DU?$char_traits@D@std@@V?$allocator@D@2@@std@@V12@@std@@@std@@YAPAU?$pair@$$CBV?$basic_string@DU?$char_traits@D@std@@V?$allocator@D@2@@std@@V12@@0@AAU10@@Z 1014f0f0 f i NPFriends.obj
 0002:00056110       ??$cast@VTypeHandler@?$RepeatedPtrField@VFriendsPresence@@@protobuf@google@@@RepeatedPtrFieldBase@internal@protobuf@google@@CAPAVFriendsPresence@@PAX@Z 1014f110 f i NPFriends.obj
 0002:00056130       ??$cast@VTypeHandler@?$RepeatedPtrField@VFriendsRosterMessage_FriendDetails@@@protobuf@google@@@RepeatedPtrFieldBase@internal@protobuf@google@@CAPAVFriendsRosterMessage_FriendDetails@@PAX@Z 1014f130 f i NPFriends.obj
 0002:00056150       ??$construct@PAU?$_Tree_node@U?$pair@$$CBV?$basic_string@DU?$char_traits@D@std@@V?$allocator@D@2@@std@@V12@@std@@PAX@std@@AAPAU12@@?$_Wrap_alloc@V?$allocator@U?$_Tree_node@U?$pair@$$CBV?$basic_string@DU?$char_traits@D@std@@V?$allocator@D@2@@std@@V12@@std@@PAX@std@@@std@@@std@@QAEXPAPAU?$_Tree_node@U?$pair@$$CBV?$basic_string@DU?$char_traits@D@std@@V?$allocator@D@2@@std@@V12@@std@@PAX@1@AAPAU21@@Z 1014f150 f i NPFriends.obj
 0002:00056190       ??$construct@PAU?$_Tree_node@U?$pair@$$CBV?$basic_string@DU?$char_traits@D@std@@V?$allocator@D@2@@std@@V12@@std@@PAX@std@@AAPAU12@@?$allocator@U?$_Tree_node@U?$pair@$$CBV?$basic_string@DU?$char_traits@D@std@@V?$allocator@D@2@@std@@V12@@std@@PAX@std@@@std@@QAEXPAPAU?$_Tree_node@U?$pair@$$CBV?$basic_string@DU?$char_traits@D@std@@V?$allocator@D@2@@std@@V12@@std@@PAX@1@AAPAU21@@Z 1014f190 f i NPFriends.obj
 0002:00056240       ??$construct@PAU?$_Tree_node@U?$pair@$$CBV?$basic_string@DU?$char_traits@D@std@@V?$allocator@D@2@@std@@V12@@std@@PAX@std@@AAPAU12@@?$allocator_traits@V?$allocator@U?$_Tree_node@U?$pair@$$CBV?$basic_string@DU?$char_traits@D@std@@V?$allocator@D@2@@std@@V12@@std@@PAX@std@@@std@@@std@@SAXAAV?$allocator@U?$_Tree_node@U?$pair@$$CBV?$basic_string@DU?$char_traits@D@std@@V?$allocator@D@2@@std@@V12@@std@@PAX@std@@@1@PAPAU?$_Tree_node@U?$pair@$$CBV?$basic_string@DU?$char_traits@D@std@@V?$allocator@D@2@@std@@V12@@std@@PAX@1@AAPAU31@@Z 1014f240 f i NPFriends.obj
 0002:00056280       ??$construct@U?$pair@$$CBV?$basic_string@DU?$char_traits@D@std@@V?$allocator@D@2@@std@@V12@@std@@ABUpiecewise_construct_t@2@V?$tuple@$$QAV?$basic_string@DU?$char_traits@D@std@@V?$allocator@D@2@@std@@@2@V?$tuple@$$$V@2@@?$_Wrap_alloc@V?$allocator@U?$_Tree_node@U?$pair@$$CBV?$basic_string@DU?$char_traits@D@std@@V?$allocator@D@2@@std@@V12@@std@@PAX@std@@@std@@@std@@QAEXPAU?$pair@$$CBV?$basic_string@DU?$char_traits@D@std@@V?$allocator@D@2@@std@@V12@@1@ABUpiecewise_construct_t@1@$$QAV?$tuple@$$QAV?$basic_string@DU?$char_traits@D@std@@V?$allocator@D@2@@std@@@1@$$QAV?$tuple@$$$V@1@@Z 1014f280 f i NPFriends.obj
 0002:000562e0       ??$construct@U?$pair@$$CBV?$basic_string@DU?$char_traits@D@std@@V?$allocator@D@2@@std@@V12@@std@@ABUpiecewise_construct_t@2@V?$tuple@$$QAV?$basic_string@DU?$char_traits@D@std@@V?$allocator@D@2@@std@@@2@V?$tuple@$$$V@2@@?$allocator@U?$_Tree_node@U?$pair@$$CBV?$basic_string@DU?$char_traits@D@std@@V?$allocator@D@2@@std@@V12@@std@@PAX@std@@@std@@QAEXPAU?$pair@$$CBV?$basic_string@DU?$char_traits@D@std@@V?$allocator@D@2@@std@@V12@@1@ABUpiecewise_construct_t@1@$$QAV?$tuple@$$QAV?$basic_string@DU?$char_traits@D@std@@V?$allocator@D@2@@std@@@1@$$QAV?$tuple@$$$V@1@@Z 1014f2e0 f i NPFriends.obj
 0002:000563d0       ??$construct@U?$pair@$$CBV?$basic_string@DU?$char_traits@D@std@@V?$allocator@D@2@@std@@V12@@std@@ABUpiecewise_construct_t@2@V?$tuple@$$QAV?$basic_string@DU?$char_traits@D@std@@V?$allocator@D@2@@std@@@2@V?$tuple@$$$V@2@@?$allocator_traits@V?$allocator@U?$_Tree_node@U?$pair@$$CBV?$basic_string@DU?$char_traits@D@std@@V?$allocator@D@2@@std@@V12@@std@@PAX@std@@@std@@@std@@SAXAAV?$allocator@U?$_Tree_node@U?$pair@$$CBV?$basic_string@DU?$char_traits@D@std@@V?$allocator@D@2@@std@@V12@@std@@PAX@std@@@1@PAU?$pair@$$CBV?$basic_string@DU?$char_traits@D@std@@V?$allocator@D@2@@std@@V12@@1@ABUpiecewise_construct_t@1@$$QAV?$tuple@$$QAV?$basic_string@DU?$char_traits@D@std@@V?$allocator@D@2@@std@@@1@$$QAV?$tuple@$$$V@1@@Z 1014f3d0 f i NPFriends.obj
 0002:00056430       ??$destroy@PAU?$_Tree_node@U?$pair@$$CBV?$basic_string@DU?$char_traits@D@std@@V?$allocator@D@2@@std@@V12@@std@@PAX@std@@@?$_Wrap_alloc@V?$allocator@U?$_Tree_node@U?$pair@$$CBV?$basic_string@DU?$char_traits@D@std@@V?$allocator@D@2@@std@@V12@@std@@PAX@std@@@std@@@std@@QAEXPAPAU?$_Tree_node@U?$pair@$$CBV?$basic_string@DU?$char_traits@D@std@@V?$allocator@D@2@@std@@V12@@std@@PAX@1@@Z 1014f430 f i NPFriends.obj
 0002:00056460       ??$destroy@PAU?$_Tree_node@U?$pair@$$CBV?$basic_string@DU?$char_traits@D@std@@V?$allocator@D@2@@std@@V12@@std@@PAX@std@@@?$allocator@U?$_Tree_node@U?$pair@$$CBV?$basic_string@DU?$char_traits@D@std@@V?$allocator@D@2@@std@@V12@@std@@PAX@std@@@std@@QAEXPAPAU?$_Tree_node@U?$pair@$$CBV?$basic_string@DU?$char_traits@D@std@@V?$allocator@D@2@@std@@V12@@std@@PAX@1@@Z 1014f460 f i NPFriends.obj
 0002:00056480       ??$destroy@PAU?$_Tree_node@U?$pair@$$CBV?$basic_string@DU?$char_traits@D@std@@V?$allocator@D@2@@std@@V12@@std@@PAX@std@@@?$allocator_traits@V?$allocator@U?$_Tree_node@U?$pair@$$CBV?$basic_string@DU?$char_traits@D@std@@V?$allocator@D@2@@std@@V12@@std@@PAX@std@@@std@@@std@@SAXAAV?$allocator@U?$_Tree_node@U?$pair@$$CBV?$basic_string@DU?$char_traits@D@std@@V?$allocator@D@2@@std@@V12@@std@@PAX@std@@@1@PAPAU?$_Tree_node@U?$pair@$$CBV?$basic_string@DU?$char_traits@D@std@@V?$allocator@D@2@@std@@V12@@std@@PAX@1@@Z 1014f480 f i NPFriends.obj
 0002:000564b0       ??$destroy@U?$pair@$$CBV?$basic_string@DU?$char_traits@D@std@@V?$allocator@D@2@@std@@V12@@std@@@?$_Wrap_alloc@V?$allocator@U?$_Tree_node@U?$pair@$$CBV?$basic_string@DU?$char_traits@D@std@@V?$allocator@D@2@@std@@V12@@std@@PAX@std@@@std@@@std@@QAEXPAU?$pair@$$CBV?$basic_string@DU?$char_traits@D@std@@V?$allocator@D@2@@std@@V12@@1@@Z 1014f4b0 f i NPFriends.obj
 0002:000564e0       ??$destroy@U?$pair@$$CBV?$basic_string@DU?$char_traits@D@std@@V?$allocator@D@2@@std@@V12@@std@@@?$allocator@U?$_Tree_node@U?$pair@$$CBV?$basic_string@DU?$char_traits@D@std@@V?$allocator@D@2@@std@@V12@@std@@PAX@std@@@std@@QAEXPAU?$pair@$$CBV?$basic_string@DU?$char_traits@D@std@@V?$allocator@D@2@@std@@V12@@1@@Z 1014f4e0 f i NPFriends.obj
 0002:00056510       ??$destroy@U?$pair@$$CBV?$basic_string@DU?$char_traits@D@std@@V?$allocator@D@2@@std@@V12@@std@@@?$allocator_traits@V?$allocator@U?$_Tree_node@U?$pair@$$CBV?$basic_string@DU?$char_traits@D@std@@V?$allocator@D@2@@std@@V12@@std@@PAX@std@@@std@@@std@@SAXAAV?$allocator@U?$_Tree_node@U?$pair@$$CBV?$basic_string@DU?$char_traits@D@std@@V?$allocator@D@2@@std@@V12@@std@@PAX@std@@@1@PAU?$pair@$$CBV?$basic_string@DU?$char_traits@D@std@@V?$allocator@D@2@@std@@V12@@1@@Z 1014f510 f i NPFriends.obj
 0002:00056540       ??$emplace_hint@ABUpiecewise_construct_t@std@@V?$tuple@$$QAV?$basic_string@DU?$char_traits@D@std@@V?$allocator@D@2@@std@@@2@V?$tuple@$$$V@2@@?$_Tree@V?$_Tmap_traits@V?$basic_string@DU?$char_traits@D@std@@V?$allocator@D@2@@std@@V12@U?$less@V?$basic_string@DU?$char_traits@D@std@@V?$allocator@D@2@@std@@@2@V?$allocator@U?$pair@$$CBV?$basic_string@DU?$char_traits@D@std@@V?$allocator@D@2@@std@@V12@@std@@@2@$0A@@std@@@std@@QAE?AV?$_Tree_iterator@V?$_Tree_val@U?$_Tree_simple_types@U?$pair@$$CBV?$basic_string@DU?$char_traits@D@std@@V?$allocator@D@2@@std@@V12@@std@@@std@@@std@@@1@V?$_Tree_const_iterator@V?$_Tree_val@U?$_Tree_simple_types@U?$pair@$$CBV?$basic_string@DU?$char_traits@D@std@@V?$allocator@D@2@@std@@V12@@std@@@std@@@std@@@1@ABUpiecewise_construct_t@1@$$QAV?$tuple@$$QAV?$basic_string@DU?$char_traits@D@std@@V?$allocator@D@2@@std@@@1@$$QAV?$tuple@$$$V@1@@Z 1014f540 f i NPFriends.obj
 0002:000565d0       ??$find_or_insert@UDefaultValue@?$dense_hash_map@_KUNPFriend@@V?$hash_compare@_KU?$less@_K@std@@@stdext@@U?$equal_to@_K@std@@V?$libc_allocator_with_realloc@U?$pair@$$CB_KUNPFriend@@@std@@@google@@@google@@@?$dense_hashtable@U?$pair@$$CB_KUNPFriend@@@std@@_KV?$hash_compare@_KU?$less@_K@std@@@stdext@@USelectKey@?$dense_hash_map@_KUNPFriend@@V?$hash_compare@_KU?$less@_K@std@@@stdext@@U?$equal_to@_K@std@@V?$libc_allocator_with_realloc@U?$pair@$$CB_KUNPFriend@@@std@@@google@@@google@@USetKey@67@U?$equal_to@_K@2@V?$libc_allocator_with_realloc@U?$pair@$$CB_KUNPFriend@@@std@@@7@@google@@QAEAAU?$pair@$$CB_KUNPFriend@@@std@@AB_K@Z 1014f5d0 f i NPFriends.obj
 0002:000566d0       ??$forward@$$QAV?$basic_string@DU?$char_traits@D@std@@V?$allocator@D@2@@std@@@std@@YA$$QAV?$basic_string@DU?$char_traits@D@std@@V?$allocator@D@2@@0@AAV10@@Z 1014f6d0 f i NPFriends.obj
 0002:000566f0       ??$forward@AAI@std@@YAAAIAAI@Z 1014f6f0 f i NPFriends.obj
 0002:00056710       ??$forward@AAPAU?$_Tree_node@U?$pair@$$CBV?$basic_string@DU?$char_traits@D@std@@V?$allocator@D@2@@std@@V12@@std@@PAX@std@@@std@@YAAAPAU?$_Tree_node@U?$pair@$$CBV?$basic_string@DU?$char_traits@D@std@@V?$allocator@D@2@@std@@V12@@std@@PAX@0@AAPAU10@@Z 1014f710 f i NPFriends.obj
 0002:00056730       ??$forward@AAU?$pair@$$CBV?$basic_string@DU?$char_traits@D@std@@V?$allocator@D@2@@std@@V12@@std@@@std@@YAAAU?$pair@$$CBV?$basic_string@DU?$char_traits@D@std@@V?$allocator@D@2@@std@@V12@@0@AAU10@@Z 1014f730 f i NPFriends.obj
 0002:00056750       ??$forward@AAV?$_Tree_iterator@V?$_Tree_val@U?$_Tree_simple_types@U?$pair@$$CBV?$basic_string@DU?$char_traits@D@std@@V?$allocator@D@2@@std@@V12@@std@@@std@@@std@@@std@@@std@@YAAAV?$_Tree_iterator@V?$_Tree_val@U?$_Tree_simple_types@U?$pair@$$CBV?$basic_string@DU?$char_traits@D@std@@V?$allocator@D@2@@std@@V12@@std@@@std@@@std@@@0@AAV10@@Z 1014f750 f i NPFriends.obj
 0002:00056770       ??$forward@ABI@std@@YAABIABI@Z 1014f770 f i NPFriends.obj
 0002:00056790       ??$forward@ABU?$pair@$$CB_KUNPFriend@@@std@@@std@@YAABU?$pair@$$CB_KUNPFriend@@@0@ABU10@@Z 1014f790 f i NPFriends.obj
 0002:000567b0       ??$forward@ABUpiecewise_construct_t@std@@@std@@YAABUpiecewise_construct_t@0@ABU10@@Z 1014f7b0 f i NPFriends.obj
 0002:000567d0       ??$forward@AB_K@std@@YAAB_KAB_K@Z 1014f7d0 f i NPFriends.obj
 0002:000567f0       ??$forward@U?$dense_hashtable_iterator@U?$pair@$$CB_KUNPFriend@@@std@@_KV?$hash_compare@_KU?$less@_K@std@@@stdext@@USelectKey@?$dense_hash_map@_KUNPFriend@@V?$hash_compare@_KU?$less@_K@std@@@stdext@@U?$equal_to@_K@std@@V?$libc_allocator_with_realloc@U?$pair@$$CB_KUNPFriend@@@std@@@google@@@google@@USetKey@67@U?$equal_to@_K@2@V?$libc_allocator_with_realloc@U?$pair@$$CB_KUNPFriend@@@std@@@7@@google@@@std@@YA$$QAU?$dense_hashtable_iterator@U?$pair@$$CB_KUNPFriend@@@std@@_KV?$hash_compare@_KU?$less@_K@std@@@stdext@@USelectKey@?$dense_hash_map@_KUNPFriend@@V?$hash_compare@_KU?$less@_K@std@@@stdext@@U?$equal_to@_K@std@@V?$libc_allocator_with_realloc@U?$pair@$$CB_KUNPFriend@@@std@@@google@@@google@@USetKey@67@U?$equal_to@_K@2@V?$libc_allocator_with_realloc@U?$pair@$$CB_KUNPFriend@@@std@@@7@@google@@AAU12@@Z 1014f7f0 f i NPFriends.obj
 0002:00056810       ??$forward@UNPFriend@@@std@@YA$$QAUNPFriend@@AAU1@@Z 1014f810 f i NPFriends.obj
 0002:00056830       ??$forward@V?$_Tree_iterator@V?$_Tree_val@U?$_Tree_simple_types@U?$pair@$$CBV?$basic_string@DU?$char_traits@D@std@@V?$allocator@D@2@@std@@V12@@std@@@std@@@std@@@std@@@std@@YA$$QAV?$_Tree_iterator@V?$_Tree_val@U?$_Tree_simple_types@U?$pair@$$CBV?$basic_string@DU?$char_traits@D@std@@V?$allocator@D@2@@std@@V12@@std@@@std@@@std@@@0@AAV10@@Z 1014f830 f i NPFriends.obj
 0002:00056850       ??$forward@V?$tuple@$$$V@std@@@std@@YA$$QAV?$tuple@$$$V@0@AAV10@@Z 1014f850 f i NPFriends.obj
 0002:00056870       ??$forward@V?$tuple@$$QAV?$basic_string@DU?$char_traits@D@std@@V?$allocator@D@2@@std@@@std@@@std@@YA$$QAV?$tuple@$$QAV?$basic_string@DU?$char_traits@D@std@@V?$allocator@D@2@@std@@@0@AAV10@@Z 1014f870 f i NPFriends.obj
 0002:00056890       ??$forward@_K@std@@YA$$QA_KAA_K@Z 1014f890 f i NPFriends.obj
 0002:000568b0       ??$forward@_N@std@@YA$$QA_NAA_N@Z 1014f8b0 f i NPFriends.obj
 0002:000568d0       ??$forward_as_tuple@V?$basic_string@DU?$char_traits@D@std@@V?$allocator@D@2@@std@@@std@@YA?AV?$tuple@$$QAV?$basic_string@DU?$char_traits@D@std@@V?$allocator@D@2@@std@@@0@$$QAV?$basic_string@DU?$char_traits@D@std@@V?$allocator@D@2@@0@@Z 1014f8d0 f i NPFriends.obj
 0002:00056910       ??$get@$0A@$$QAV?$basic_string@DU?$char_traits@D@std@@V?$allocator@D@2@@std@@@std@@YA$$QAV?$basic_string@DU?$char_traits@D@std@@V?$allocator@D@2@@0@$$QAV?$tuple@$$QAV?$basic_string@DU?$char_traits@D@std@@V?$allocator@D@2@@std@@@0@@Z 1014f910 f i NPFriends.obj
 0002:00056940       ??$hash_value@_K@stdext@@YAIAB_K@Z 1014f940 f i NPFriends.obj
 0002:00056960       ??$make_pair@AB_KUNPFriend@@@std@@YA?AU?$pair@_KUNPFriend@@@0@AB_K$$QAUNPFriend@@@Z 1014f960 f i NPFriends.obj
 0002:000569b0       ??$move@AAV?$tuple@$$QAV?$basic_string@DU?$char_traits@D@std@@V?$allocator@D@2@@std@@@std@@@std@@YA$$QAV?$tuple@$$QAV?$basic_string@DU?$char_traits@D@std@@V?$allocator@D@2@@std@@@0@AAV10@@Z 1014f9b0 f i NPFriends.obj
 0002:000569d0       ??$swap@D@std@@YAXAAD0@Z   1014f9d0 f i NPFriends.obj
 0002:00056a30       ??$swap@I@std@@YAXAAI0@Z   1014fa30 f i NPFriends.obj
 0002:00056a90       ??$swap@PAU?$pair@$$CB_KUNPFriend@@@std@@@std@@YAXAAPAU?$pair@$$CB_KUNPFriend@@@0@0@Z 1014fa90 f i NPFriends.obj
 0002:00056af0       ??$swap@USettings@?$dense_hashtable@U?$pair@$$CB_KUNPFriend@@@std@@_KV?$hash_compare@_KU?$less@_K@std@@@stdext@@USelectKey@?$dense_hash_map@_KUNPFriend@@V?$hash_compare@_KU?$less@_K@std@@@stdext@@U?$equal_to@_K@std@@V?$libc_allocator_with_realloc@U?$pair@$$CB_KUNPFriend@@@std@@@google@@@google@@USetKey@67@U?$equal_to@_K@2@V?$libc_allocator_with_realloc@U?$pair@$$CB_KUNPFriend@@@std@@@7@@google@@@std@@YAXAAUSettings@?$dense_hashtable@U?$pair@$$CB_KUNPFriend@@@std@@_KV?$hash_compare@_KU?$less@_K@std@@@stdext@@USelectKey@?$dense_hash_map@_KUNPFriend@@V?$hash_compare@_KU?$less@_K@std@@@stdext@@U?$equal_to@_K@std@@V?$libc_allocator_with_realloc@U?$pair@$$CB_KUNPFriend@@@std@@@google@@@google@@USetKey@67@U?$equal_to@_K@2@V?$libc_allocator_with_realloc@U?$pair@$$CB_KUNPFriend@@@std@@@7@@google@@0@Z 1014faf0 f i NPFriends.obj
 0002:00056bc0       ??$swap@VKeyInfo@?$dense_hashtable@U?$pair@$$CB_KUNPFriend@@@std@@_KV?$hash_compare@_KU?$less@_K@std@@@stdext@@USelectKey@?$dense_hash_map@_KUNPFriend@@V?$hash_compare@_KU?$less@_K@std@@@stdext@@U?$equal_to@_K@std@@V?$libc_allocator_with_realloc@U?$pair@$$CB_KUNPFriend@@@std@@@google@@@google@@USetKey@67@U?$equal_to@_K@2@V?$libc_allocator_with_realloc@U?$pair@$$CB_KUNPFriend@@@std@@@7@@google@@@std@@YAXAAVKeyInfo@?$dense_hashtable@U?$pair@$$CB_KUNPFriend@@@std@@_KV?$hash_compare@_KU?$less@_K@std@@@stdext@@USelectKey@?$dense_hash_map@_KUNPFriend@@V?$hash_compare@_KU?$less@_K@std@@@stdext@@U?$equal_to@_K@std@@V?$libc_allocator_with_realloc@U?$pair@$$CB_KUNPFriend@@@std@@@google@@@google@@USetKey@67@U?$equal_to@_K@2@V?$libc_allocator_with_realloc@U?$pair@$$CB_KUNPFriend@@@std@@@7@@google@@0@Z 1014fbc0 f i NPFriends.obj
 0002:00056c60       ??$uninitialized_fill@PAU?$pair@$$CB_KUNPFriend@@@std@@U12@@std@@YAXPAU?$pair@$$CB_KUNPFriend@@@0@0ABU10@@Z 1014fc60 f i NPFriends.obj
 0002:00056cb0       ??0<unnamed-type-g_friends>@@QAE@XZ 1014fcb0 f i NPFriends.obj
 0002:00056d80       ??0?$NPAsync@UNPFriendResult@@@@QAE@XZ 1014fd80 f i NPFriends.obj
 0002:00056db0       ??0?$NPAsync@UNPGetUserAvatarResult@@@@QAE@XZ 1014fdb0 f i NPFriends.obj
 0002:00056de0       ??0?$NPAsyncImpl@UNPFriendResult@@@@QAE@XZ 1014fde0 f i NPFriends.obj
 0002:00056e70       ??0?$NPAsyncImpl@UNPGetUserAvatarResult@@@@QAE@XZ 1014fe70 f i NPFriends.obj
 0002:00056f00       ??0?$_Hash_pr@$0A@_KU?$less@_K@std@@@stdext@@QAE@U?$less@_K@std@@@Z 1014ff00 f i NPFriends.obj
 0002:00056f20       ??0?$_Tree@V?$_Tmap_traits@V?$basic_string@DU?$char_traits@D@std@@V?$allocator@D@2@@std@@V12@U?$less@V?$basic_string@DU?$char_traits@D@std@@V?$allocator@D@2@@std@@@2@V?$allocator@U?$pair@$$CBV?$basic_string@DU?$char_traits@D@std@@V?$allocator@D@2@@std@@V12@@std@@@2@$0A@@std@@@std@@QAE@ABU?$less@V?$basic_string@DU?$char_traits@D@std@@V?$allocator@D@2@@std@@@1@ABV?$allocator@U?$pair@$$CBV?$basic_string@DU?$char_traits@D@std@@V?$allocator@D@2@@std@@V12@@std@@@1@@Z 1014ff20 f i NPFriends.obj
 0002:00056f60       ??0?$_Tree_alloc@$0A@U?$_Tree_base_types@U?$pair@$$CBV?$basic_string@DU?$char_traits@D@std@@V?$allocator@D@2@@std@@V12@@std@@V?$allocator@U?$pair@$$CBV?$basic_string@DU?$char_traits@D@std@@V?$allocator@D@2@@std@@V12@@std@@@2@@std@@@std@@QAE@ABV?$allocator@U?$pair@$$CBV?$basic_string@DU?$char_traits@D@std@@V?$allocator@D@2@@std@@V12@@std@@@1@@Z 1014ff60 f i NPFriends.obj
 0002:00056fa0       ??0?$_Tree_buy@U?$pair@$$CBV?$basic_string@DU?$char_traits@D@std@@V?$allocator@D@2@@std@@V12@@std@@V?$allocator@U?$pair@$$CBV?$basic_string@DU?$char_traits@D@std@@V?$allocator@D@2@@std@@V12@@std@@@2@@std@@QAE@ABV?$allocator@U?$pair@$$CBV?$basic_string@DU?$char_traits@D@std@@V?$allocator@D@2@@std@@V12@@std@@@1@@Z 1014ffa0 f i NPFriends.obj
 0002:00056fd0       ??0?$_Tree_comp@$0A@V?$_Tmap_traits@V?$basic_string@DU?$char_traits@D@std@@V?$allocator@D@2@@std@@V12@U?$less@V?$basic_string@DU?$char_traits@D@std@@V?$allocator@D@2@@std@@@2@V?$allocator@U?$pair@$$CBV?$basic_string@DU?$char_traits@D@std@@V?$allocator@D@2@@std@@V12@@std@@@2@$0A@@std@@@std@@QAE@ABU?$less@V?$basic_string@DU?$char_traits@D@std@@V?$allocator@D@2@@std@@@1@ABV?$allocator@U?$pair@$$CBV?$basic_string@DU?$char_traits@D@std@@V?$allocator@D@2@@std@@V12@@std@@@1@@Z 1014ffd0 f i NPFriends.obj
 0002:00057000       ??0?$_Tree_const_iterator@V?$_Tree_val@U?$_Tree_simple_types@U?$pair@$$CBV?$basic_string@DU?$char_traits@D@std@@V?$allocator@D@2@@std@@V12@@std@@@std@@@std@@@std@@QAE@PAU?$_Tree_node@U?$pair@$$CBV?$basic_string@DU?$char_traits@D@std@@V?$allocator@D@2@@std@@V12@@std@@PAX@1@PBV?$_Tree_val@U?$_Tree_simple_types@U?$pair@$$CBV?$basic_string@DU?$char_traits@D@std@@V?$allocator@D@2@@std@@V12@@std@@@std@@@1@@Z 10150000 f i NPFriends.obj
 0002:00057040       ??0?$_Tree_const_iterator@V?$_Tree_val@U?$_Tree_simple_types@U?$pair@$$CBV?$basic_string@DU?$char_traits@D@std@@V?$allocator@D@2@@std@@V12@@std@@@std@@@std@@@std@@QAE@XZ 10150040 f i NPFriends.obj
 0002:00057070       ??0?$_Tree_iterator@V?$_Tree_val@U?$_Tree_simple_types@U?$pair@$$CBV?$basic_string@DU?$char_traits@D@std@@V?$allocator@D@2@@std@@V12@@std@@@std@@@std@@@std@@QAE@PAU?$_Tree_node@U?$pair@$$CBV?$basic_string@DU?$char_traits@D@std@@V?$allocator@D@2@@std@@V12@@std@@PAX@1@PBV?$_Tree_val@U?$_Tree_simple_types@U?$pair@$$CBV?$basic_string@DU?$char_traits@D@std@@V?$allocator@D@2@@std@@V12@@std@@@std@@@1@@Z 10150070 f i NPFriends.obj
 0002:000570b0       ??0?$_Tree_unchecked_const_iterator@V?$_Tree_val@U?$_Tree_simple_types@U?$pair@$$CBV?$basic_string@DU?$char_traits@D@std@@V?$allocator@D@2@@std@@V12@@std@@@std@@@std@@U_Iterator_base0@2@@std@@QAE@PAU?$_Tree_node@U?$pair@$$CBV?$basic_string@DU?$char_traits@D@std@@V?$allocator@D@2@@std@@V12@@std@@PAX@1@PBV?$_Tree_val@U?$_Tree_simple_types@U?$pair@$$CBV?$basic_string@DU?$char_traits@D@std@@V?$allocator@D@2@@std@@V12@@std@@@std@@@1@@Z 101500b0 f i NPFriends.obj
 0002:000570f0       ??0?$_Tree_unchecked_const_iterator@V?$_Tree_val@U?$_Tree_simple_types@U?$pair@$$CBV?$basic_string@DU?$char_traits@D@std@@V?$allocator@D@2@@std@@V12@@std@@@std@@@std@@U_Iterator_base0@2@@std@@QAE@XZ 101500f0 f i NPFriends.obj
 0002:00057120       ??0?$_Tree_val@U?$_Tree_simple_types@U?$pair@$$CBV?$basic_string@DU?$char_traits@D@std@@V?$allocator@D@2@@std@@V12@@std@@@std@@@std@@QAE@XZ 10150120 f i NPFriends.obj
 0002:00057160       ??0?$_Wrap_alloc@V?$allocator@U?$_Tree_node@U?$pair@$$CBV?$basic_string@DU?$char_traits@D@std@@V?$allocator@D@2@@std@@V12@@std@@PAX@std@@@std@@@std@@QAE@XZ 10150160 f i NPFriends.obj
 0002:00057190       ??0?$alloc_impl@V?$libc_allocator_with_realloc@U?$pair@$$CB_KUNPFriend@@@std@@@google@@@?$dense_hashtable@U?$pair@$$CB_KUNPFriend@@@std@@_KV?$hash_compare@_KU?$less@_K@std@@@stdext@@USelectKey@?$dense_hash_map@_KUNPFriend@@V?$hash_compare@_KU?$less@_K@std@@@stdext@@U?$equal_to@_K@std@@V?$libc_allocator_with_realloc@U?$pair@$$CB_KUNPFriend@@@std@@@google@@@google@@USetKey@67@U?$equal_to@_K@2@V?$libc_allocator_with_realloc@U?$pair@$$CB_KUNPFriend@@@std@@@7@@google@@QAE@ABV012@@Z 10150190 f i NPFriends.obj
 0002:000571c0       ??0?$alloc_impl@V?$libc_allocator_with_realloc@U?$pair@$$CB_KUNPFriend@@@std@@@google@@@?$dense_hashtable@U?$pair@$$CB_KUNPFriend@@@std@@_KV?$hash_compare@_KU?$less@_K@std@@@stdext@@USelectKey@?$dense_hash_map@_KUNPFriend@@V?$hash_compare@_KU?$less@_K@std@@@stdext@@U?$equal_to@_K@std@@V?$libc_allocator_with_realloc@U?$pair@$$CB_KUNPFriend@@@std@@@google@@@google@@USetKey@67@U?$equal_to@_K@2@V?$libc_allocator_with_realloc@U?$pair@$$CB_KUNPFriend@@@std@@@7@@google@@QAE@ABV?$libc_allocator_with_realloc@U?$pair@$$CB_KUNPFriend@@@std@@@2@@Z 101501c0 f i NPFriends.obj
 0002:000571f0       ??0?$allocator@U?$_Tree_node@U?$pair@$$CBV?$basic_string@DU?$char_traits@D@std@@V?$allocator@D@2@@std@@V12@@std@@PAX@std@@@std@@QAE@XZ 101501f0 f i NPFriends.obj
 0002:00057210       ??0?$allocator@U?$pair@$$CBV?$basic_string@DU?$char_traits@D@std@@V?$allocator@D@2@@std@@V12@@std@@@std@@QAE@XZ 10150210 f i NPFriends.obj
 0002:00057230       ??0?$dense_hash_map@_KUNPFriend@@V?$hash_compare@_KU?$less@_K@std@@@stdext@@U?$equal_to@_K@std@@V?$libc_allocator_with_realloc@U?$pair@$$CB_KUNPFriend@@@std@@@google@@@google@@QAE@IABV?$hash_compare@_KU?$less@_K@std@@@stdext@@ABU?$equal_to@_K@std@@ABV?$libc_allocator_with_realloc@U?$pair@$$CB_KUNPFriend@@@std@@@1@@Z 10150230 f i NPFriends.obj
 0002:00057290       ??0?$dense_hashtable@U?$pair@$$CB_KUNPFriend@@@std@@_KV?$hash_compare@_KU?$less@_K@std@@@stdext@@USelectKey@?$dense_hash_map@_KUNPFriend@@V?$hash_compare@_KU?$less@_K@std@@@stdext@@U?$equal_to@_K@std@@V?$libc_allocator_with_realloc@U?$pair@$$CB_KUNPFriend@@@std@@@google@@@google@@USetKey@67@U?$equal_to@_K@2@V?$libc_allocator_with_realloc@U?$pair@$$CB_KUNPFriend@@@std@@@7@@google@@QAE@ABV01@I@Z 10150290 f i NPFriends.obj
 0002:00057420       ??0?$dense_hashtable@U?$pair@$$CB_KUNPFriend@@@std@@_KV?$hash_compare@_KU?$less@_K@std@@@stdext@@USelectKey@?$dense_hash_map@_KUNPFriend@@V?$hash_compare@_KU?$less@_K@std@@@stdext@@U?$equal_to@_K@std@@V?$libc_allocator_with_realloc@U?$pair@$$CB_KUNPFriend@@@std@@@google@@@google@@USetKey@67@U?$equal_to@_K@2@V?$libc_allocator_with_realloc@U?$pair@$$CB_KUNPFriend@@@std@@@7@@google@@QAE@IABV?$hash_compare@_KU?$less@_K@std@@@stdext@@ABU?$equal_to@_K@std@@ABUSelectKey@?$dense_hash_map@_KUNPFriend@@V?$hash_compare@_KU?$less@_K@std@@@stdext@@U?$equal_to@_K@std@@V?$libc_allocator_with_realloc@U?$pair@$$CB_KUNPFriend@@@std@@@google@@@1@ABUSetKey@71@ABV?$libc_allocator_with_realloc@U?$pair@$$CB_KUNPFriend@@@std@@@1@@Z 10150420 f i NPFriends.obj
 0002:00057560       ??0?$dense_hashtable_const_iterator@U?$pair@$$CB_KUNPFriend@@@std@@_KV?$hash_compare@_KU?$less@_K@std@@@stdext@@USelectKey@?$dense_hash_map@_KUNPFriend@@V?$hash_compare@_KU?$less@_K@std@@@stdext@@U?$equal_to@_K@std@@V?$libc_allocator_with_realloc@U?$pair@$$CB_KUNPFriend@@@std@@@google@@@google@@USetKey@67@U?$equal_to@_K@2@V?$libc_allocator_with_realloc@U?$pair@$$CB_KUNPFriend@@@std@@@7@@google@@QAE@PBV?$dense_hashtable@U?$pair@$$CB_KUNPFriend@@@std@@_KV?$hash_compare@_KU?$less@_K@std@@@stdext@@USelectKey@?$dense_hash_map@_KUNPFriend@@V?$hash_compare@_KU?$less@_K@std@@@stdext@@U?$equal_to@_K@std@@V?$libc_allocator_with_realloc@U?$pair@$$CB_KUNPFriend@@@std@@@google@@@google@@USetKey@67@U?$equal_to@_K@2@V?$libc_allocator_with_realloc@U?$pair@$$CB_KUNPFriend@@@std@@@7@@1@PBU?$pair@$$CB_KUNPFriend@@@std@@1_N@Z 10150560 f i NPFriends.obj
 0002:000575c0       ??0?$dense_hashtable_iterator@U?$pair@$$CB_KUNPFriend@@@std@@_KV?$hash_compare@_KU?$less@_K@std@@@stdext@@USelectKey@?$dense_hash_map@_KUNPFriend@@V?$hash_compare@_KU?$less@_K@std@@@stdext@@U?$equal_to@_K@std@@V?$libc_allocator_with_realloc@U?$pair@$$CB_KUNPFriend@@@std@@@google@@@google@@USetKey@67@U?$equal_to@_K@2@V?$libc_allocator_with_realloc@U?$pair@$$CB_KUNPFriend@@@std@@@7@@google@@QAE@PBV?$dense_hashtable@U?$pair@$$CB_KUNPFriend@@@std@@_KV?$hash_compare@_KU?$less@_K@std@@@stdext@@USelectKey@?$dense_hash_map@_KUNPFriend@@V?$hash_compare@_KU?$less@_K@std@@@stdext@@U?$equal_to@_K@std@@V?$libc_allocator_with_realloc@U?$pair@$$CB_KUNPFriend@@@std@@@google@@@google@@USetKey@67@U?$equal_to@_K@2@V?$libc_allocator_with_realloc@U?$pair@$$CB_KUNPFriend@@@std@@@7@@1@PAU?$pair@$$CB_KUNPFriend@@@std@@1_N@Z 101505c0 f i NPFriends.obj
 0002:00057620       ??0?$hash_compare@_KU?$less@_K@std@@@stdext@@QAE@U?$less@_K@std@@@Z 10150620 f i NPFriends.obj
 0002:00057650       ??0?$libc_allocator_with_realloc@U?$pair@$$CB_KUNPFriend@@@std@@@google@@QAE@ABV01@@Z 10150650 f i NPFriends.obj
 0002:00057670       ??0?$libc_allocator_with_realloc@U?$pair@$$CB_KUNPFriend@@@std@@@google@@QAE@XZ 10150670 f i NPFriends.obj
 0002:00057690       ??0?$map@V?$basic_string@DU?$char_traits@D@std@@V?$allocator@D@2@@std@@V12@U?$less@V?$basic_string@DU?$char_traits@D@std@@V?$allocator@D@2@@std@@@2@V?$allocator@U?$pair@$$CBV?$basic_string@DU?$char_traits@D@std@@V?$allocator@D@2@@std@@V12@@std@@@2@@std@@QAE@XZ 10150690 f i NPFriends.obj
 0002:000576d0       ??0?$pair@$$CB_KUNPFriend@@@std@@QAE@XZ 101506d0 f i NPFriends.obj
 0002:00057720       ??0?$sh_hashtable_settings@_KV?$hash_compare@_KU?$less@_K@std@@@stdext@@I$03@@QAE@ABV?$hash_compare@_KU?$less@_K@std@@@stdext@@MM@Z 10150720 f i NPFriends.obj
 0002:000577b0       ??0?$tuple@$$$V@std@@QAE@ABV01@@Z 101507b0 f i NPFriends.obj
 0002:000577d0       ??0?$tuple@$$$V@std@@QAE@XZ 101507d0 f i NPFriends.obj
 0002:000577f0       ??0KeyInfo@?$dense_hashtable@U?$pair@$$CB_KUNPFriend@@@std@@_KV?$hash_compare@_KU?$less@_K@std@@@stdext@@USelectKey@?$dense_hash_map@_KUNPFriend@@V?$hash_compare@_KU?$less@_K@std@@@stdext@@U?$equal_to@_K@std@@V?$libc_allocator_with_realloc@U?$pair@$$CB_KUNPFriend@@@std@@@google@@@google@@USetKey@67@U?$equal_to@_K@2@V?$libc_allocator_with_realloc@U?$pair@$$CB_KUNPFriend@@@std@@@7@@google@@QAE@ABUSelectKey@?$dense_hash_map@_KUNPFriend@@V?$hash_compare@_KU?$less@_K@std@@@stdext@@U?$equal_to@_K@std@@V?$libc_allocator_with_realloc@U?$pair@$$CB_KUNPFriend@@@std@@@google@@@2@ABUSetKey@42@ABU?$equal_to@_K@std@@@Z 101507f0 f i NPFriends.obj
 0002:00057810       ??0Settings@?$dense_hashtable@U?$pair@$$CB_KUNPFriend@@@std@@_KV?$hash_compare@_KU?$less@_K@std@@@stdext@@USelectKey@?$dense_hash_map@_KUNPFriend@@V?$hash_compare@_KU?$less@_K@std@@@stdext@@U?$equal_to@_K@std@@V?$libc_allocator_with_realloc@U?$pair@$$CB_KUNPFriend@@@std@@@google@@@google@@USetKey@67@U?$equal_to@_K@2@V?$libc_allocator_with_realloc@U?$pair@$$CB_KUNPFriend@@@std@@@7@@google@@QAE@ABV?$hash_compare@_KU?$less@_K@std@@@stdext@@@Z 10150810 f i NPFriends.obj
 0002:00057880       ??0ValInfo@?$dense_hashtable@U?$pair@$$CB_KUNPFriend@@@std@@_KV?$hash_compare@_KU?$less@_K@std@@@stdext@@USelectKey@?$dense_hash_map@_KUNPFriend@@V?$hash_compare@_KU?$less@_K@std@@@stdext@@U?$equal_to@_K@std@@V?$libc_allocator_with_realloc@U?$pair@$$CB_KUNPFriend@@@std@@@google@@@google@@USetKey@67@U?$equal_to@_K@2@V?$libc_allocator_with_realloc@U?$pair@$$CB_KUNPFriend@@@std@@@7@@google@@QAE@ABV012@@Z 10150880 f i NPFriends.obj
 0002:000578c0       ??0ValInfo@?$dense_hashtable@U?$pair@$$CB_KUNPFriend@@@std@@_KV?$hash_compare@_KU?$less@_K@std@@@stdext@@USelectKey@?$dense_hash_map@_KUNPFriend@@V?$hash_compare@_KU?$less@_K@std@@@stdext@@U?$equal_to@_K@std@@V?$libc_allocator_with_realloc@U?$pair@$$CB_KUNPFriend@@@std@@@google@@@google@@USetKey@67@U?$equal_to@_K@2@V?$libc_allocator_with_realloc@U?$pair@$$CB_KUNPFriend@@@std@@@7@@google@@QAE@ABV?$alloc_impl@V?$libc_allocator_with_realloc@U?$pair@$$CB_KUNPFriend@@@std@@@google@@@12@@Z 101508c0 f i NPFriends.obj
 0002:00057940       ??0length_error@std@@QAE@ABV01@@Z 10150940 f i NPFriends.obj
 0002:00057980       ??0length_error@std@@QAE@PBD@Z 10150980 f i NPFriends.obj
 0002:000579c0       ??0logic_error@std@@QAE@ABV01@@Z 101509c0 f i NPFriends.obj
 0002:00057a00       ??0logic_error@std@@QAE@PBD@Z 10150a00 f i NPFriends.obj
 0002:00057a40       ??1<unnamed-type-g_friends>@@QAE@XZ 10150a40 f i NPFriends.obj
 0002:00057a80       ??1?$_Tree@V?$_Tmap_traits@V?$basic_string@DU?$char_traits@D@std@@V?$allocator@D@2@@std@@V12@U?$less@V?$basic_string@DU?$char_traits@D@std@@V?$allocator@D@2@@std@@@2@V?$allocator@U?$pair@$$CBV?$basic_string@DU?$char_traits@D@std@@V?$allocator@D@2@@std@@V12@@std@@@2@$0A@@std@@@std@@QAE@XZ 10150a80 f i NPFriends.obj
 0002:00057ab0       ??1?$_Tree_alloc@$0A@U?$_Tree_base_types@U?$pair@$$CBV?$basic_string@DU?$char_traits@D@std@@V?$allocator@D@2@@std@@V12@@std@@V?$allocator@U?$pair@$$CBV?$basic_string@DU?$char_traits@D@std@@V?$allocator@D@2@@std@@V12@@std@@@2@@std@@@std@@QAE@XZ 10150ab0 f i NPFriends.obj
 0002:00057ae0       ??1?$_Tree_buy@U?$pair@$$CBV?$basic_string@DU?$char_traits@D@std@@V?$allocator@D@2@@std@@V12@@std@@V?$allocator@U?$pair@$$CBV?$basic_string@DU?$char_traits@D@std@@V?$allocator@D@2@@std@@V12@@std@@@2@@std@@QAE@XZ 10150ae0 f i NPFriends.obj
 0002:00057b10       ??1?$_Tree_comp@$0A@V?$_Tmap_traits@V?$basic_string@DU?$char_traits@D@std@@V?$allocator@D@2@@std@@V12@U?$less@V?$basic_string@DU?$char_traits@D@std@@V?$allocator@D@2@@std@@@2@V?$allocator@U?$pair@$$CBV?$basic_string@DU?$char_traits@D@std@@V?$allocator@D@2@@std@@V12@@std@@@2@$0A@@std@@@std@@QAE@XZ 10150b10 f i NPFriends.obj
 0002:00057b40       ??1?$alloc_impl@V?$libc_allocator_with_realloc@U?$pair@$$CB_KUNPFriend@@@std@@@google@@@?$dense_hashtable@U?$pair@$$CB_KUNPFriend@@@std@@_KV?$hash_compare@_KU?$less@_K@std@@@stdext@@USelectKey@?$dense_hash_map@_KUNPFriend@@V?$hash_compare@_KU?$less@_K@std@@@stdext@@U?$equal_to@_K@std@@V?$libc_allocator_with_realloc@U?$pair@$$CB_KUNPFriend@@@std@@@google@@@google@@USetKey@67@U?$equal_to@_K@2@V?$libc_allocator_with_realloc@U?$pair@$$CB_KUNPFriend@@@std@@@7@@google@@QAE@XZ 10150b40 f i NPFriends.obj
 0002:00057b70       ??1?$dense_hash_map@_KUNPFriend@@V?$hash_compare@_KU?$less@_K@std@@@stdext@@U?$equal_to@_K@std@@V?$libc_allocator_with_realloc@U?$pair@$$CB_KUNPFriend@@@std@@@google@@@google@@QAE@XZ 10150b70 f i NPFriends.obj
 0002:00057ba0       ??1?$dense_hashtable@U?$pair@$$CB_KUNPFriend@@@std@@_KV?$hash_compare@_KU?$less@_K@std@@@stdext@@USelectKey@?$dense_hash_map@_KUNPFriend@@V?$hash_compare@_KU?$less@_K@std@@@stdext@@U?$equal_to@_K@std@@V?$libc_allocator_with_realloc@U?$pair@$$CB_KUNPFriend@@@std@@@google@@@google@@USetKey@67@U?$equal_to@_K@2@V?$libc_allocator_with_realloc@U?$pair@$$CB_KUNPFriend@@@std@@@7@@google@@QAE@XZ 10150ba0 f i NPFriends.obj
 0002:00057c60       ??1?$libc_allocator_with_realloc@U?$pair@$$CB_KUNPFriend@@@std@@@google@@QAE@XZ 10150c60 f i NPFriends.obj
 0002:00057c80       ??1?$map@V?$basic_string@DU?$char_traits@D@std@@V?$allocator@D@2@@std@@V12@U?$less@V?$basic_string@DU?$char_traits@D@std@@V?$allocator@D@2@@std@@@2@V?$allocator@U?$pair@$$CBV?$basic_string@DU?$char_traits@D@std@@V?$allocator@D@2@@std@@V12@@std@@@2@@std@@QAE@XZ 10150c80 f i NPFriends.obj
 0002:00057cb0       ??1?$pair@$$CBV?$basic_string@DU?$char_traits@D@std@@V?$allocator@D@2@@std@@V12@@std@@QAE@XZ 10150cb0 f i NPFriends.obj
 0002:00057ce0       ??1ValInfo@?$dense_hashtable@U?$pair@$$CB_KUNPFriend@@@std@@_KV?$hash_compare@_KU?$less@_K@std@@@stdext@@USelectKey@?$dense_hash_map@_KUNPFriend@@V?$hash_compare@_KU?$less@_K@std@@@stdext@@U?$equal_to@_K@std@@V?$libc_allocator_with_realloc@U?$pair@$$CB_KUNPFriend@@@std@@@google@@@google@@USetKey@67@U?$equal_to@_K@2@V?$libc_allocator_with_realloc@U?$pair@$$CB_KUNPFriend@@@std@@@7@@google@@QAE@XZ 10150ce0 f i NPFriends.obj
 0002:00057d10       ??1length_error@std@@UAE@XZ 10150d10 f i NPFriends.obj
 0002:00057d40       ??1logic_error@std@@UAE@XZ 10150d40 f i NPFriends.obj
 0002:00057d70       ??4?$basic_string@DU?$char_traits@D@std@@V?$allocator@D@2@@std@@QAEAAV01@PBD@Z 10150d70 f i NPFriends.obj
 0002:00057da0       ??8?$_Tree_const_iterator@V?$_Tree_val@U?$_Tree_simple_types@U?$pair@$$CBV?$basic_string@DU?$char_traits@D@std@@V?$allocator@D@2@@std@@V12@@std@@@std@@@std@@@std@@QBE_NABV01@@Z 10150da0 f i NPFriends.obj
 0002:00057df0       ??9?$_Tree_const_iterator@V?$_Tree_val@U?$_Tree_simple_types@U?$pair@$$CBV?$basic_string@DU?$char_traits@D@std@@V?$allocator@D@2@@std@@V12@@std@@@std@@@std@@@std@@QBE_NABV01@@Z 10150df0 f i NPFriends.obj
 0002:00057e40       ??9?$dense_hashtable_const_iterator@U?$pair@$$CB_KUNPFriend@@@std@@_KV?$hash_compare@_KU?$less@_K@std@@@stdext@@USelectKey@?$dense_hash_map@_KUNPFriend@@V?$hash_compare@_KU?$less@_K@std@@@stdext@@U?$equal_to@_K@std@@V?$libc_allocator_with_realloc@U?$pair@$$CB_KUNPFriend@@@std@@@google@@@google@@USetKey@67@U?$equal_to@_K@2@V?$libc_allocator_with_realloc@U?$pair@$$CB_KUNPFriend@@@std@@@7@@google@@QBE_NABU01@@Z 10150e40 f i NPFriends.obj
 0002:00057e90       ??A?$dense_hash_map@_KUNPFriend@@V?$hash_compare@_KU?$less@_K@std@@@stdext@@U?$equal_to@_K@std@@V?$libc_allocator_with_realloc@U?$pair@$$CB_KUNPFriend@@@std@@@google@@@google@@QAEAAUNPFriend@@AB_K@Z 10150e90 f i NPFriends.obj
 0002:00057ec0       ??A?$map@V?$basic_string@DU?$char_traits@D@std@@V?$allocator@D@2@@std@@V12@U?$less@V?$basic_string@DU?$char_traits@D@std@@V?$allocator@D@2@@std@@@2@V?$allocator@U?$pair@$$CBV?$basic_string@DU?$char_traits@D@std@@V?$allocator@D@2@@std@@V12@@std@@@2@@std@@QAEAAV?$basic_string@DU?$char_traits@D@std@@V?$allocator@D@2@@1@$$QAV21@@Z 10150ec0 f i NPFriends.obj
 0002:00057fb0       ??C?$_Tree_iterator@V?$_Tree_val@U?$_Tree_simple_types@U?$pair@$$CBV?$basic_string@DU?$char_traits@D@std@@V?$allocator@D@2@@std@@V12@@std@@@std@@@std@@@std@@QBEPAU?$pair@$$CBV?$basic_string@DU?$char_traits@D@std@@V?$allocator@D@2@@std@@V12@@1@XZ 10150fb0 f i NPFriends.obj
 0002:00057fe0       ??D?$_Tree_const_iterator@V?$_Tree_val@U?$_Tree_simple_types@U?$pair@$$CBV?$basic_string@DU?$char_traits@D@std@@V?$allocator@D@2@@std@@V12@@std@@@std@@@std@@@std@@QBEABU?$pair@$$CBV?$basic_string@DU?$char_traits@D@std@@V?$allocator@D@2@@std@@V12@@1@XZ 10150fe0 f i NPFriends.obj
 0002:00058010       ??D?$_Tree_iterator@V?$_Tree_val@U?$_Tree_simple_types@U?$pair@$$CBV?$basic_string@DU?$char_traits@D@std@@V?$allocator@D@2@@std@@V12@@std@@@std@@@std@@@std@@QBEAAU?$pair@$$CBV?$basic_string@DU?$char_traits@D@std@@V?$allocator@D@2@@std@@V12@@1@XZ 10151010 f i NPFriends.obj
 0002:00058040       ??D?$dense_hashtable_const_iterator@U?$pair@$$CB_KUNPFriend@@@std@@_KV?$hash_compare@_KU?$less@_K@std@@@stdext@@USelectKey@?$dense_hash_map@_KUNPFriend@@V?$hash_compare@_KU?$less@_K@std@@@stdext@@U?$equal_to@_K@std@@V?$libc_allocator_with_realloc@U?$pair@$$CB_KUNPFriend@@@std@@@google@@@google@@USetKey@67@U?$equal_to@_K@2@V?$libc_allocator_with_realloc@U?$pair@$$CB_KUNPFriend@@@std@@@7@@google@@QBEABU?$pair@$$CB_KUNPFriend@@@std@@XZ 10151040 f i NPFriends.obj
 0002:00058060       ??D?$dense_hashtable_iterator@U?$pair@$$CB_KUNPFriend@@@std@@_KV?$hash_compare@_KU?$less@_K@std@@@stdext@@USelectKey@?$dense_hash_map@_KUNPFriend@@V?$hash_compare@_KU?$less@_K@std@@@stdext@@U?$equal_to@_K@std@@V?$libc_allocator_with_realloc@U?$pair@$$CB_KUNPFriend@@@std@@@google@@@google@@USetKey@67@U?$equal_to@_K@2@V?$libc_allocator_with_realloc@U?$pair@$$CB_KUNPFriend@@@std@@@7@@google@@QBEAAU?$pair@$$CB_KUNPFriend@@@std@@XZ 10151060 f i NPFriends.obj
 0002:00058080       ??E?$_Tree_const_iterator@V?$_Tree_val@U?$_Tree_simple_types@U?$pair@$$CBV?$basic_string@DU?$char_traits@D@std@@V?$allocator@D@2@@std@@V12@@std@@@std@@@std@@@std@@QAE?AV01@H@Z 10151080 f i NPFriends.obj
 0002:000580c0       ??E?$_Tree_const_iterator@V?$_Tree_val@U?$_Tree_simple_types@U?$pair@$$CBV?$basic_string@DU?$char_traits@D@std@@V?$allocator@D@2@@std@@V12@@std@@@std@@@std@@@std@@QAEAAV01@XZ 101510c0 f i NPFriends.obj
 0002:000580f0       ??E?$_Tree_iterator@V?$_Tree_val@U?$_Tree_simple_types@U?$pair@$$CBV?$basic_string@DU?$char_traits@D@std@@V?$allocator@D@2@@std@@V12@@std@@@std@@@std@@@std@@QAE?AV01@H@Z 101510f0 f i NPFriends.obj
 0002:00058130       ??E?$_Tree_iterator@V?$_Tree_val@U?$_Tree_simple_types@U?$pair@$$CBV?$basic_string@DU?$char_traits@D@std@@V?$allocator@D@2@@std@@V12@@std@@@std@@@std@@@std@@QAEAAV01@XZ 10151130 f i NPFriends.obj
 0002:00058160       ??E?$_Tree_unchecked_const_iterator@V?$_Tree_val@U?$_Tree_simple_types@U?$pair@$$CBV?$basic_string@DU?$char_traits@D@std@@V?$allocator@D@2@@std@@V12@@std@@@std@@@std@@U_Iterator_base0@2@@std@@QAEAAV01@XZ 10151160 f i NPFriends.obj
 0002:00058250       ??E?$dense_hashtable_const_iterator@U?$pair@$$CB_KUNPFriend@@@std@@_KV?$hash_compare@_KU?$less@_K@std@@@stdext@@USelectKey@?$dense_hash_map@_KUNPFriend@@V?$hash_compare@_KU?$less@_K@std@@@stdext@@U?$equal_to@_K@std@@V?$libc_allocator_with_realloc@U?$pair@$$CB_KUNPFriend@@@std@@@google@@@google@@USetKey@67@U?$equal_to@_K@2@V?$libc_allocator_with_realloc@U?$pair@$$CB_KUNPFriend@@@std@@@7@@google@@QAEAAU01@XZ 10151250 f i NPFriends.obj
 0002:00058290       ??F?$_Tree_const_iterator@V?$_Tree_val@U?$_Tree_simple_types@U?$pair@$$CBV?$basic_string@DU?$char_traits@D@std@@V?$allocator@D@2@@std@@V12@@std@@@std@@@std@@@std@@QAEAAV01@XZ 10151290 f i NPFriends.obj
 0002:000582c0       ??F?$_Tree_iterator@V?$_Tree_val@U?$_Tree_simple_types@U?$pair@$$CBV?$basic_string@DU?$char_traits@D@std@@V?$allocator@D@2@@std@@V12@@std@@@std@@@std@@@std@@QAEAAV01@XZ 101512c0 f i NPFriends.obj
 0002:000582f0       ??F?$_Tree_unchecked_const_iterator@V?$_Tree_val@U?$_Tree_simple_types@U?$pair@$$CBV?$basic_string@DU?$char_traits@D@std@@V?$allocator@D@2@@std@@V12@@std@@@std@@@std@@U_Iterator_base0@2@@std@@QAEAAV01@XZ 101512f0 f i NPFriends.obj
 0002:00058420       ??R?$equal_to@_K@std@@QBE_NAB_K0@Z 10151420 f i NPFriends.obj
 0002:00058490       ??R?$hash_compare@_KU?$less@_K@std@@@stdext@@QBEIAB_K@Z 10151490 f i NPFriends.obj
 0002:00058520       ??R?$less@V?$basic_string@DU?$char_traits@D@std@@V?$allocator@D@2@@std@@@std@@QBE_NABV?$basic_string@DU?$char_traits@D@std@@V?$allocator@D@2@@1@0@Z 10151520 f i NPFriends.obj
 0002:00058550       ??RDefaultValue@?$dense_hash_map@_KUNPFriend@@V?$hash_compare@_KU?$less@_K@std@@@stdext@@U?$equal_to@_K@std@@V?$libc_allocator_with_realloc@U?$pair@$$CB_KUNPFriend@@@std@@@google@@@google@@QAE?AU?$pair@$$CB_KUNPFriend@@@std@@AB_K@Z 10151550 f i NPFriends.obj
 0002:000585e0       ??RSelectKey@?$dense_hash_map@_KUNPFriend@@V?$hash_compare@_KU?$less@_K@std@@@stdext@@U?$equal_to@_K@std@@V?$libc_allocator_with_realloc@U?$pair@$$CB_KUNPFriend@@@std@@@google@@@google@@QBEAB_KABU?$pair@$$CB_KUNPFriend@@@std@@@Z 101515e0 f i NPFriends.obj
 0002:00058600       ??_G?$pair@$$CBV?$basic_string@DU?$char_traits@D@std@@V?$allocator@D@2@@std@@V12@@std@@QAEPAXI@Z 10151600 f i NPFriends.obj
 0002:00058650       ??_Elength_error@std@@UAEPAXI@Z 10151650 f i NPFriends.obj
 0002:00058650       ??_Glength_error@std@@UAEPAXI@Z 10151650 f i NPFriends.obj
 0002:000586a0       ??_Glogic_error@std@@UAEPAXI@Z 101516a0 f i NPFriends.obj
 0002:000586a0       ??_Elogic_error@std@@UAEPAXI@Z 101516a0 f i NPFriends.obj
 0002:000586f0       ?Add@?$RepeatedPtrField@VFriendsPresence@@@protobuf@google@@QAEPAVFriendsPresence@@XZ 101516f0 f i NPFriends.obj
 0002:00058720       ?Free@?$NPAsyncImpl@UNPFriendResult@@@@UAEXXZ 10151720 f i NPFriends.obj
 0002:00058784       ?Free@?$NPAsyncImpl@UNPFriendResult@@@@W3AEXXZ 10151784 f i NPFriends.obj
 0002:00058790       ?Free@?$NPAsyncImpl@UNPGetUserAvatarResult@@@@UAEXXZ 10151790 f i NPFriends.obj
 0002:000587f4       ?Free@?$NPAsyncImpl@UNPGetUserAvatarResult@@@@W3AEXXZ 101517f4 f i NPFriends.obj
 0002:00058800       ?Friends_Connect@@YAXXZ    10151800 f   NPFriends.obj
 0002:00058820       ?Friends_Init@@YAXXZ       10151820 f   NPFriends.obj
 0002:00058870       ?Friends_Shutdown@@YAXXZ   10151870 f   NPFriends.obj
 0002:00058950       ?Get@?$RepeatedPtrField@VFriendsRosterMessage_FriendDetails@@@protobuf@google@@QBEABVFriendsRosterMessage_FriendDetails@@H@Z 10151950 f i NPFriends.obj
 0002:00058e80       ?GetResult@?$NPAsyncImpl@UNPFriendResult@@@@UAEPAUNPFriendResult@@XZ 10151e80 f i NPFriends.obj
 0002:00058ea0       ?GetResult@?$NPAsyncImpl@UNPGetUserAvatarResult@@@@UAEPAUNPGetUserAvatarResult@@XZ 10151ea0 f i NPFriends.obj
 0002:000590b0       ?GetUserData@?$NPAsyncImpl@UNPFriendResult@@@@UAEPAXXZ 101520b0 f i NPFriends.obj
 0002:000590d0       ?GetUserData@?$NPAsyncImpl@UNPGetUserAvatarResult@@@@UAEPAXXZ 101520d0 f i NPFriends.obj
 0002:000590f0       ?HasCompleted@?$NPAsyncImpl@UNPFriendResult@@@@UAE_NXZ 101520f0 f i NPFriends.obj
 0002:00059130       ?HasCompleted@?$NPAsyncImpl@UNPGetUserAvatarResult@@@@UAE_NXZ 10152130 f i NPFriends.obj
 0002:00059170       ?New@?$GenericTypeHandler@VFriendsPresence@@@internal@protobuf@google@@SAPAVFriendsPresence@@XZ 10152170 f i NPFriends.obj
 0002:00059210       ?RunCallback@?$NPAsyncImpl@UNPFriendResult@@@@UAE_NXZ 10152210 f i NPFriends.obj
 0002:00059280       ?RunCallback@?$NPAsyncImpl@UNPGetUserAvatarResult@@@@UAE_NXZ 10152280 f i NPFriends.obj
 0002:000592f0       ?SetCallback@?$NPAsyncImpl@UNPFriendResult@@@@UAEXP6AXPAV?$NPAsync@UNPFriendResult@@@@@ZPAX@Z 101522f0 f i NPFriends.obj
 0002:00059330       ?SetCallback@?$NPAsyncImpl@UNPGetUserAvatarResult@@@@UAEXP6AXPAV?$NPAsync@UNPGetUserAvatarResult@@@@@ZPAX@Z 10152330 f i NPFriends.obj
 0002:00059370       ?SetResult@?$NPAsyncImpl@UNPFriendResult@@@@QAEXPAUNPFriendResult@@@Z 10152370 f i NPFriends.obj
 0002:000593e0       ?SetResult@?$NPAsyncImpl@UNPGetUserAvatarResult@@@@QAEXPAUNPGetUserAvatarResult@@@Z 101523e0 f i NPFriends.obj
 0002:00059450       ?Wait@?$NPAsyncImpl@UNPFriendResult@@@@UAEPAUNPFriendResult@@XZ 10152450 f i NPFriends.obj
 0002:000594b0       ?Wait@?$NPAsyncImpl@UNPGetUserAvatarResult@@@@UAEPAUNPGetUserAvatarResult@@XZ 101524b0 f i NPFriends.obj
 0002:00059510       ?_Buyheadnode@?$_Tree_alloc@$0A@U?$_Tree_base_types@U?$pair@$$CBV?$basic_string@DU?$char_traits@D@std@@V?$allocator@D@2@@std@@V12@@std@@V?$allocator@U?$pair@$$CBV?$basic_string@DU?$char_traits@D@std@@V?$allocator@D@2@@std@@V12@@std@@@2@@std@@@std@@QAEPAU?$_Tree_node@U?$pair@$$CBV?$basic_string@DU?$char_traits@D@std@@V?$allocator@D@2@@std@@V12@@std@@PAX@2@XZ 10152510 f i NPFriends.obj
 0002:000596d0       ?_Buynode0@?$_Tree_buy@U?$pair@$$CBV?$basic_string@DU?$char_traits@D@std@@V?$allocator@D@2@@std@@V12@@std@@V?$allocator@U?$pair@$$CBV?$basic_string@DU?$char_traits@D@std@@V?$allocator@D@2@@std@@V12@@std@@@2@@std@@QAEPAU?$_Tree_node@U?$pair@$$CBV?$basic_string@DU?$char_traits@D@std@@V?$allocator@D@2@@std@@V12@@std@@PAX@2@XZ 101526d0 f i NPFriends.obj
 0002:00059870       ?_Color@?$_Tree_val@U?$_Tree_simple_types@U?$pair@$$CBV?$basic_string@DU?$char_traits@D@std@@V?$allocator@D@2@@std@@V12@@std@@@std@@@std@@SAAADPAU?$_Tree_node@U?$pair@$$CBV?$basic_string@DU?$char_traits@D@std@@V?$allocator@D@2@@std@@V12@@std@@PAX@2@@Z 10152870 f i NPFriends.obj
 0002:00059890       ?_Destroy_if_not_nil@?$_Tree@V?$_Tmap_traits@V?$basic_string@DU?$char_traits@D@std@@V?$allocator@D@2@@std@@V12@U?$less@V?$basic_string@DU?$char_traits@D@std@@V?$allocator@D@2@@std@@@2@V?$allocator@U?$pair@$$CBV?$basic_string@DU?$char_traits@D@std@@V?$allocator@D@2@@std@@V12@@std@@@2@$0A@@std@@@std@@IAEXPAU?$_Tree_node@U?$pair@$$CBV?$basic_string@DU?$char_traits@D@std@@V?$allocator@D@2@@std@@V12@@std@@PAX@2@@Z 10152890 f i NPFriends.obj
 0002:00059900       ?_Eqrange@?$_Tree@V?$_Tmap_traits@V?$basic_string@DU?$char_traits@D@std@@V?$allocator@D@2@@std@@V12@U?$less@V?$basic_string@DU?$char_traits@D@std@@V?$allocator@D@2@@std@@@2@V?$allocator@U?$pair@$$CBV?$basic_string@DU?$char_traits@D@std@@V?$allocator@D@2@@std@@V12@@std@@@2@$0A@@std@@@std@@IAE?AU?$pair@V?$_Tree_iterator@V?$_Tree_val@U?$_Tree_simple_types@U?$pair@$$CBV?$basic_string@DU?$char_traits@D@std@@V?$allocator@D@2@@std@@V12@@std@@@std@@@std@@@std@@V12@@2@ABV?$basic_string@DU?$char_traits@D@std@@V?$allocator@D@2@@2@@Z 10152900 f i NPFriends.obj
 0002:00059b30       ?_Erase@?$_Tree@V?$_Tmap_traits@V?$basic_string@DU?$char_traits@D@std@@V?$allocator@D@2@@std@@V12@U?$less@V?$basic_string@DU?$char_traits@D@std@@V?$allocator@D@2@@std@@@2@V?$allocator@U?$pair@$$CBV?$basic_string@DU?$char_traits@D@std@@V?$allocator@D@2@@std@@V12@@std@@@2@$0A@@std@@@std@@IAEXPAU?$_Tree_node@U?$pair@$$CBV?$basic_string@DU?$char_traits@D@std@@V?$allocator@D@2@@std@@V12@@std@@PAX@2@@Z 10152b30 f i NPFriends.obj
 0002:00059c00       ?_Freeheadnode@?$_Tree_alloc@$0A@U?$_Tree_base_types@U?$pair@$$CBV?$basic_string@DU?$char_traits@D@std@@V?$allocator@D@2@@std@@V12@@std@@V?$allocator@U?$pair@$$CBV?$basic_string@DU?$char_traits@D@std@@V?$allocator@D@2@@std@@V12@@std@@@2@@std@@@std@@QAEXPAU?$_Tree_node@U?$pair@$$CBV?$basic_string@DU?$char_traits@D@std@@V?$allocator@D@2@@std@@V12@@std@@PAX@2@@Z 10152c00 f i NPFriends.obj
 0002:00059ce0       ?_Freenode0@?$_Tree_buy@U?$pair@$$CBV?$basic_string@DU?$char_traits@D@std@@V?$allocator@D@2@@std@@V12@@std@@V?$allocator@U?$pair@$$CBV?$basic_string@DU?$char_traits@D@std@@V?$allocator@D@2@@std@@V12@@std@@@2@@std@@QAEXPAU?$_Tree_node@U?$pair@$$CBV?$basic_string@DU?$char_traits@D@std@@V?$allocator@D@2@@std@@V12@@std@@PAX@2@@Z 10152ce0 f i NPFriends.obj
 0002:00059dc0       ?_Get_rest@?$tuple@$$QAV?$basic_string@DU?$char_traits@D@std@@V?$allocator@D@2@@std@@@std@@QAEAAV?$tuple@$$$V@2@XZ 10152dc0 f i NPFriends.obj
 0002:00059de0       ?_Getal@?$_Tree_alloc@$0A@U?$_Tree_base_types@U?$pair@$$CBV?$basic_string@DU?$char_traits@D@std@@V?$allocator@D@2@@std@@V12@@std@@V?$allocator@U?$pair@$$CBV?$basic_string@DU?$char_traits@D@std@@V?$allocator@D@2@@std@@V12@@std@@@2@@std@@@std@@QBE?AU?$_Wrap_alloc@V?$allocator@U?$_Tree_node@U?$pair@$$CBV?$basic_string@DU?$char_traits@D@std@@V?$allocator@D@2@@std@@V12@@std@@PAX@std@@@std@@@2@XZ 10152de0 f i NPFriends.obj
 0002:00059e10       ?_Getcomp@?$_Tree_comp@$0A@V?$_Tmap_traits@V?$basic_string@DU?$char_traits@D@std@@V?$allocator@D@2@@std@@V12@U?$less@V?$basic_string@DU?$char_traits@D@std@@V?$allocator@D@2@@std@@@2@V?$allocator@U?$pair@$$CBV?$basic_string@DU?$char_traits@D@std@@V?$allocator@D@2@@std@@V12@@std@@@2@$0A@@std@@@std@@QBE?AU?$less@V?$basic_string@DU?$char_traits@D@std@@V?$allocator@D@2@@std@@@2@XZ 10152e10 f i NPFriends.obj
 0002:00059e30       ?_Isnil@?$_Tree_val@U?$_Tree_simple_types@U?$pair@$$CBV?$basic_string@DU?$char_traits@D@std@@V?$allocator@D@2@@std@@V12@@std@@@std@@@std@@SAAADPAU?$_Tree_node@U?$pair@$$CBV?$basic_string@DU?$char_traits@D@std@@V?$allocator@D@2@@std@@V12@@std@@PAX@2@@Z 10152e30 f i NPFriends.obj
 0002:00059e50       ?_Key@?$_Tree@V?$_Tmap_traits@V?$basic_string@DU?$char_traits@D@std@@V?$allocator@D@2@@std@@V12@U?$less@V?$basic_string@DU?$char_traits@D@std@@V?$allocator@D@2@@std@@@2@V?$allocator@U?$pair@$$CBV?$basic_string@DU?$char_traits@D@std@@V?$allocator@D@2@@std@@V12@@std@@@2@$0A@@std@@@std@@IBEABV?$basic_string@DU?$char_traits@D@std@@V?$allocator@D@2@@2@PAU?$_Tree_node@U?$pair@$$CBV?$basic_string@DU?$char_traits@D@std@@V?$allocator@D@2@@std@@V12@@std@@PAX@2@@Z 10152e50 f i NPFriends.obj
 0002:00059e90       ?_Kfn@?$_Tree@V?$_Tmap_traits@V?$basic_string@DU?$char_traits@D@std@@V?$allocator@D@2@@std@@V12@U?$less@V?$basic_string@DU?$char_traits@D@std@@V?$allocator@D@2@@std@@@2@V?$allocator@U?$pair@$$CBV?$basic_string@DU?$char_traits@D@std@@V?$allocator@D@2@@std@@V12@@std@@@2@$0A@@std@@@std@@IBEABV?$basic_string@DU?$char_traits@D@std@@V?$allocator@D@2@@2@ABU?$pair@$$CBV?$basic_string@DU?$char_traits@D@std@@V?$allocator@D@2@@std@@V12@@2@@Z 10152e90 f i NPFriends.obj
 0002:00059ec0       ?_Lbound@?$_Tree@V?$_Tmap_traits@V?$basic_string@DU?$char_traits@D@std@@V?$allocator@D@2@@std@@V12@U?$less@V?$basic_string@DU?$char_traits@D@std@@V?$allocator@D@2@@std@@@2@V?$allocator@U?$pair@$$CBV?$basic_string@DU?$char_traits@D@std@@V?$allocator@D@2@@std@@V12@@std@@@2@$0A@@std@@@std@@IAEPAU?$_Tree_node@U?$pair@$$CBV?$basic_string@DU?$char_traits@D@std@@V?$allocator@D@2@@std@@V12@@std@@PAX@2@ABV?$basic_string@DU?$char_traits@D@std@@V?$allocator@D@2@@2@@Z 10152ec0 f i NPFriends.obj
 0002:00059f80       ?_Left@?$_Tree_val@U?$_Tree_simple_types@U?$pair@$$CBV?$basic_string@DU?$char_traits@D@std@@V?$allocator@D@2@@std@@V12@@std@@@std@@@std@@SAAAPAU?$_Tree_node@U?$pair@$$CBV?$basic_string@DU?$char_traits@D@std@@V?$allocator@D@2@@std@@V12@@std@@PAX@2@PAU32@@Z 10152f80 f i NPFriends.obj
 0002:00059fa0       ?_Lmost@?$_Tree@V?$_Tmap_traits@V?$basic_string@DU?$char_traits@D@std@@V?$allocator@D@2@@std@@V12@U?$less@V?$basic_string@DU?$char_traits@D@std@@V?$allocator@D@2@@std@@@2@V?$allocator@U?$pair@$$CBV?$basic_string@DU?$char_traits@D@std@@V?$allocator@D@2@@std@@V12@@std@@@2@$0A@@std@@@std@@IBEAAPAU?$_Tree_node@U?$pair@$$CBV?$basic_string@DU?$char_traits@D@std@@V?$allocator@D@2@@std@@V12@@std@@PAX@2@XZ 10152fa0 f i NPFriends.obj
 0002:00059fd0       ?_Lrotate@?$_Tree@V?$_Tmap_traits@V?$basic_string@DU?$char_traits@D@std@@V?$allocator@D@2@@std@@V12@U?$less@V?$basic_string@DU?$char_traits@D@std@@V?$allocator@D@2@@std@@@2@V?$allocator@U?$pair@$$CBV?$basic_string@DU?$char_traits@D@std@@V?$allocator@D@2@@std@@V12@@std@@@2@$0A@@std@@@std@@IAEXPAU?$_Tree_node@U?$pair@$$CBV?$basic_string@DU?$char_traits@D@std@@V?$allocator@D@2@@std@@V12@@std@@PAX@2@@Z 10152fd0 f i NPFriends.obj
 0002:0005a160       ?_Max@?$_Tree_val@U?$_Tree_simple_types@U?$pair@$$CBV?$basic_string@DU?$char_traits@D@std@@V?$allocator@D@2@@std@@V12@@std@@@std@@@std@@SAPAU?$_Tree_node@U?$pair@$$CBV?$basic_string@DU?$char_traits@D@std@@V?$allocator@D@2@@std@@V12@@std@@PAX@2@PAU32@@Z 10153160 f i NPFriends.obj
 0002:0005a1c0       ?_Min@?$_Tree_val@U?$_Tree_simple_types@U?$pair@$$CBV?$basic_string@DU?$char_traits@D@std@@V?$allocator@D@2@@std@@V12@@std@@@std@@@std@@SAPAU?$_Tree_node@U?$pair@$$CBV?$basic_string@DU?$char_traits@D@std@@V?$allocator@D@2@@std@@V12@@std@@PAX@2@PAU32@@Z 101531c0 f i NPFriends.obj
 0002:0005a220       ?_Mynode@?$_Tree_unchecked_const_iterator@V?$_Tree_val@U?$_Tree_simple_types@U?$pair@$$CBV?$basic_string@DU?$char_traits@D@std@@V?$allocator@D@2@@std@@V12@@std@@@std@@@std@@U_Iterator_base0@2@@std@@QBEPAU?$_Tree_node@U?$pair@$$CBV?$basic_string@DU?$char_traits@D@std@@V?$allocator@D@2@@std@@V12@@std@@PAX@2@XZ 10153220 f i NPFriends.obj
 0002:0005a240       ?_Myval@?$_Tree_val@U?$_Tree_simple_types@U?$pair@$$CBV?$basic_string@DU?$char_traits@D@std@@V?$allocator@D@2@@std@@V12@@std@@@std@@@std@@SAAAU?$pair@$$CBV?$basic_string@DU?$char_traits@D@std@@V?$allocator@D@2@@std@@V12@@2@PAU?$_Tree_node@U?$pair@$$CBV?$basic_string@DU?$char_traits@D@std@@V?$allocator@D@2@@std@@V12@@std@@PAX@2@@Z 10153240 f i NPFriends.obj
 0002:0005a260       ?_Parent@?$_Tree_val@U?$_Tree_simple_types@U?$pair@$$CBV?$basic_string@DU?$char_traits@D@std@@V?$allocator@D@2@@std@@V12@@std@@@std@@@std@@SAAAPAU?$_Tree_node@U?$pair@$$CBV?$basic_string@DU?$char_traits@D@std@@V?$allocator@D@2@@std@@V12@@std@@PAX@2@PAU32@@Z 10153260 f i NPFriends.obj
 0002:0005a280       ?_Right@?$_Tree_val@U?$_Tree_simple_types@U?$pair@$$CBV?$basic_string@DU?$char_traits@D@std@@V?$allocator@D@2@@std@@V12@@std@@@std@@@std@@SAAAPAU?$_Tree_node@U?$pair@$$CBV?$basic_string@DU?$char_traits@D@std@@V?$allocator@D@2@@std@@V12@@std@@PAX@2@PAU32@@Z 10153280 f i NPFriends.obj
 0002:0005a2a0       ?_Rmost@?$_Tree@V?$_Tmap_traits@V?$basic_string@DU?$char_traits@D@std@@V?$allocator@D@2@@std@@V12@U?$less@V?$basic_string@DU?$char_traits@D@std@@V?$allocator@D@2@@std@@@2@V?$allocator@U?$pair@$$CBV?$basic_string@DU?$char_traits@D@std@@V?$allocator@D@2@@std@@V12@@std@@@2@$0A@@std@@@std@@IBEAAPAU?$_Tree_node@U?$pair@$$CBV?$basic_string@DU?$char_traits@D@std@@V?$allocator@D@2@@std@@V12@@std@@PAX@2@XZ 101532a0 f i NPFriends.obj
 0002:0005a2d0       ?_Root@?$_Tree@V?$_Tmap_traits@V?$basic_string@DU?$char_traits@D@std@@V?$allocator@D@2@@std@@V12@U?$less@V?$basic_string@DU?$char_traits@D@std@@V?$allocator@D@2@@std@@@2@V?$allocator@U?$pair@$$CBV?$basic_string@DU?$char_traits@D@std@@V?$allocator@D@2@@std@@V12@@std@@@2@$0A@@std@@@std@@IBEAAPAU?$_Tree_node@U?$pair@$$CBV?$basic_string@DU?$char_traits@D@std@@V?$allocator@D@2@@std@@V12@@std@@PAX@2@XZ 101532d0 f i NPFriends.obj
 0002:0005a300       ?_Rrotate@?$_Tree@V?$_Tmap_traits@V?$basic_string@DU?$char_traits@D@std@@V?$allocator@D@2@@std@@V12@U?$less@V?$basic_string@DU?$char_traits@D@std@@V?$allocator@D@2@@std@@@2@V?$allocator@U?$pair@$$CBV?$basic_string@DU?$char_traits@D@std@@V?$allocator@D@2@@std@@V12@@std@@@2@$0A@@std@@@std@@IAEXPAU?$_Tree_node@U?$pair@$$CBV?$basic_string@DU?$char_traits@D@std@@V?$allocator@D@2@@std@@V12@@std@@PAX@2@@Z 10153300 f i NPFriends.obj
 0002:0005a490       ?_Tidy@?$_Tree@V?$_Tmap_traits@V?$basic_string@DU?$char_traits@D@std@@V?$allocator@D@2@@std@@V12@U?$less@V?$basic_string@DU?$char_traits@D@std@@V?$allocator@D@2@@std@@@2@V?$allocator@U?$pair@$$CBV?$basic_string@DU?$char_traits@D@std@@V?$allocator@D@2@@std@@V12@@std@@@2@$0A@@std@@@std@@IAEXXZ 10153490 f i NPFriends.obj
 0002:0005a4f0       ?add_presence@FriendsSetPresenceMessage@@QAEPAVFriendsPresence@@XZ 101534f0 f i NPFriends.obj
 0002:0005a520       ?advance_past_empty_and_deleted@?$dense_hashtable_const_iterator@U?$pair@$$CB_KUNPFriend@@@std@@_KV?$hash_compare@_KU?$less@_K@std@@@stdext@@USelectKey@?$dense_hash_map@_KUNPFriend@@V?$hash_compare@_KU?$less@_K@std@@@stdext@@U?$equal_to@_K@std@@V?$libc_allocator_with_realloc@U?$pair@$$CB_KUNPFriend@@@std@@@google@@@google@@USetKey@67@U?$equal_to@_K@2@V?$libc_allocator_with_realloc@U?$pair@$$CB_KUNPFriend@@@std@@@7@@google@@QAEXXZ 10153520 f i NPFriends.obj
 0002:0005a5a0       ?advance_past_empty_and_deleted@?$dense_hashtable_iterator@U?$pair@$$CB_KUNPFriend@@@std@@_KV?$hash_compare@_KU?$less@_K@std@@@stdext@@USelectKey@?$dense_hash_map@_KUNPFriend@@V?$hash_compare@_KU?$less@_K@std@@@stdext@@U?$equal_to@_K@std@@V?$libc_allocator_with_realloc@U?$pair@$$CB_KUNPFriend@@@std@@@google@@@google@@USetKey@67@U?$equal_to@_K@2@V?$libc_allocator_with_realloc@U?$pair@$$CB_KUNPFriend@@@std@@@7@@google@@QAEXXZ 101535a0 f i NPFriends.obj
 0002:0005a620       ?allocate@?$_Wrap_alloc@V?$allocator@U?$_Tree_node@U?$pair@$$CBV?$basic_string@DU?$char_traits@D@std@@V?$allocator@D@2@@std@@V12@@std@@PAX@std@@@std@@@std@@QAEPAU?$_Tree_node@U?$pair@$$CBV?$basic_string@DU?$char_traits@D@std@@V?$allocator@D@2@@std@@V12@@std@@PAX@2@I@Z 10153620 f i NPFriends.obj
 0002:0005a650       ?allocate@?$allocator@U?$_Tree_node@U?$pair@$$CBV?$basic_string@DU?$char_traits@D@std@@V?$allocator@D@2@@std@@V12@@std@@PAX@std@@@std@@QAEPAU?$_Tree_node@U?$pair@$$CBV?$basic_string@DU?$char_traits@D@std@@V?$allocator@D@2@@std@@V12@@std@@PAX@2@I@Z 10153650 f i NPFriends.obj
 0002:0005a680       ?allocate@?$libc_allocator_with_realloc@U?$pair@$$CB_KUNPFriend@@@std@@@google@@QAEPAU?$pair@$$CB_KUNPFriend@@@std@@IPBU34@@Z 10153680 f i NPFriends.obj
 0002:0005a6b0       ?begin@?$_Tree@V?$_Tmap_traits@V?$basic_string@DU?$char_traits@D@std@@V?$allocator@D@2@@std@@V12@U?$less@V?$basic_string@DU?$char_traits@D@std@@V?$allocator@D@2@@std@@@2@V?$allocator@U?$pair@$$CBV?$basic_string@DU?$char_traits@D@std@@V?$allocator@D@2@@std@@V12@@std@@@2@$0A@@std@@@std@@QAE?AV?$_Tree_iterator@V?$_Tree_val@U?$_Tree_simple_types@U?$pair@$$CBV?$basic_string@DU?$char_traits@D@std@@V?$allocator@D@2@@std@@V12@@std@@@std@@@std@@@2@XZ 101536b0 f i NPFriends.obj
 0002:0005a6f0       ?begin@?$dense_hashtable@U?$pair@$$CB_KUNPFriend@@@std@@_KV?$hash_compare@_KU?$less@_K@std@@@stdext@@USelectKey@?$dense_hash_map@_KUNPFriend@@V?$hash_compare@_KU?$less@_K@std@@@stdext@@U?$equal_to@_K@std@@V?$libc_allocator_with_realloc@U?$pair@$$CB_KUNPFriend@@@std@@@google@@@google@@USetKey@67@U?$equal_to@_K@2@V?$libc_allocator_with_realloc@U?$pair@$$CB_KUNPFriend@@@std@@@7@@google@@QBE?AU?$dense_hashtable_const_iterator@U?$pair@$$CB_KUNPFriend@@@std@@_KV?$hash_compare@_KU?$less@_K@std@@@stdext@@USelectKey@?$dense_hash_map@_KUNPFriend@@V?$hash_compare@_KU?$less@_K@std@@@stdext@@U?$equal_to@_K@std@@V?$libc_allocator_with_realloc@U?$pair@$$CB_KUNPFriend@@@std@@@google@@@google@@USetKey@67@U?$equal_to@_K@2@V?$libc_allocator_with_realloc@U?$pair@$$CB_KUNPFriend@@@std@@@7@@2@XZ 101536f0 f i NPFriends.obj
 0002:0005a750       ?bucket_count@?$dense_hashtable@U?$pair@$$CB_KUNPFriend@@@std@@_KV?$hash_compare@_KU?$less@_K@std@@@stdext@@USelectKey@?$dense_hash_map@_KUNPFriend@@V?$hash_compare@_KU?$less@_K@std@@@stdext@@U?$equal_to@_K@std@@V?$libc_allocator_with_realloc@U?$pair@$$CB_KUNPFriend@@@std@@@google@@@google@@USetKey@67@U?$equal_to@_K@2@V?$libc_allocator_with_realloc@U?$pair@$$CB_KUNPFriend@@@std@@@7@@google@@QBEIXZ 10153750 f i NPFriends.obj
 0002:0005a770       ?clear@?$_Tree@V?$_Tmap_traits@V?$basic_string@DU?$char_traits@D@std@@V?$allocator@D@2@@std@@V12@U?$less@V?$basic_string@DU?$char_traits@D@std@@V?$allocator@D@2@@std@@@2@V?$allocator@U?$pair@$$CBV?$basic_string@DU?$char_traits@D@std@@V?$allocator@D@2@@std@@V12@@std@@@2@$0A@@std@@@std@@QAEXXZ 10153770 f i NPFriends.obj
 0002:0005a7f0       ?clear@?$dense_hash_map@_KUNPFriend@@V?$hash_compare@_KU?$less@_K@std@@@stdext@@U?$equal_to@_K@std@@V?$libc_allocator_with_realloc@U?$pair@$$CB_KUNPFriend@@@std@@@google@@@google@@QAEXXZ 101537f0 f i NPFriends.obj
 0002:0005a820       ?clear@?$dense_hashtable@U?$pair@$$CB_KUNPFriend@@@std@@_KV?$hash_compare@_KU?$less@_K@std@@@stdext@@USelectKey@?$dense_hash_map@_KUNPFriend@@V?$hash_compare@_KU?$less@_K@std@@@stdext@@U?$equal_to@_K@std@@V?$libc_allocator_with_realloc@U?$pair@$$CB_KUNPFriend@@@std@@@google@@@google@@USetKey@67@U?$equal_to@_K@2@V?$libc_allocator_with_realloc@U?$pair@$$CB_KUNPFriend@@@std@@@7@@google@@QAEXXZ 10153820 f i NPFriends.obj
 0002:0005a880       ?clear_deleted@?$dense_hashtable@U?$pair@$$CB_KUNPFriend@@@std@@_KV?$hash_compare@_KU?$less@_K@std@@@stdext@@USelectKey@?$dense_hash_map@_KUNPFriend@@V?$hash_compare@_KU?$less@_K@std@@@stdext@@U?$equal_to@_K@std@@V?$libc_allocator_with_realloc@U?$pair@$$CB_KUNPFriend@@@std@@@google@@@google@@USetKey@67@U?$equal_to@_K@2@V?$libc_allocator_with_realloc@U?$pair@$$CB_KUNPFriend@@@std@@@7@@google@@AAE_NAAU?$dense_hashtable_const_iterator@U?$pair@$$CB_KUNPFriend@@@std@@_KV?$hash_compare@_KU?$less@_K@std@@@stdext@@USelectKey@?$dense_hash_map@_KUNPFriend@@V?$hash_compare@_KU?$less@_K@std@@@stdext@@U?$equal_to@_K@std@@V?$libc_allocator_with_realloc@U?$pair@$$CB_KUNPFriend@@@std@@@google@@@google@@USetKey@67@U?$equal_to@_K@2@V?$libc_allocator_with_realloc@U?$pair@$$CB_KUNPFriend@@@std@@@7@@2@@Z 10153880 f i NPFriends.obj
 0002:0005a8b0       ?clear_to_size@?$dense_hashtable@U?$pair@$$CB_KUNPFriend@@@std@@_KV?$hash_compare@_KU?$less@_K@std@@@stdext@@USelectKey@?$dense_hash_map@_KUNPFriend@@V?$hash_compare@_KU?$less@_K@std@@@stdext@@U?$equal_to@_K@std@@V?$libc_allocator_with_realloc@U?$pair@$$CB_KUNPFriend@@@std@@@google@@@google@@USetKey@67@U?$equal_to@_K@2@V?$libc_allocator_with_realloc@U?$pair@$$CB_KUNPFriend@@@std@@@7@@google@@AAEXI@Z 101538b0 f i NPFriends.obj
 0002:0005a9b0       ?compare@?$basic_string@DU?$char_traits@D@std@@V?$allocator@D@2@@std@@QBEHABV12@@Z 101539b0 f i NPFriends.obj
 0002:0005aa00       ?compare@?$basic_string@DU?$char_traits@D@std@@V?$allocator@D@2@@std@@QBEHIIPBDI@Z 10153a00 f i NPFriends.obj
 0002:0005aaf0       ?consider_shrink@?$sh_hashtable_settings@_KV?$hash_compare@_KU?$less@_K@std@@@stdext@@I$03@@QBE_NXZ 10153af0 f i NPFriends.obj
 0002:0005ab10       ?copy_from@?$dense_hashtable@U?$pair@$$CB_KUNPFriend@@@std@@_KV?$hash_compare@_KU?$less@_K@std@@@stdext@@USelectKey@?$dense_hash_map@_KUNPFriend@@V?$hash_compare@_KU?$less@_K@std@@@stdext@@U?$equal_to@_K@std@@V?$libc_allocator_with_realloc@U?$pair@$$CB_KUNPFriend@@@std@@@google@@@google@@USetKey@67@U?$equal_to@_K@2@V?$libc_allocator_with_realloc@U?$pair@$$CB_KUNPFriend@@@std@@@7@@google@@AAEXABV12@I@Z 10153b10 f i NPFriends.obj
 0002:0005ac60       ?current_server@FriendsRosterMessage_FriendDetails@@QBEABV?$basic_string@DU?$char_traits@D@std@@V?$allocator@D@2@@std@@XZ 10153c60 f i NPFriends.obj
 0002:0005ac80       ?deallocate@?$_Wrap_alloc@V?$allocator@U?$_Tree_node@U?$pair@$$CBV?$basic_string@DU?$char_traits@D@std@@V?$allocator@D@2@@std@@V12@@std@@PAX@std@@@std@@@std@@QAEXPAU?$_Tree_node@U?$pair@$$CBV?$basic_string@DU?$char_traits@D@std@@V?$allocator@D@2@@std@@V12@@std@@PAX@2@I@Z 10153c80 f i NPFriends.obj
 0002:0005acb0       ?deallocate@?$allocator@U?$_Tree_node@U?$pair@$$CBV?$basic_string@DU?$char_traits@D@std@@V?$allocator@D@2@@std@@V12@@std@@PAX@std@@@std@@QAEXPAU?$_Tree_node@U?$pair@$$CBV?$basic_string@DU?$char_traits@D@std@@V?$allocator@D@2@@std@@V12@@std@@PAX@2@I@Z 10153cb0 f i NPFriends.obj
 0002:0005ace0       ?deallocate@?$libc_allocator_with_realloc@U?$pair@$$CB_KUNPFriend@@@std@@@google@@QAEXPAU?$pair@$$CB_KUNPFriend@@@std@@I@Z 10153ce0 f i NPFriends.obj
 0002:0005ad10       ?destroy_buckets@?$dense_hashtable@U?$pair@$$CB_KUNPFriend@@@std@@_KV?$hash_compare@_KU?$less@_K@std@@@stdext@@USelectKey@?$dense_hash_map@_KUNPFriend@@V?$hash_compare@_KU?$less@_K@std@@@stdext@@U?$equal_to@_K@std@@V?$libc_allocator_with_realloc@U?$pair@$$CB_KUNPFriend@@@std@@@google@@@google@@USetKey@67@U?$equal_to@_K@2@V?$libc_allocator_with_realloc@U?$pair@$$CB_KUNPFriend@@@std@@@7@@google@@AAEXII@Z 10153d10 f i NPFriends.obj
 0002:0005ad50       ?end@?$_Tree@V?$_Tmap_traits@V?$basic_string@DU?$char_traits@D@std@@V?$allocator@D@2@@std@@V12@U?$less@V?$basic_string@DU?$char_traits@D@std@@V?$allocator@D@2@@std@@@2@V?$allocator@U?$pair@$$CBV?$basic_string@DU?$char_traits@D@std@@V?$allocator@D@2@@std@@V12@@std@@@2@$0A@@std@@@std@@QAE?AV?$_Tree_iterator@V?$_Tree_val@U?$_Tree_simple_types@U?$pair@$$CBV?$basic_string@DU?$char_traits@D@std@@V?$allocator@D@2@@std@@V12@@std@@@std@@@std@@@2@XZ 10153d50 f i NPFriends.obj
 0002:0005ad90       ?end@?$dense_hashtable@U?$pair@$$CB_KUNPFriend@@@std@@_KV?$hash_compare@_KU?$less@_K@std@@@stdext@@USelectKey@?$dense_hash_map@_KUNPFriend@@V?$hash_compare@_KU?$less@_K@std@@@stdext@@U?$equal_to@_K@std@@V?$libc_allocator_with_realloc@U?$pair@$$CB_KUNPFriend@@@std@@@google@@@google@@USetKey@67@U?$equal_to@_K@2@V?$libc_allocator_with_realloc@U?$pair@$$CB_KUNPFriend@@@std@@@7@@google@@QBE?AU?$dense_hashtable_const_iterator@U?$pair@$$CB_KUNPFriend@@@std@@_KV?$hash_compare@_KU?$less@_K@std@@@stdext@@USelectKey@?$dense_hash_map@_KUNPFriend@@V?$hash_compare@_KU?$less@_K@std@@@stdext@@U?$equal_to@_K@std@@V?$libc_allocator_with_realloc@U?$pair@$$CB_KUNPFriend@@@std@@@google@@@google@@USetKey@67@U?$equal_to@_K@2@V?$libc_allocator_with_realloc@U?$pair@$$CB_KUNPFriend@@@std@@@7@@2@XZ 10153d90 f i NPFriends.obj
 0002:0005ae00       ?enlarge_factor@?$sh_hashtable_settings@_KV?$hash_compare@_KU?$less@_K@std@@@stdext@@I$03@@QBEMXZ 10153e00 f i NPFriends.obj
 0002:0005ae20       ?enlarge_size@?$sh_hashtable_settings@_KV?$hash_compare@_KU?$less@_K@std@@@stdext@@I$03@@QBEII@Z 10153e20 f i NPFriends.obj
 0002:0005ae80       ?enlarge_threshold@?$sh_hashtable_settings@_KV?$hash_compare@_KU?$less@_K@std@@@stdext@@I$03@@QBEIXZ 10153e80 f i NPFriends.obj
 0002:0005aea0       ?equal_range@?$_Tree@V?$_Tmap_traits@V?$basic_string@DU?$char_traits@D@std@@V?$allocator@D@2@@std@@V12@U?$less@V?$basic_string@DU?$char_traits@D@std@@V?$allocator@D@2@@std@@@2@V?$allocator@U?$pair@$$CBV?$basic_string@DU?$char_traits@D@std@@V?$allocator@D@2@@std@@V12@@std@@@2@$0A@@std@@@std@@QAE?AU?$pair@V?$_Tree_iterator@V?$_Tree_val@U?$_Tree_simple_types@U?$pair@$$CBV?$basic_string@DU?$char_traits@D@std@@V?$allocator@D@2@@std@@V12@@std@@@std@@@std@@@std@@V12@@2@ABV?$basic_string@DU?$char_traits@D@std@@V?$allocator@D@2@@2@@Z 10153ea0 f i NPFriends.obj
 0002:0005aee0       ?equals@?$dense_hashtable@U?$pair@$$CB_KUNPFriend@@@std@@_KV?$hash_compare@_KU?$less@_K@std@@@stdext@@USelectKey@?$dense_hash_map@_KUNPFriend@@V?$hash_compare@_KU?$less@_K@std@@@stdext@@U?$equal_to@_K@std@@V?$libc_allocator_with_realloc@U?$pair@$$CB_KUNPFriend@@@std@@@google@@@google@@USetKey@67@U?$equal_to@_K@2@V?$libc_allocator_with_realloc@U?$pair@$$CB_KUNPFriend@@@std@@@7@@google@@ABE_NAB_K0@Z 10153ee0 f i NPFriends.obj
 0002:0005af20       ?equals@KeyInfo@?$dense_hashtable@U?$pair@$$CB_KUNPFriend@@@std@@_KV?$hash_compare@_KU?$less@_K@std@@@stdext@@USelectKey@?$dense_hash_map@_KUNPFriend@@V?$hash_compare@_KU?$less@_K@std@@@stdext@@U?$equal_to@_K@std@@V?$libc_allocator_with_realloc@U?$pair@$$CB_KUNPFriend@@@std@@@google@@@google@@USetKey@67@U?$equal_to@_K@2@V?$libc_allocator_with_realloc@U?$pair@$$CB_KUNPFriend@@@std@@@7@@google@@QBE_NAB_K0@Z 10153f20 f i NPFriends.obj
 0002:0005af60       ?erase@?$_Tree@V?$_Tmap_traits@V?$basic_string@DU?$char_traits@D@std@@V?$allocator@D@2@@std@@V12@U?$less@V?$basic_string@DU?$char_traits@D@std@@V?$allocator@D@2@@std@@@2@V?$allocator@U?$pair@$$CBV?$basic_string@DU?$char_traits@D@std@@V?$allocator@D@2@@std@@V12@@std@@@2@$0A@@std@@@std@@QAE?AV?$_Tree_iterator@V?$_Tree_val@U?$_Tree_simple_types@U?$pair@$$CBV?$basic_string@DU?$char_traits@D@std@@V?$allocator@D@2@@std@@V12@@std@@@std@@@std@@@2@V?$_Tree_const_iterator@V?$_Tree_val@U?$_Tree_simple_types@U?$pair@$$CBV?$basic_string@DU?$char_traits@D@std@@V?$allocator@D@2@@std@@V12@@std@@@std@@@std@@@2@0@Z 10153f60 f i NPFriends.obj
 0002:0005b040       ?erase@?$_Tree@V?$_Tmap_traits@V?$basic_string@DU?$char_traits@D@std@@V?$allocator@D@2@@std@@V12@U?$less@V?$basic_string@DU?$char_traits@D@std@@V?$allocator@D@2@@std@@@2@V?$allocator@U?$pair@$$CBV?$basic_string@DU?$char_traits@D@std@@V?$allocator@D@2@@std@@V12@@std@@@2@$0A@@std@@@std@@QAE?AV?$_Tree_iterator@V?$_Tree_val@U?$_Tree_simple_types@U?$pair@$$CBV?$basic_string@DU?$char_traits@D@std@@V?$allocator@D@2@@std@@V12@@std@@@std@@@std@@@2@V?$_Tree_const_iterator@V?$_Tree_val@U?$_Tree_simple_types@U?$pair@$$CBV?$basic_string@DU?$char_traits@D@std@@V?$allocator@D@2@@std@@V12@@std@@@std@@@std@@@2@@Z 10154040 f i NPFriends.obj
 0002:0005b9a0       ?erase@?$_Tree@V?$_Tmap_traits@V?$basic_string@DU?$char_traits@D@std@@V?$allocator@D@2@@std@@V12@U?$less@V?$basic_string@DU?$char_traits@D@std@@V?$allocator@D@2@@std@@@2@V?$allocator@U?$pair@$$CBV?$basic_string@DU?$char_traits@D@std@@V?$allocator@D@2@@std@@V12@@std@@@2@$0A@@std@@@std@@QAEIABV?$basic_string@DU?$char_traits@D@std@@V?$allocator@D@2@@2@@Z 101549a0 f i NPFriends.obj
 0002:0005ba20       ?filedata@FriendsGetUserAvatarResultMessage@@QBEABV?$basic_string@DU?$char_traits@D@std@@V?$allocator@D@2@@std@@XZ 10154a20 f i NPFriends.obj
 0002:0005ba40       ?fill_range_with_empty@?$dense_hashtable@U?$pair@$$CB_KUNPFriend@@@std@@_KV?$hash_compare@_KU?$less@_K@std@@@stdext@@USelectKey@?$dense_hash_map@_KUNPFriend@@V?$hash_compare@_KU?$less@_K@std@@@stdext@@U?$equal_to@_K@std@@V?$libc_allocator_with_realloc@U?$pair@$$CB_KUNPFriend@@@std@@@google@@@google@@USetKey@67@U?$equal_to@_K@2@V?$libc_allocator_with_realloc@U?$pair@$$CB_KUNPFriend@@@std@@@7@@google@@AAEXPAU?$pair@$$CB_KUNPFriend@@@std@@0@Z 10154a40 f i NPFriends.obj
 0002:0005ba80       ?find_position@?$dense_hashtable@U?$pair@$$CB_KUNPFriend@@@std@@_KV?$hash_compare@_KU?$less@_K@std@@@stdext@@USelectKey@?$dense_hash_map@_KUNPFriend@@V?$hash_compare@_KU?$less@_K@std@@@stdext@@U?$equal_to@_K@std@@V?$libc_allocator_with_realloc@U?$pair@$$CB_KUNPFriend@@@std@@@google@@@google@@USetKey@67@U?$equal_to@_K@2@V?$libc_allocator_with_realloc@U?$pair@$$CB_KUNPFriend@@@std@@@7@@google@@ABE?AU?$pair@II@std@@AB_K@Z 10154a80 f i NPFriends.obj
 0002:0005bbf0       ?friends@FriendsRosterMessage@@QBEABVFriendsRosterMessage_FriendDetails@@H@Z 10154bf0 f i NPFriends.obj
 0002:0005bc20       ?friends_size@FriendsRosterMessage@@QBEHXZ 10154c20 f i NPFriends.obj
 0002:0005bc50       ?game@FriendsRosterMessage_FriendDetails@@QBEABV?$basic_string@DU?$char_traits@D@std@@V?$allocator@D@2@@std@@XZ 10154c50 f i NPFriends.obj
 0002:0005bc70       ?get_key@?$dense_hashtable@U?$pair@$$CB_KUNPFriend@@@std@@_KV?$hash_compare@_KU?$less@_K@std@@@stdext@@USelectKey@?$dense_hash_map@_KUNPFriend@@V?$hash_compare@_KU?$less@_K@std@@@stdext@@U?$equal_to@_K@std@@V?$libc_allocator_with_realloc@U?$pair@$$CB_KUNPFriend@@@std@@@google@@@google@@USetKey@67@U?$equal_to@_K@2@V?$libc_allocator_with_realloc@U?$pair@$$CB_KUNPFriend@@@std@@@7@@google@@ABEAB_KABU?$pair@$$CB_KUNPFriend@@@std@@@Z 10154c70 f i NPFriends.obj
 0002:0005bca0       ?get_key@KeyInfo@?$dense_hashtable@U?$pair@$$CB_KUNPFriend@@@std@@_KV?$hash_compare@_KU?$less@_K@std@@@stdext@@USelectKey@?$dense_hash_map@_KUNPFriend@@V?$hash_compare@_KU?$less@_K@std@@@stdext@@U?$equal_to@_K@std@@V?$libc_allocator_with_realloc@U?$pair@$$CB_KUNPFriend@@@std@@@google@@@google@@USetKey@67@U?$equal_to@_K@2@V?$libc_allocator_with_realloc@U?$pair@$$CB_KUNPFriend@@@std@@@7@@google@@QBEAB_KABU?$pair@$$CB_KUNPFriend@@@std@@@Z 10154ca0 f i NPFriends.obj
 0002:0005bcd0       ?guid@FriendsGetUserAvatarResultMessage@@QBEHXZ 10154cd0 f i NPFriends.obj
 0002:0005bcf0       ?hash@?$dense_hashtable@U?$pair@$$CB_KUNPFriend@@@std@@_KV?$hash_compare@_KU?$less@_K@std@@@stdext@@USelectKey@?$dense_hash_map@_KUNPFriend@@V?$hash_compare@_KU?$less@_K@std@@@stdext@@U?$equal_to@_K@std@@V?$libc_allocator_with_realloc@U?$pair@$$CB_KUNPFriend@@@std@@@google@@@google@@USetKey@67@U?$equal_to@_K@2@V?$libc_allocator_with_realloc@U?$pair@$$CB_KUNPFriend@@@std@@@7@@google@@ABEIAB_K@Z 10154cf0 f i NPFriends.obj
 0002:0005bd20       ?hash@?$sh_hashtable_settings@_KV?$hash_compare@_KU?$less@_K@std@@@stdext@@I$03@@QBEIAB_K@Z 10154d20 f i NPFriends.obj
 0002:0005bd50       ?hostname@FriendsRosterMessage_FriendDetails@@QBEABV?$basic_string@DU?$char_traits@D@std@@V?$allocator@D@2@@std@@XZ 10154d50 f i NPFriends.obj
 0002:0005bd70       ?id@FriendsRosterMessage_FriendDetails@@QBEHXZ 10154d70 f i NPFriends.obj
 0002:0005bd90       ?inc_num_ht_copies@?$sh_hashtable_settings@_KV?$hash_compare@_KU?$less@_K@std@@@stdext@@I$03@@QAEXXZ 10154d90 f i NPFriends.obj
 0002:0005bdc0       ?insert_at@?$dense_hashtable@U?$pair@$$CB_KUNPFriend@@@std@@_KV?$hash_compare@_KU?$less@_K@std@@@stdext@@USelectKey@?$dense_hash_map@_KUNPFriend@@V?$hash_compare@_KU?$less@_K@std@@@stdext@@U?$equal_to@_K@std@@V?$libc_allocator_with_realloc@U?$pair@$$CB_KUNPFriend@@@std@@@google@@@google@@USetKey@67@U?$equal_to@_K@2@V?$libc_allocator_with_realloc@U?$pair@$$CB_KUNPFriend@@@std@@@7@@google@@AAE?AU?$dense_hashtable_iterator@U?$pair@$$CB_KUNPFriend@@@std@@_KV?$hash_compare@_KU?$less@_K@std@@@stdext@@USelectKey@?$dense_hash_map@_KUNPFriend@@V?$hash_compare@_KU?$less@_K@std@@@stdext@@U?$equal_to@_K@std@@V?$libc_allocator_with_realloc@U?$pair@$$CB_KUNPFriend@@@std@@@google@@@google@@USetKey@67@U?$equal_to@_K@2@V?$libc_allocator_with_realloc@U?$pair@$$CB_KUNPFriend@@@std@@@7@@2@ABU?$pair@$$CB_KUNPFriend@@@std@@I@Z 10154dc0 f i NPFriends.obj
 0002:0005bf10       ?insert_noresize@?$dense_hashtable@U?$pair@$$CB_KUNPFriend@@@std@@_KV?$hash_compare@_KU?$less@_K@std@@@stdext@@USelectKey@?$dense_hash_map@_KUNPFriend@@V?$hash_compare@_KU?$less@_K@std@@@stdext@@U?$equal_to@_K@std@@V?$libc_allocator_with_realloc@U?$pair@$$CB_KUNPFriend@@@std@@@google@@@google@@USetKey@67@U?$equal_to@_K@2@V?$libc_allocator_with_realloc@U?$pair@$$CB_KUNPFriend@@@std@@@7@@google@@AAE?AU?$pair@U?$dense_hashtable_iterator@U?$pair@$$CB_KUNPFriend@@@std@@_KV?$hash_compare@_KU?$less@_K@std@@@stdext@@USelectKey@?$dense_hash_map@_KUNPFriend@@V?$hash_compare@_KU?$less@_K@std@@@stdext@@U?$equal_to@_K@std@@V?$libc_allocator_with_realloc@U?$pair@$$CB_KUNPFriend@@@std@@@google@@@google@@USetKey@67@U?$equal_to@_K@2@V?$libc_allocator_with_realloc@U?$pair@$$CB_KUNPFriend@@@std@@@7@@google@@_N@std@@ABU?$pair@$$CB_KUNPFriend@@@4@@Z 10154f10 f i NPFriends.obj
 0002:0005bfe0       ?isonline@FriendsRosterMessage_FriendDetails@@QBEHXZ 10154fe0 f i NPFriends.obj
 0002:0005c000       ?lower_bound@?$_Tree@V?$_Tmap_traits@V?$basic_string@DU?$char_traits@D@std@@V?$allocator@D@2@@std@@V12@U?$less@V?$basic_string@DU?$char_traits@D@std@@V?$allocator@D@2@@std@@@2@V?$allocator@U?$pair@$$CBV?$basic_string@DU?$char_traits@D@std@@V?$allocator@D@2@@std@@V12@@std@@@2@$0A@@std@@@std@@QAE?AV?$_Tree_iterator@V?$_Tree_val@U?$_Tree_simple_types@U?$pair@$$CBV?$basic_string@DU?$char_traits@D@std@@V?$allocator@D@2@@std@@V12@@std@@@std@@@std@@@2@ABV?$basic_string@DU?$char_traits@D@std@@V?$allocator@D@2@@2@@Z 10155000 f i NPFriends.obj
 0002:0005c040       ?max@?$numeric_limits@I@std@@SAIXZ 10155040 f i NPFriends.obj
 0002:0005c060       ?max_size@?$_Tree@V?$_Tmap_traits@V?$basic_string@DU?$char_traits@D@std@@V?$allocator@D@2@@std@@V12@U?$less@V?$basic_string@DU?$char_traits@D@std@@V?$allocator@D@2@@std@@@2@V?$allocator@U?$pair@$$CBV?$basic_string@DU?$char_traits@D@std@@V?$allocator@D@2@@std@@V12@@std@@@2@$0A@@std@@@std@@QBEIXZ 10155060 f i NPFriends.obj
 0002:0005c090       ?max_size@?$_Wrap_alloc@V?$allocator@U?$_Tree_node@U?$pair@$$CBV?$basic_string@DU?$char_traits@D@std@@V?$allocator@D@2@@std@@V12@@std@@PAX@std@@@std@@@std@@QBEIXZ 10155090 f i NPFriends.obj
 0002:0005c0c0       ?max_size@?$allocator@U?$_Tree_node@U?$pair@$$CBV?$basic_string@DU?$char_traits@D@std@@V?$allocator@D@2@@std@@V12@@std@@PAX@std@@@std@@QBEIXZ 101550c0 f i NPFriends.obj
 0002:0005c0e0       ?max_size@?$allocator_traits@V?$allocator@U?$_Tree_node@U?$pair@$$CBV?$basic_string@DU?$char_traits@D@std@@V?$allocator@D@2@@std@@V12@@std@@PAX@std@@@std@@@std@@SAIABV?$allocator@U?$_Tree_node@U?$pair@$$CBV?$basic_string@DU?$char_traits@D@std@@V?$allocator@D@2@@std@@V12@@std@@PAX@std@@@2@@Z 101550e0 f i NPFriends.obj
 0002:0005c100       ?max_size@?$dense_hashtable@U?$pair@$$CB_KUNPFriend@@@std@@_KV?$hash_compare@_KU?$less@_K@std@@@stdext@@USelectKey@?$dense_hash_map@_KUNPFriend@@V?$hash_compare@_KU?$less@_K@std@@@stdext@@U?$equal_to@_K@std@@V?$libc_allocator_with_realloc@U?$pair@$$CB_KUNPFriend@@@std@@@google@@@google@@USetKey@67@U?$equal_to@_K@2@V?$libc_allocator_with_realloc@U?$pair@$$CB_KUNPFriend@@@std@@@7@@google@@QBEIXZ 10155100 f i NPFriends.obj
 0002:0005c130       ?max_size@?$libc_allocator_with_realloc@U?$pair@$$CB_KUNPFriend@@@std@@@google@@QBEIXZ 10155130 f i NPFriends.obj
 0002:0005c150       ?maybe_shrink@?$dense_hashtable@U?$pair@$$CB_KUNPFriend@@@std@@_KV?$hash_compare@_KU?$less@_K@std@@@stdext@@USelectKey@?$dense_hash_map@_KUNPFriend@@V?$hash_compare@_KU?$less@_K@std@@@stdext@@U?$equal_to@_K@std@@V?$libc_allocator_with_realloc@U?$pair@$$CB_KUNPFriend@@@std@@@google@@@google@@USetKey@67@U?$equal_to@_K@2@V?$libc_allocator_with_realloc@U?$pair@$$CB_KUNPFriend@@@std@@@7@@google@@AAE_NXZ 10155150 f i NPFriends.obj
 0002:0005c330       ?min_buckets@?$sh_hashtable_settings@_KV?$hash_compare@_KU?$less@_K@std@@@stdext@@I$03@@QAEIII@Z 10155330 f i NPFriends.obj
 0002:0005c3f0       ?pointer_to@?$pointer_traits@PAU?$pair@$$CBV?$basic_string@DU?$char_traits@D@std@@V?$allocator@D@2@@std@@V12@@std@@@std@@SAPAU?$pair@$$CBV?$basic_string@DU?$char_traits@D@std@@V?$allocator@D@2@@std@@V12@@2@AAU32@@Z 101553f0 f i NPFriends.obj
 0002:0005c420       ?realloc_or_die@?$alloc_impl@V?$libc_allocator_with_realloc@U?$pair@$$CB_KUNPFriend@@@std@@@google@@@?$dense_hashtable@U?$pair@$$CB_KUNPFriend@@@std@@_KV?$hash_compare@_KU?$less@_K@std@@@stdext@@USelectKey@?$dense_hash_map@_KUNPFriend@@V?$hash_compare@_KU?$less@_K@std@@@stdext@@U?$equal_to@_K@std@@V?$libc_allocator_with_realloc@U?$pair@$$CB_KUNPFriend@@@std@@@google@@@google@@USetKey@67@U?$equal_to@_K@2@V?$libc_allocator_with_realloc@U?$pair@$$CB_KUNPFriend@@@std@@@7@@google@@QAEPAU?$pair@$$CB_KUNPFriend@@@std@@PAU45@I@Z 10155420 f i NPFriends.obj
 0002:0005c4a0       ?reallocate@?$libc_allocator_with_realloc@U?$pair@$$CB_KUNPFriend@@@std@@@google@@QAEPAU?$pair@$$CB_KUNPFriend@@@std@@PAU34@I@Z 101554a0 f i NPFriends.obj
 0002:0005c4e0       ?reset_thresholds@?$sh_hashtable_settings@_KV?$hash_compare@_KU?$less@_K@std@@@stdext@@I$03@@QAEXI@Z 101554e0 f i NPFriends.obj
 0002:0005c540       ?resize_delta@?$dense_hashtable@U?$pair@$$CB_KUNPFriend@@@std@@_KV?$hash_compare@_KU?$less@_K@std@@@stdext@@USelectKey@?$dense_hash_map@_KUNPFriend@@V?$hash_compare@_KU?$less@_K@std@@@stdext@@U?$equal_to@_K@std@@V?$libc_allocator_with_realloc@U?$pair@$$CB_KUNPFriend@@@std@@@google@@@google@@USetKey@67@U?$equal_to@_K@2@V?$libc_allocator_with_realloc@U?$pair@$$CB_KUNPFriend@@@std@@@7@@google@@AAE_NI@Z 10155540 f i NPFriends.obj
 0002:0005c760       ?resize_table@?$dense_hashtable@U?$pair@$$CB_KUNPFriend@@@std@@_KV?$hash_compare@_KU?$less@_K@std@@@stdext@@USelectKey@?$dense_hash_map@_KUNPFriend@@V?$hash_compare@_KU?$less@_K@std@@@stdext@@U?$equal_to@_K@std@@V?$libc_allocator_with_realloc@U?$pair@$$CB_KUNPFriend@@@std@@@google@@@google@@USetKey@67@U?$equal_to@_K@2@V?$libc_allocator_with_realloc@U?$pair@$$CB_KUNPFriend@@@std@@@7@@google@@AAEXIIU?$integral_constant@_N$00@2@@Z 10155760 f i NPFriends.obj
 0002:0005c7b0       ?result@FriendsGetUserAvatarResultMessage@@QBEHXZ 101557b0 f i NPFriends.obj
 0002:0005c7d0       ?result@FriendsRosterMessage@@QBEHXZ 101557d0 f i NPFriends.obj
 0002:0005c7f0       ?set_consider_shrink@?$sh_hashtable_settings@_KV?$hash_compare@_KU?$less@_K@std@@@stdext@@I$03@@QAEX_N@Z 101557f0 f i NPFriends.obj
 0002:0005c820       ?set_empty_key@?$dense_hash_map@_KUNPFriend@@V?$hash_compare@_KU?$less@_K@std@@@stdext@@U?$equal_to@_K@std@@V?$libc_allocator_with_realloc@U?$pair@$$CB_KUNPFriend@@@std@@@google@@@google@@QAEXAB_K@Z 10155820 f i NPFriends.obj
 0002:0005c8a0       ?set_empty_key@?$dense_hashtable@U?$pair@$$CB_KUNPFriend@@@std@@_KV?$hash_compare@_KU?$less@_K@std@@@stdext@@USelectKey@?$dense_hash_map@_KUNPFriend@@V?$hash_compare@_KU?$less@_K@std@@@stdext@@U?$equal_to@_K@std@@V?$libc_allocator_with_realloc@U?$pair@$$CB_KUNPFriend@@@std@@@google@@@google@@USetKey@67@U?$equal_to@_K@2@V?$libc_allocator_with_realloc@U?$pair@$$CB_KUNPFriend@@@std@@@7@@google@@QAEXABU?$pair@$$CB_KUNPFriend@@@std@@@Z 101558a0 f i NPFriends.obj
 0002:0005c940       ?set_enlarge_factor@?$sh_hashtable_settings@_KV?$hash_compare@_KU?$less@_K@std@@@stdext@@I$03@@QAEXM@Z 10155940 f i NPFriends.obj
 0002:0005c970       ?set_enlarge_threshold@?$sh_hashtable_settings@_KV?$hash_compare@_KU?$less@_K@std@@@stdext@@I$03@@QAEXI@Z 10155970 f i NPFriends.obj
 0002:0005c9a0       ?set_guid@FriendsGetUserAvatarMessage@@QAEXH@Z 101559a0 f i NPFriends.obj
 0002:0005c9d0       ?set_has_guid@FriendsGetUserAvatarMessage@@AAEXXZ 101559d0 f i NPFriends.obj
 0002:0005ca20       ?set_has_key@FriendsPresence@@AAEXXZ 10155a20 f i NPFriends.obj
 0002:0005ca70       ?set_has_value@FriendsPresence@@AAEXXZ 10155a70 f i NPFriends.obj
 0002:0005cac0       ?set_key@FriendsPresence@@QAEXABV?$basic_string@DU?$char_traits@D@std@@V?$allocator@D@2@@std@@@Z 10155ac0 f i NPFriends.obj
 0002:0005cb90       ?set_key@FriendsPresence@@QAEXPBD@Z 10155b90 f i NPFriends.obj
 0002:0005cc60       ?set_shrink_factor@?$sh_hashtable_settings@_KV?$hash_compare@_KU?$less@_K@std@@@stdext@@I$03@@QAEXM@Z 10155c60 f i NPFriends.obj
 0002:0005cc90       ?set_shrink_threshold@?$sh_hashtable_settings@_KV?$hash_compare@_KU?$less@_K@std@@@stdext@@I$03@@QAEXI@Z 10155c90 f i NPFriends.obj
 0002:0005ccc0       ?set_use_empty@?$sh_hashtable_settings@_KV?$hash_compare@_KU?$less@_K@std@@@stdext@@I$03@@QAEX_N@Z 10155cc0 f i NPFriends.obj
 0002:0005ccf0       ?set_value@?$dense_hashtable@U?$pair@$$CB_KUNPFriend@@@std@@_KV?$hash_compare@_KU?$less@_K@std@@@stdext@@USelectKey@?$dense_hash_map@_KUNPFriend@@V?$hash_compare@_KU?$less@_K@std@@@stdext@@U?$equal_to@_K@std@@V?$libc_allocator_with_realloc@U?$pair@$$CB_KUNPFriend@@@std@@@google@@@google@@USetKey@67@U?$equal_to@_K@2@V?$libc_allocator_with_realloc@U?$pair@$$CB_KUNPFriend@@@std@@@7@@google@@AAEXPAU?$pair@$$CB_KUNPFriend@@@std@@ABU34@@Z 10155cf0 f i NPFriends.obj
 0002:0005cd50       ?set_value@FriendsPresence@@QAEXABV?$basic_string@DU?$char_traits@D@std@@V?$allocator@D@2@@std@@@Z 10155d50 f i NPFriends.obj
 0002:0005ce20       ?set_value@FriendsPresence@@QAEXPBD@Z 10155e20 f i NPFriends.obj
 0002:0005cef0       ?shrink_factor@?$sh_hashtable_settings@_KV?$hash_compare@_KU?$less@_K@std@@@stdext@@I$03@@QBEMXZ 10155ef0 f i NPFriends.obj
 0002:0005cf10       ?shrink_size@?$sh_hashtable_settings@_KV?$hash_compare@_KU?$less@_K@std@@@stdext@@I$03@@QBEII@Z 10155f10 f i NPFriends.obj
 0002:0005cf70       ?shrink_threshold@?$sh_hashtable_settings@_KV?$hash_compare@_KU?$less@_K@std@@@stdext@@I$03@@QBEIXZ 10155f70 f i NPFriends.obj
 0002:0005cf90       ?size@?$RepeatedPtrField@VFriendsRosterMessage_FriendDetails@@@protobuf@google@@QBEHXZ 10155f90 f i NPFriends.obj
 0002:0005cfc0       ?size@?$_Tree@V?$_Tmap_traits@V?$basic_string@DU?$char_traits@D@std@@V?$allocator@D@2@@std@@V12@U?$less@V?$basic_string@DU?$char_traits@D@std@@V?$allocator@D@2@@std@@@2@V?$allocator@U?$pair@$$CBV?$basic_string@DU?$char_traits@D@std@@V?$allocator@D@2@@std@@V12@@std@@@2@$0A@@std@@@std@@QBEIXZ 10155fc0 f i NPFriends.obj
 0002:0005cfe0       ?size@?$dense_hashtable@U?$pair@$$CB_KUNPFriend@@@std@@_KV?$hash_compare@_KU?$less@_K@std@@@stdext@@USelectKey@?$dense_hash_map@_KUNPFriend@@V?$hash_compare@_KU?$less@_K@std@@@stdext@@U?$equal_to@_K@std@@V?$libc_allocator_with_realloc@U?$pair@$$CB_KUNPFriend@@@std@@@google@@@google@@USetKey@67@U?$equal_to@_K@2@V?$libc_allocator_with_realloc@U?$pair@$$CB_KUNPFriend@@@std@@@7@@google@@QBEIXZ 10155fe0 f i NPFriends.obj
 0002:0005d010       ?size@RepeatedPtrFieldBase@internal@protobuf@google@@IBEHXZ 10156010 f i NPFriends.obj
 0002:0005d030       ?swap@?$dense_hashtable@U?$pair@$$CB_KUNPFriend@@@std@@_KV?$hash_compare@_KU?$less@_K@std@@@stdext@@USelectKey@?$dense_hash_map@_KUNPFriend@@V?$hash_compare@_KU?$less@_K@std@@@stdext@@U?$equal_to@_K@std@@V?$libc_allocator_with_realloc@U?$pair@$$CB_KUNPFriend@@@std@@@google@@@google@@USetKey@67@U?$equal_to@_K@2@V?$libc_allocator_with_realloc@U?$pair@$$CB_KUNPFriend@@@std@@@7@@google@@QAEXAAV12@@Z 10156030 f i NPFriends.obj
 0002:0005d1a0       ?test_deleted@?$dense_hashtable@U?$pair@$$CB_KUNPFriend@@@std@@_KV?$hash_compare@_KU?$less@_K@std@@@stdext@@USelectKey@?$dense_hash_map@_KUNPFriend@@V?$hash_compare@_KU?$less@_K@std@@@stdext@@U?$equal_to@_K@std@@V?$libc_allocator_with_realloc@U?$pair@$$CB_KUNPFriend@@@std@@@google@@@google@@USetKey@67@U?$equal_to@_K@2@V?$libc_allocator_with_realloc@U?$pair@$$CB_KUNPFriend@@@std@@@7@@google@@QBE_NABU?$dense_hashtable_const_iterator@U?$pair@$$CB_KUNPFriend@@@std@@_KV?$hash_compare@_KU?$less@_K@std@@@stdext@@USelectKey@?$dense_hash_map@_KUNPFriend@@V?$hash_compare@_KU?$less@_K@std@@@stdext@@U?$equal_to@_K@std@@V?$libc_allocator_with_realloc@U?$pair@$$CB_KUNPFriend@@@std@@@google@@@google@@USetKey@67@U?$equal_to@_K@2@V?$libc_allocator_with_realloc@U?$pair@$$CB_KUNPFriend@@@std@@@7@@2@@Z 101561a0 f i NPFriends.obj
 0002:0005d1e0       ?test_deleted@?$dense_hashtable@U?$pair@$$CB_KUNPFriend@@@std@@_KV?$hash_compare@_KU?$less@_K@std@@@stdext@@USelectKey@?$dense_hash_map@_KUNPFriend@@V?$hash_compare@_KU?$less@_K@std@@@stdext@@U?$equal_to@_K@std@@V?$libc_allocator_with_realloc@U?$pair@$$CB_KUNPFriend@@@std@@@google@@@google@@USetKey@67@U?$equal_to@_K@2@V?$libc_allocator_with_realloc@U?$pair@$$CB_KUNPFriend@@@std@@@7@@google@@QBE_NABU?$dense_hashtable_iterator@U?$pair@$$CB_KUNPFriend@@@std@@_KV?$hash_compare@_KU?$less@_K@std@@@stdext@@USelectKey@?$dense_hash_map@_KUNPFriend@@V?$hash_compare@_KU?$less@_K@std@@@stdext@@U?$equal_to@_K@std@@V?$libc_allocator_with_realloc@U?$pair@$$CB_KUNPFriend@@@std@@@google@@@google@@USetKey@67@U?$equal_to@_K@2@V?$libc_allocator_with_realloc@U?$pair@$$CB_KUNPFriend@@@std@@@7@@2@@Z 101561e0 f i NPFriends.obj
 0002:0005d220       ?test_deleted@?$dense_hashtable@U?$pair@$$CB_KUNPFriend@@@std@@_KV?$hash_compare@_KU?$less@_K@std@@@stdext@@USelectKey@?$dense_hash_map@_KUNPFriend@@V?$hash_compare@_KU?$less@_K@std@@@stdext@@U?$equal_to@_K@std@@V?$libc_allocator_with_realloc@U?$pair@$$CB_KUNPFriend@@@std@@@google@@@google@@USetKey@67@U?$equal_to@_K@2@V?$libc_allocator_with_realloc@U?$pair@$$CB_KUNPFriend@@@std@@@7@@google@@QBE_NI@Z 10156220 f i NPFriends.obj
 0002:0005d270       ?test_deleted_key@?$dense_hashtable@U?$pair@$$CB_KUNPFriend@@@std@@_KV?$hash_compare@_KU?$less@_K@std@@@stdext@@USelectKey@?$dense_hash_map@_KUNPFriend@@V?$hash_compare@_KU?$less@_K@std@@@stdext@@U?$equal_to@_K@std@@V?$libc_allocator_with_realloc@U?$pair@$$CB_KUNPFriend@@@std@@@google@@@google@@USetKey@67@U?$equal_to@_K@2@V?$libc_allocator_with_realloc@U?$pair@$$CB_KUNPFriend@@@std@@@7@@google@@ABE_NAB_K@Z 10156270 f i NPFriends.obj
 0002:0005d2d0       ?test_empty@?$dense_hashtable@U?$pair@$$CB_KUNPFriend@@@std@@_KV?$hash_compare@_KU?$less@_K@std@@@stdext@@USelectKey@?$dense_hash_map@_KUNPFriend@@V?$hash_compare@_KU?$less@_K@std@@@stdext@@U?$equal_to@_K@std@@V?$libc_allocator_with_realloc@U?$pair@$$CB_KUNPFriend@@@std@@@google@@@google@@USetKey@67@U?$equal_to@_K@2@V?$libc_allocator_with_realloc@U?$pair@$$CB_KUNPFriend@@@std@@@7@@google@@QBE_NABU?$dense_hashtable_const_iterator@U?$pair@$$CB_KUNPFriend@@@std@@_KV?$hash_compare@_KU?$less@_K@std@@@stdext@@USelectKey@?$dense_hash_map@_KUNPFriend@@V?$hash_compare@_KU?$less@_K@std@@@stdext@@U?$equal_to@_K@std@@V?$libc_allocator_with_realloc@U?$pair@$$CB_KUNPFriend@@@std@@@google@@@google@@USetKey@67@U?$equal_to@_K@2@V?$libc_allocator_with_realloc@U?$pair@$$CB_KUNPFriend@@@std@@@7@@2@@Z 101562d0 f i NPFriends.obj
 0002:0005d320       ?test_empty@?$dense_hashtable@U?$pair@$$CB_KUNPFriend@@@std@@_KV?$hash_compare@_KU?$less@_K@std@@@stdext@@USelectKey@?$dense_hash_map@_KUNPFriend@@V?$hash_compare@_KU?$less@_K@std@@@stdext@@U?$equal_to@_K@std@@V?$libc_allocator_with_realloc@U?$pair@$$CB_KUNPFriend@@@std@@@google@@@google@@USetKey@67@U?$equal_to@_K@2@V?$libc_allocator_with_realloc@U?$pair@$$CB_KUNPFriend@@@std@@@7@@google@@QBE_NABU?$dense_hashtable_iterator@U?$pair@$$CB_KUNPFriend@@@std@@_KV?$hash_compare@_KU?$less@_K@std@@@stdext@@USelectKey@?$dense_hash_map@_KUNPFriend@@V?$hash_compare@_KU?$less@_K@std@@@stdext@@U?$equal_to@_K@std@@V?$libc_allocator_with_realloc@U?$pair@$$CB_KUNPFriend@@@std@@@google@@@google@@USetKey@67@U?$equal_to@_K@2@V?$libc_allocator_with_realloc@U?$pair@$$CB_KUNPFriend@@@std@@@7@@2@@Z 10156320 f i NPFriends.obj
 0002:0005d370       ?test_empty@?$dense_hashtable@U?$pair@$$CB_KUNPFriend@@@std@@_KV?$hash_compare@_KU?$less@_K@std@@@stdext@@USelectKey@?$dense_hash_map@_KUNPFriend@@V?$hash_compare@_KU?$less@_K@std@@@stdext@@U?$equal_to@_K@std@@V?$libc_allocator_with_realloc@U?$pair@$$CB_KUNPFriend@@@std@@@google@@@google@@USetKey@67@U?$equal_to@_K@2@V?$libc_allocator_with_realloc@U?$pair@$$CB_KUNPFriend@@@std@@@7@@google@@QBE_NI@Z 10156370 f i NPFriends.obj
 0002:0005d3d0       ?use_empty@?$sh_hashtable_settings@_KV?$hash_compare@_KU?$less@_K@std@@@stdext@@I$03@@QBE_NXZ 101563d0 f i NPFriends.obj
 0002:0005d3f0       ?username@FriendsRosterMessage_FriendDetails@@QBEABV?$basic_string@DU?$char_traits@D@std@@V?$allocator@D@2@@std@@XZ 101563f0 f i NPFriends.obj
 0002:0005d410       _NP_FriendsConnected       10156410 f   NPFriends.obj
 0002:0005d430       _NP_GetFriend              10156430 f   NPFriends.obj
 0002:0005d5b0       _NP_GetFriendName          101565b0 f   NPFriends.obj
 0002:0005d740       _NP_GetFriendPresence      10156740 f   NPFriends.obj
 0002:0005d8f0       _NP_GetFriendRichPresence  101568f0 f   NPFriends.obj
 0002:0005db50       _NP_GetFriends             10156b50 f   NPFriends.obj
 0002:0005dc90       _NP_GetNumFriends          10156c90 f   NPFriends.obj
 0002:0005dcb0       _NP_GetUserAvatar          10156cb0 f   NPFriends.obj
 0002:0005de20       _NP_SetRichPresence        10156e20 f   NPFriends.obj
 0002:0005dec0       _NP_SetRichPresenceBody    10156ec0 f   NPFriends.obj
 0002:0005df10       _NP_StoreRichPresence      10156f10 f   NPFriends.obj
 0002:0005e130       ?Messaging_Init@@YAXXZ     10157130 f   NPMessaging.obj
 0002:0005e160       ?data@MessagingSendDataMessage@@QBEABV?$basic_string@DU?$char_traits@D@std@@V?$allocator@D@2@@std@@XZ 10157160 f i NPMessaging.obj
 0002:0005e180       ?npid@MessagingSendDataMessage@@QBE_KXZ 10157180 f i NPMessaging.obj
 0002:0005e1b0       ?set_data@MessagingSendDataMessage@@QAEXPBXI@Z 101571b0 f i NPMessaging.obj
 0002:0005e290       ?set_has_data@MessagingSendDataMessage@@AAEXXZ 10157290 f i NPMessaging.obj
 0002:0005e2e0       ?set_has_npid@MessagingSendDataMessage@@AAEXXZ 101572e0 f i NPMessaging.obj
 0002:0005e330       ?set_npid@MessagingSendDataMessage@@QAEX_K@Z 10157330 f i NPMessaging.obj
 0002:0005e370       _NP_RegisterMessageCallback 10157370 f   NPMessaging.obj
 0002:0005e390       _NP_SendMessage            10157390 f   NPMessaging.obj
 0002:0005e440       _NP_GoOffline              10157440 f   NPOffline.obj
 0002:0005e460       ??$Get@VTypeHandler@?$RepeatedPtrField@VSessionInfo@@@protobuf@google@@@RepeatedPtrFieldBase@internal@protobuf@google@@IBEABVSessionInfo@@H@Z 10157460 f i NPServers.obj
 0002:0005e650       ??$cast@VTypeHandler@?$RepeatedPtrField@VSessionInfo@@@protobuf@google@@@RepeatedPtrFieldBase@internal@protobuf@google@@CAPAVSessionInfo@@PAX@Z 10157650 f i NPServers.obj
 0002:0005e670       ??0?$NPAsync@VNPCreateSessionResult@@@@QAE@XZ 10157670 f i NPServers.obj
 0002:0005e6a0       ??0?$NPAsync@W4EServersResult@@@@QAE@XZ 101576a0 f i NPServers.obj
 0002:0005e6d0       ??0?$NPAsync@_N@@QAE@XZ    101576d0 f i NPServers.obj
 0002:0005e700       ??0?$NPAsyncImpl@VNPCreateSessionResult@@@@QAE@XZ 10157700 f i NPServers.obj
 0002:0005e790       ??0?$NPAsyncImpl@W4EServersResult@@@@QAE@XZ 10157790 f i NPServers.obj
 0002:0005e820       ??0?$NPAsyncImpl@_N@@QAE@XZ 10157820 f i NPServers.obj
 0002:0005e990       ?Free@?$NPAsyncImpl@VNPCreateSessionResult@@@@UAEXXZ 10157990 f i NPServers.obj
 0002:0005e9f4       ?Free@?$NPAsyncImpl@VNPCreateSessionResult@@@@W3AEXXZ 101579f4 f i NPServers.obj
 0002:0005ea00       ?Free@?$NPAsyncImpl@W4EServersResult@@@@UAEXXZ 10157a00 f i NPServers.obj
 0002:0005ea64       ?Free@?$NPAsyncImpl@W4EServersResult@@@@W3AEXXZ 10157a64 f i NPServers.obj
 0002:0005ea70       ?Free@?$NPAsyncImpl@_N@@UAEXXZ 10157a70 f i NPServers.obj
 0002:0005ead4       ?Free@?$NPAsyncImpl@_N@@W3AEXXZ 10157ad4 f i NPServers.obj
 0002:0005eae0       ?Get@?$RepeatedPtrField@VSessionInfo@@@protobuf@google@@QBEABVSessionInfo@@H@Z 10157ae0 f i NPServers.obj
 0002:0005eb10       ?GetResult@?$NPAsyncImpl@VNPCreateSessionResult@@@@UAEPAVNPCreateSessionResult@@XZ 10157b10 f i NPServers.obj
 0002:0005eb30       ?GetResult@?$NPAsyncImpl@W4EServersResult@@@@UAEPAW4EServersResult@@XZ 10157b30 f i NPServers.obj
 0002:0005eb50       ?GetResult@?$NPAsyncImpl@_N@@UAEPA_NXZ 10157b50 f i NPServers.obj
 0002:0005ee00       ?GetUserData@?$NPAsyncImpl@VNPCreateSessionResult@@@@UAEPAXXZ 10157e00 f i NPServers.obj
 0002:0005ee20       ?GetUserData@?$NPAsyncImpl@W4EServersResult@@@@UAEPAXXZ 10157e20 f i NPServers.obj
 0002:0005ee40       ?GetUserData@?$NPAsyncImpl@_N@@UAEPAXXZ 10157e40 f i NPServers.obj
 0002:0005ee60       ?HasCompleted@?$NPAsyncImpl@VNPCreateSessionResult@@@@UAE_NXZ 10157e60 f i NPServers.obj
 0002:0005eea0       ?HasCompleted@?$NPAsyncImpl@W4EServersResult@@@@UAE_NXZ 10157ea0 f i NPServers.obj
 0002:0005eee0       ?HasCompleted@?$NPAsyncImpl@_N@@UAE_NXZ 10157ee0 f i NPServers.obj
 0002:0005ef20       ?RunCallback@?$NPAsyncImpl@VNPCreateSessionResult@@@@UAE_NXZ 10157f20 f i NPServers.obj
 0002:0005ef90       ?RunCallback@?$NPAsyncImpl@W4EServersResult@@@@UAE_NXZ 10157f90 f i NPServers.obj
 0002:0005f000       ?RunCallback@?$NPAsyncImpl@_N@@UAE_NXZ 10158000 f i NPServers.obj
 0002:0005f070       ?SetCallback@?$NPAsyncImpl@VNPCreateSessionResult@@@@UAEXP6AXPAV?$NPAsync@VNPCreateSessionResult@@@@@ZPAX@Z 10158070 f i NPServers.obj
 0002:0005f0b0       ?SetCallback@?$NPAsyncImpl@W4EServersResult@@@@UAEXP6AXPAV?$NPAsync@W4EServersResult@@@@@ZPAX@Z 101580b0 f i NPServers.obj
 0002:0005f0f0       ?SetCallback@?$NPAsyncImpl@_N@@UAEXP6AXPAV?$NPAsync@_N@@@ZPAX@Z 101580f0 f i NPServers.obj
 0002:0005f130       ?SetResult@?$NPAsyncImpl@VNPCreateSessionResult@@@@QAEXPAVNPCreateSessionResult@@@Z 10158130 f i NPServers.obj
 0002:0005f1a0       ?SetResult@?$NPAsyncImpl@W4EServersResult@@@@QAEXPAW4EServersResult@@@Z 101581a0 f i NPServers.obj
 0002:0005f210       ?SetResult@?$NPAsyncImpl@_N@@QAEXPA_N@Z 10158210 f i NPServers.obj
 0002:0005f370       ?Wait@?$NPAsyncImpl@VNPCreateSessionResult@@@@UAEPAVNPCreateSessionResult@@XZ 10158370 f i NPServers.obj
 0002:0005f3d0       ?Wait@?$NPAsyncImpl@W4EServersResult@@@@UAEPAW4EServersResult@@XZ 101583d0 f i NPServers.obj
 0002:0005f430       ?Wait@?$NPAsyncImpl@_N@@UAEPA_NXZ 10158430 f i NPServers.obj
 0002:0005f490       ?address@SessionInfo@@QBEIXZ 10158490 f i NPServers.obj
 0002:0005f4b0       ?hostname@SessionInfo@@QBEABV?$basic_string@DU?$char_traits@D@std@@V?$allocator@D@2@@std@@XZ 101584b0 f i NPServers.obj
 0002:0005f4d0       ?mapname@SessionInfo@@QBEABV?$basic_string@DU?$char_traits@D@std@@V?$allocator@D@2@@std@@XZ 101584d0 f i NPServers.obj
 0002:0005f4f0       ?maxplayers@SessionInfo@@QBEHXZ 101584f0 f i NPServers.obj
 0002:0005f510       ?mutable_info@ServersCreateSessionMessage@@QAEPAVSessionInfo@@XZ 10158510 f i NPServers.obj
 0002:0005f5d0       ?npid@SessionInfo@@QBE_KXZ 101585d0 f i NPServers.obj
 0002:0005f600       ?players@SessionInfo@@QBEHXZ 10158600 f i NPServers.obj
 0002:0005f620       ?port@SessionInfo@@QBEHXZ  10158620 f i NPServers.obj
 0002:0005f640       ?result@ServersCreateSessionResultMessage@@QBEHXZ 10158640 f i NPServers.obj
 0002:0005f660       ?result@ServersUpdateSessionResultMessage@@QBEHXZ 10158660 f i NPServers.obj
 0002:0005f680       ?servers@ServersGetSessionsResultMessage@@QBEABVSessionInfo@@H@Z 10158680 f i NPServers.obj
 0002:0005f6b0       ?servers_size@ServersGetSessionsResultMessage@@QBEHXZ 101586b0 f i NPServers.obj
 0002:0005f6e0       ?sessionid@ServersCreateSessionResultMessage@@QBE_KXZ 101586e0 f i NPServers.obj
 0002:0005f710       ?set_has_hostname@ServersUpdateSessionMessage@@AAEXXZ 10158710 f i NPServers.obj
 0002:0005f760       ?set_has_hostname@SessionInfo@@AAEXXZ 10158760 f i NPServers.obj
 0002:0005f7b0       ?set_has_info@ServersCreateSessionMessage@@AAEXXZ 101587b0 f i NPServers.obj
 0002:0005f800       ?set_has_mapname@ServersUpdateSessionMessage@@AAEXXZ 10158800 f i NPServers.obj
 0002:0005f850       ?set_has_mapname@SessionInfo@@AAEXXZ 10158850 f i NPServers.obj
 0002:0005f8a0       ?set_has_maxplayers@ServersUpdateSessionMessage@@AAEXXZ 101588a0 f i NPServers.obj
 0002:0005f8f0       ?set_has_maxplayers@SessionInfo@@AAEXXZ 101588f0 f i NPServers.obj
 0002:0005f940       ?set_has_players@ServersUpdateSessionMessage@@AAEXXZ 10158940 f i NPServers.obj
 0002:0005f990       ?set_has_players@SessionInfo@@AAEXXZ 10158990 f i NPServers.obj
 0002:0005f9e0       ?set_has_sessionid@ServersDeleteSessionMessage@@AAEXXZ 101589e0 f i NPServers.obj
 0002:0005fa30       ?set_has_sessionid@ServersUpdateSessionMessage@@AAEXXZ 10158a30 f i NPServers.obj
 0002:0005fa80       ?set_has_tags@ServersGetSessionsMessage@@AAEXXZ 10158a80 f i NPServers.obj
 0002:0005fad0       ?set_has_version@SessionInfo@@AAEXXZ 10158ad0 f i NPServers.obj
 0002:0005fb20       ?set_hostname@ServersUpdateSessionMessage@@QAEXPBD@Z 10158b20 f i NPServers.obj
 0002:0005fbf0       ?set_hostname@SessionInfo@@QAEXPBD@Z 10158bf0 f i NPServers.obj
 0002:0005fcc0       ?set_mapname@ServersUpdateSessionMessage@@QAEXPBD@Z 10158cc0 f i NPServers.obj
 0002:0005fd90       ?set_mapname@SessionInfo@@QAEXPBD@Z 10158d90 f i NPServers.obj
 0002:0005fe60       ?set_maxplayers@ServersUpdateSessionMessage@@QAEXH@Z 10158e60 f i NPServers.obj
 0002:0005fe90       ?set_maxplayers@SessionInfo@@QAEXH@Z 10158e90 f i NPServers.obj
 0002:0005fec0       ?set_players@ServersUpdateSessionMessage@@QAEXH@Z 10158ec0 f i NPServers.obj
 0002:0005fef0       ?set_players@SessionInfo@@QAEXH@Z 10158ef0 f i NPServers.obj
 0002:0005ff20       ?set_sessionid@ServersDeleteSessionMessage@@QAEX_K@Z 10158f20 f i NPServers.obj
 0002:0005ff60       ?set_sessionid@ServersUpdateSessionMessage@@QAEX_K@Z 10158f60 f i NPServers.obj
 0002:0005ffa0       ?set_tags@ServersGetSessionsMessage@@QAEXPBD@Z 10158fa0 f i NPServers.obj
 0002:00060070       ?set_version@SessionInfo@@QAEXH@Z 10159070 f i NPServers.obj
 0002:000600a0       ?size@?$RepeatedPtrField@VSessionInfo@@@protobuf@google@@QBEHXZ 101590a0 f i NPServers.obj
 0002:000600d0       ?version@SessionInfo@@QBEHXZ 101590d0 f i NPServers.obj
 0002:000600f0       _NP_CreateSession          101590f0 f   NPServers.obj
 0002:00060250       _NP_DeleteSession          10159250 f   NPServers.obj
 0002:00060350       _NP_GetNumSessions         10159350 f   NPServers.obj
 0002:00060370       _NP_GetSessionData         10159370 f   NPServers.obj
 0002:000603c0       _NP_RefreshSessions        101593c0 f   NPServers.obj
 0002:000604b0       _NP_UpdateSession          101594b0 f   NPServers.obj
 0002:00060610       ??0?$NPAsync@VNPGetPublisherFileResult@@@@QAE@XZ 10159610 f i NPStorage.obj
 0002:00060640       ??0?$NPAsync@VNPGetUserFileResult@@@@QAE@XZ 10159640 f i NPStorage.obj
 0002:00060670       ??0?$NPAsync@VNPWriteUserFileResult@@@@QAE@XZ 10159670 f i NPStorage.obj
 0002:000606a0       ??0?$NPAsyncImpl@VNPGetPublisherFileResult@@@@QAE@XZ 101596a0 f i NPStorage.obj
 0002:00060730       ??0?$NPAsyncImpl@VNPGetUserFileResult@@@@QAE@XZ 10159730 f i NPStorage.obj
 0002:000607c0       ??0?$NPAsyncImpl@VNPWriteUserFileResult@@@@QAE@XZ 101597c0 f i NPStorage.obj
 0002:00060850       ?Free@?$NPAsyncImpl@VNPGetPublisherFileResult@@@@UAEXXZ 10159850 f i NPStorage.obj
 0002:000608b4       ?Free@?$NPAsyncImpl@VNPGetPublisherFileResult@@@@W3AEXXZ 101598b4 f i NPStorage.obj
 0002:000608c0       ?Free@?$NPAsyncImpl@VNPGetUserFileResult@@@@UAEXXZ 101598c0 f i NPStorage.obj
 0002:00060924       ?Free@?$NPAsyncImpl@VNPGetUserFileResult@@@@W3AEXXZ 10159924 f i NPStorage.obj
 0002:00060930       ?Free@?$NPAsyncImpl@VNPWriteUserFileResult@@@@UAEXXZ 10159930 f i NPStorage.obj
 0002:00060994       ?Free@?$NPAsyncImpl@VNPWriteUserFileResult@@@@W3AEXXZ 10159994 f i NPStorage.obj
 0002:00060b80       ?GetResult@?$NPAsyncImpl@VNPGetPublisherFileResult@@@@UAEPAVNPGetPublisherFileResult@@XZ 10159b80 f i NPStorage.obj
 0002:00060ba0       ?GetResult@?$NPAsyncImpl@VNPGetUserFileResult@@@@UAEPAVNPGetUserFileResult@@XZ 10159ba0 f i NPStorage.obj
 0002:00060bc0       ?GetResult@?$NPAsyncImpl@VNPWriteUserFileResult@@@@UAEPAVNPWriteUserFileResult@@XZ 10159bc0 f i NPStorage.obj
 0002:00060be0       ?GetUserData@?$NPAsyncImpl@VNPGetPublisherFileResult@@@@UAEPAXXZ 10159be0 f i NPStorage.obj
 0002:00060c00       ?GetUserData@?$NPAsyncImpl@VNPGetUserFileResult@@@@UAEPAXXZ 10159c00 f i NPStorage.obj
 0002:00060c20       ?GetUserData@?$NPAsyncImpl@VNPWriteUserFileResult@@@@UAEPAXXZ 10159c20 f i NPStorage.obj
 0002:00060e20       ?HasCompleted@?$NPAsyncImpl@VNPGetPublisherFileResult@@@@UAE_NXZ 10159e20 f i NPStorage.obj
 0002:00060e60       ?HasCompleted@?$NPAsyncImpl@VNPGetUserFileResult@@@@UAE_NXZ 10159e60 f i NPStorage.obj
 0002:00060ea0       ?HasCompleted@?$NPAsyncImpl@VNPWriteUserFileResult@@@@UAE_NXZ 10159ea0 f i NPStorage.obj
 0002:00060ee0       ?RunCallback@?$NPAsyncImpl@VNPGetPublisherFileResult@@@@UAE_NXZ 10159ee0 f i NPStorage.obj
 0002:00060f50       ?RunCallback@?$NPAsyncImpl@VNPGetUserFileResult@@@@UAE_NXZ 10159f50 f i NPStorage.obj
 0002:00060fc0       ?RunCallback@?$NPAsyncImpl@VNPWriteUserFileResult@@@@UAE_NXZ 10159fc0 f i NPStorage.obj
 0002:00061030       ?SetCallback@?$NPAsyncImpl@VNPGetPublisherFileResult@@@@UAEXP6AXPAV?$NPAsync@VNPGetPublisherFileResult@@@@@ZPAX@Z 1015a030 f i NPStorage.obj
 0002:00061070       ?SetCallback@?$NPAsyncImpl@VNPGetUserFileResult@@@@UAEXP6AXPAV?$NPAsync@VNPGetUserFileResult@@@@@ZPAX@Z 1015a070 f i NPStorage.obj
 0002:000610b0       ?SetCallback@?$NPAsyncImpl@VNPWriteUserFileResult@@@@UAEXP6AXPAV?$NPAsync@VNPWriteUserFileResult@@@@@ZPAX@Z 1015a0b0 f i NPStorage.obj
 0002:000610f0       ?SetResult@?$NPAsyncImpl@VNPGetPublisherFileResult@@@@QAEXPAVNPGetPublisherFileResult@@@Z 1015a0f0 f i NPStorage.obj
 0002:00061160       ?SetResult@?$NPAsyncImpl@VNPGetUserFileResult@@@@QAEXPAVNPGetUserFileResult@@@Z 1015a160 f i NPStorage.obj
 0002:000611d0       ?SetResult@?$NPAsyncImpl@VNPWriteUserFileResult@@@@QAEXPAVNPWriteUserFileResult@@@Z 1015a1d0 f i NPStorage.obj
 0002:00061240       ?Wait@?$NPAsyncImpl@VNPGetPublisherFileResult@@@@UAEPAVNPGetPublisherFileResult@@XZ 1015a240 f i NPStorage.obj
 0002:000612a0       ?Wait@?$NPAsyncImpl@VNPGetUserFileResult@@@@UAEPAVNPGetUserFileResult@@XZ 1015a2a0 f i NPStorage.obj
 0002:00061300       ?Wait@?$NPAsyncImpl@VNPWriteUserFileResult@@@@UAEPAVNPWriteUserFileResult@@XZ 1015a300 f i NPStorage.obj
 0002:00061420       ?filedata@StoragePublisherFileMessage@@QBEABV?$basic_string@DU?$char_traits@D@std@@V?$allocator@D@2@@std@@XZ 1015a420 f i NPStorage.obj
 0002:00061440       ?filedata@StorageUserFileMessage@@QBEABV?$basic_string@DU?$char_traits@D@std@@V?$allocator@D@2@@std@@XZ 1015a440 f i NPStorage.obj
 0002:00061460       ?filename@StoragePublisherFileMessage@@QBEABV?$basic_string@DU?$char_traits@D@std@@V?$allocator@D@2@@std@@XZ 1015a460 f i NPStorage.obj
 0002:00061480       ?filename@StorageUserFileMessage@@QBEABV?$basic_string@DU?$char_traits@D@std@@V?$allocator@D@2@@std@@XZ 1015a480 f i NPStorage.obj
 0002:000614a0       ?result@StoragePublisherFileMessage@@QBEHXZ 1015a4a0 f i NPStorage.obj
 0002:000614c0       ?result@StorageUserFileMessage@@QBEHXZ 1015a4c0 f i NPStorage.obj
 0002:000614e0       ?result@StorageWriteUserFileResultMessage@@QBEHXZ 1015a4e0 f i NPStorage.obj
 0002:00061500       ?set_filedata@StorageWriteUserFileMessage@@QAEXABV?$basic_string@DU?$char_traits@D@std@@V?$allocator@D@2@@std@@@Z 1015a500 f i NPStorage.obj
 0002:000615d0       ?set_filename@StorageGetPublisherFileMessage@@QAEXPBD@Z 1015a5d0 f i NPStorage.obj
 0002:000616a0       ?set_filename@StorageGetUserFileMessage@@QAEXPBD@Z 1015a6a0 f i NPStorage.obj
 0002:00061770       ?set_filename@StorageWriteUserFileMessage@@QAEXPBD@Z 1015a770 f i NPStorage.obj
 0002:00061840       ?set_has_filedata@StorageWriteUserFileMessage@@AAEXXZ 1015a840 f i NPStorage.obj
 0002:00061890       ?set_has_filename@StorageGetPublisherFileMessage@@AAEXXZ 1015a890 f i NPStorage.obj
 0002:000618e0       ?set_has_filename@StorageGetUserFileMessage@@AAEXXZ 1015a8e0 f i NPStorage.obj
 0002:00061930       ?set_has_filename@StorageWriteUserFileMessage@@AAEXXZ 1015a930 f i NPStorage.obj
 0002:00061980       ?set_has_npid@StorageGetUserFileMessage@@AAEXXZ 1015a980 f i NPStorage.obj
 0002:000619d0       ?set_has_npid@StorageWriteUserFileMessage@@AAEXXZ 1015a9d0 f i NPStorage.obj
 0002:00061a20       ?set_npid@StorageGetUserFileMessage@@QAEX_K@Z 1015aa20 f i NPStorage.obj
 0002:00061a60       ?set_npid@StorageWriteUserFileMessage@@QAEX_K@Z 1015aa60 f i NPStorage.obj
 0002:00061aa0       _NP_GetPublisherFile       1015aaa0 f   NPStorage.obj
 0002:00061c10       _NP_GetUserFile            1015ac10 f   NPStorage.obj
 0002:00061d90       _NP_SendRandomString       1015ad90 f   NPStorage.obj
 0002:00061e20       _NP_WriteUserFile          1015ae20 f   NPStorage.obj
 0002:00061f90       ??$?0AAV?$_Tree_iterator@V?$_Tree_val@U?$_Tree_simple_types@U?$pair@$$CBHPAVNPRPCAsync@@@std@@@std@@@std@@@std@@_NX@?$pair@V?$_Tree_iterator@V?$_Tree_val@U?$_Tree_simple_types@U?$pair@$$CBHPAVNPRPCAsync@@@std@@@std@@@std@@@std@@_N@std@@QAE@AAV?$_Tree_iterator@V?$_Tree_val@U?$_Tree_simple_types@U?$pair@$$CBHPAVNPRPCAsync@@@std@@@std@@@std@@@1@$$QA_N@Z 1015af90 f i RPC.obj
 0002:00061fe0       ??$?0ABH$$$V@?$pair@$$CBHPAVNPRPCAsync@@@std@@QAE@Upiecewise_construct_t@1@V?$tuple@ABH@1@V?$tuple@$$$V@1@@Z 1015afe0 f i RPC.obj
 0002:00062030       ??$?0ABH@?$_Tuple_val@ABH@std@@QAE@ABH@Z 1015b030 f i RPC.obj
 0002:00062070       ??$?0ABHPAPAX@?$tuple@ABH@std@@QAE@$$QAV01@@Z 1015b070 f i RPC.obj
 0002:000620d0       ??$?0V?$_Tree_iterator@V?$_Tree_val@U?$_Tree_simple_types@U?$pair@$$CBHPAVNPRPCAsync@@@std@@@std@@@std@@@std@@_NX@?$pair@V?$_Tree_iterator@V?$_Tree_val@U?$_Tree_simple_types@U?$pair@$$CBHPAVNPRPCAsync@@@std@@@std@@@std@@@std@@_N@std@@QAE@$$QAV?$_Tree_iterator@V?$_Tree_val@U?$_Tree_simple_types@U?$pair@$$CBHPAVNPRPCAsync@@@std@@@std@@@std@@@1@$$QA_N@Z 1015b0d0 f i RPC.obj
 0002:00062120       ??$?0V?$tuple@ABH@std@@V?$tuple@$$$V@1@$0A@$S@?$pair@$$CBHPAVNPRPCAsync@@@std@@QAE@AAV?$tuple@ABH@1@AAV?$tuple@$$$V@1@U?$_Arg_idx@$0A@@1@U?$_Arg_idx@$S@1@@Z 1015b120 f i RPC.obj
 0002:00062170       ??$_Allocate@PAVNPRPCAsync@@@std@@YAPAPAVNPRPCAsync@@IPAPAV1@@Z 1015b170 f i RPC.obj
 0002:000621d0       ??$_Allocate@U?$_Tree_node@U?$pair@$$CBHPAVNPRPCAsync@@@std@@PAX@std@@@std@@YAPAU?$_Tree_node@U?$pair@$$CBHPAVNPRPCAsync@@@std@@PAX@0@IPAU10@@Z 1015b1d0 f i RPC.obj
 0002:00062230       ??$_Allocate@Urpc_dispatch_handler_s@@@std@@YAPAUrpc_dispatch_handler_s@@IPAU1@@Z 1015b230 f i RPC.obj
 0002:00062290       ??$_Buynode@ABUpiecewise_construct_t@std@@V?$tuple@ABH@2@V?$tuple@$$$V@2@@?$_Tree_buy@U?$pair@$$CBHPAVNPRPCAsync@@@std@@V?$allocator@U?$pair@$$CBHPAVNPRPCAsync@@@std@@@2@@std@@QAEPAU?$_Tree_node@U?$pair@$$CBHPAVNPRPCAsync@@@std@@PAX@1@ABUpiecewise_construct_t@1@$$QAV?$tuple@ABH@1@$$QAV?$tuple@$$$V@1@@Z 1015b290 f i RPC.obj
 0002:000623f0       ??$_Buynode_if_nil@AAU?$pair@$$CBHPAVNPRPCAsync@@@std@@@?$_Tree@V?$_Tmap_traits@HPAVNPRPCAsync@@U?$less@H@std@@V?$allocator@U?$pair@$$CBHPAVNPRPCAsync@@@std@@@3@$0A@@std@@@std@@IAEPAU?$_Tree_node@U?$pair@$$CBHPAVNPRPCAsync@@@std@@PAX@1@PAU21@AAU?$pair@$$CBHPAVNPRPCAsync@@@1@@Z 1015b3f0 f i RPC.obj
 0002:00062410       ??$_Destroy_range@U?$_Wrap_alloc@V?$allocator@PAVNPRPCAsync@@@std@@@std@@@std@@YAXPAPAVNPRPCAsync@@0AAU?$_Wrap_alloc@V?$allocator@PAVNPRPCAsync@@@std@@@0@@Z 1015b410 f i RPC.obj
 0002:00062460       ??$_Destroy_range@U?$_Wrap_alloc@V?$allocator@PAVNPRPCAsync@@@std@@@std@@@std@@YAXPAPAVNPRPCAsync@@0AAU?$_Wrap_alloc@V?$allocator@PAVNPRPCAsync@@@std@@@0@U_Scalar_ptr_iterator_tag@0@@Z 1015b460 f i RPC.obj
 0002:00062480       ??$_Destroy_range@U?$_Wrap_alloc@V?$allocator@Urpc_dispatch_handler_s@@@std@@@std@@@std@@YAXPAUrpc_dispatch_handler_s@@0AAU?$_Wrap_alloc@V?$allocator@Urpc_dispatch_handler_s@@@std@@@0@@Z 1015b480 f i RPC.obj
 0002:000624d0       ??$_Destroy_range@U?$_Wrap_alloc@V?$allocator@Urpc_dispatch_handler_s@@@std@@@std@@@std@@YAXPAUrpc_dispatch_handler_s@@0AAU?$_Wrap_alloc@V?$allocator@Urpc_dispatch_handler_s@@@std@@@0@U_Nonscalar_ptr_iterator_tag@0@@Z 1015b4d0 f i RPC.obj
 0002:00062510       ??$_Fgetc@D@std@@YA_NAADPAU_iobuf@@@Z 1015b510 f i RPC.obj
 0002:00062560       ??$_Fputc@D@std@@YA_NDPAU_iobuf@@@Z 1015b560 f i RPC.obj
 0002:000625b0       ??$_Insert_at@AAU?$pair@$$CBHPAVNPRPCAsync@@@std@@PAU?$_Tree_node@U?$pair@$$CBHPAVNPRPCAsync@@@std@@PAX@2@@?$_Tree@V?$_Tmap_traits@HPAVNPRPCAsync@@U?$less@H@std@@V?$allocator@U?$pair@$$CBHPAVNPRPCAsync@@@std@@@3@$0A@@std@@@std@@IAE?AV?$_Tree_iterator@V?$_Tree_val@U?$_Tree_simple_types@U?$pair@$$CBHPAVNPRPCAsync@@@std@@@std@@@std@@@1@_NPAU?$_Tree_node@U?$pair@$$CBHPAVNPRPCAsync@@@std@@PAX@1@AAU?$pair@$$CBHPAVNPRPCAsync@@@1@1@Z 1015b5b0 f i RPC.obj
 0002:00062af0       ??$_Insert_hint@AAU?$pair@$$CBHPAVNPRPCAsync@@@std@@PAU?$_Tree_node@U?$pair@$$CBHPAVNPRPCAsync@@@std@@PAX@2@@?$_Tree@V?$_Tmap_traits@HPAVNPRPCAsync@@U?$less@H@std@@V?$allocator@U?$pair@$$CBHPAVNPRPCAsync@@@std@@@3@$0A@@std@@@std@@IAE?AV?$_Tree_iterator@V?$_Tree_val@U?$_Tree_simple_types@U?$pair@$$CBHPAVNPRPCAsync@@@std@@@std@@@std@@@1@V?$_Tree_const_iterator@V?$_Tree_val@U?$_Tree_simple_types@U?$pair@$$CBHPAVNPRPCAsync@@@std@@@std@@@std@@@1@AAU?$pair@$$CBHPAVNPRPCAsync@@@1@PAU?$_Tree_node@U?$pair@$$CBHPAVNPRPCAsync@@@std@@PAX@1@@Z 1015baf0 f i RPC.obj
 0002:00063ab0       ??$_Insert_nohint@AAU?$pair@$$CBHPAVNPRPCAsync@@@std@@PAU?$_Tree_node@U?$pair@$$CBHPAVNPRPCAsync@@@std@@PAX@2@@?$_Tree@V?$_Tmap_traits@HPAVNPRPCAsync@@U?$less@H@std@@V?$allocator@U?$pair@$$CBHPAVNPRPCAsync@@@std@@@3@$0A@@std@@@std@@IAE?AU?$pair@V?$_Tree_iterator@V?$_Tree_val@U?$_Tree_simple_types@U?$pair@$$CBHPAVNPRPCAsync@@@std@@@std@@@std@@@std@@_N@1@_NAAU?$pair@$$CBHPAVNPRPCAsync@@@1@PAU?$_Tree_node@U?$pair@$$CBHPAVNPRPCAsync@@@std@@PAX@1@@Z 1015cab0 f i RPC.obj
 0002:00063fc0       ??$_Kfn@$$CBHPAVNPRPCAsync@@@?$_Tmap_traits@HPAVNPRPCAsync@@U?$less@H@std@@V?$allocator@U?$pair@$$CBHPAVNPRPCAsync@@@std@@@3@$0A@@std@@SAABHABU?$pair@$$CBHPAVNPRPCAsync@@@1@@Z 1015cfc0 f i RPC.obj
 0002:00063fe0       ??$_Ptr_cat@PAVNPRPCAsync@@PAV1@@std@@YA?AU_Scalar_ptr_iterator_tag@0@PAPAVNPRPCAsync@@0@Z 1015cfe0 f i RPC.obj
 0002:00064000       ??$_Ptr_cat@Urpc_dispatch_handler_s@@U1@@std@@YA?AU_Nonscalar_ptr_iterator_tag@0@PAUrpc_dispatch_handler_s@@0@Z 1015d000 f i RPC.obj
 0002:00064020       ??$_Rechecked@PAPAVNPRPCAsync@@PAPAV1@@std@@YAAAPAPAVNPRPCAsync@@AAPAPAV1@PAPAV1@@Z 1015d020 f i RPC.obj
 0002:00064050       ??$_Rechecked@PAUrpc_dispatch_handler_s@@PAU1@@std@@YAAAPAUrpc_dispatch_handler_s@@AAPAU1@PAU1@@Z 1015d050 f i RPC.obj
 0002:00064080       ??$_Umove@PAPAVNPRPCAsync@@@?$vector@PAVNPRPCAsync@@V?$allocator@PAVNPRPCAsync@@@std@@@std@@IAEPAPAVNPRPCAsync@@PAPAV2@00@Z 1015d080 f i RPC.obj
 0002:000640d0       ??$_Umove@PAUrpc_dispatch_handler_s@@@?$vector@Urpc_dispatch_handler_s@@V?$allocator@Urpc_dispatch_handler_s@@@std@@@std@@IAEPAUrpc_dispatch_handler_s@@PAU2@00@Z 1015d0d0 f i RPC.obj
 0002:00064120       ??$_Unchecked@PAPAVNPRPCAsync@@@std@@YAPAPAVNPRPCAsync@@PAPAV1@@Z 1015d120 f i RPC.obj
 0002:00064140       ??$_Unchecked@PAUrpc_dispatch_handler_s@@@std@@YAPAUrpc_dispatch_handler_s@@PAU1@@Z 1015d140 f i RPC.obj
 0002:00064160       ??$_Ungetc@D@std@@YA_NABDPAU_iobuf@@@Z 1015d160 f i RPC.obj
 0002:000641b0       ??$_Uninit_move@PAPAVNPRPCAsync@@PAPAV1@U?$_Wrap_alloc@V?$allocator@PAVNPRPCAsync@@@std@@@std@@@std@@YAPAPAVNPRPCAsync@@PAPAV1@00AAU?$_Wrap_alloc@V?$allocator@PAVNPRPCAsync@@@std@@@0@@Z 1015d1b0 f i RPC.obj
 0002:00064210       ??$_Uninit_move@PAUrpc_dispatch_handler_s@@PAU1@U?$_Wrap_alloc@V?$allocator@Urpc_dispatch_handler_s@@@std@@@std@@@std@@YAPAUrpc_dispatch_handler_s@@PAU1@00AAU?$_Wrap_alloc@V?$allocator@Urpc_dispatch_handler_s@@@std@@@0@@Z 1015d210 f i RPC.obj
 0002:00064270       ??$_Uninit_move@PAUrpc_dispatch_handler_s@@PAU1@V?$allocator@Urpc_dispatch_handler_s@@@std@@U1@@std@@YAPAUrpc_dispatch_handler_s@@PAU1@00AAU?$_Wrap_alloc@V?$allocator@Urpc_dispatch_handler_s@@@std@@@0@0U_Nonscalar_ptr_iterator_tag@0@@Z 1015d270 f i RPC.obj
 0002:00064360       ??$_Uninit_move@PAVNPRPCAsync@@PAV1@PAV1@@std@@YAPAPAVNPRPCAsync@@PAPAV1@00AAU?$_Wrap_alloc@V?$allocator@PAVNPRPCAsync@@@std@@@0@0U_Scalar_ptr_iterator_tag@0@@Z 1015d360 f i RPC.obj
 0002:000643b0       ??$_Uninitialized_move@PAPAVNPRPCAsync@@PAPAV1@U?$_Wrap_alloc@V?$allocator@PAVNPRPCAsync@@@std@@@std@@@std@@YAPAPAVNPRPCAsync@@PAPAV1@00AAU?$_Wrap_alloc@V?$allocator@PAVNPRPCAsync@@@std@@@0@@Z 1015d3b0 f i RPC.obj
 0002:00064420       ??$_Uninitialized_move@PAUrpc_dispatch_handler_s@@PAU1@U?$_Wrap_alloc@V?$allocator@Urpc_dispatch_handler_s@@@std@@@std@@@std@@YAPAUrpc_dispatch_handler_s@@PAU1@00AAU?$_Wrap_alloc@V?$allocator@Urpc_dispatch_handler_s@@@std@@@0@@Z 1015d420 f i RPC.obj
 0002:00064490       ??$_Val_type@PAPAVNPRPCAsync@@@std@@YAPAPAVNPRPCAsync@@PAPAV1@@Z 1015d490 f i RPC.obj
 0002:000644b0       ??$_Val_type@PAUrpc_dispatch_handler_s@@@std@@YAPAUrpc_dispatch_handler_s@@PAU1@@Z 1015d4b0 f i RPC.obj
 0002:000644d0       ??$addressof@$$CBUrpc_dispatch_handler_s@@@std@@YAPBUrpc_dispatch_handler_s@@ABU1@@Z 1015d4d0 f i RPC.obj
 0002:000644f0       ??$addressof@PAU?$_Tree_node@U?$pair@$$CBHPAVNPRPCAsync@@@std@@PAX@std@@@std@@YAPAPAU?$_Tree_node@U?$pair@$$CBHPAVNPRPCAsync@@@std@@PAX@0@AAPAU10@@Z 1015d4f0 f i RPC.obj
 0002:00064510       ??$addressof@QAVNPRPCAsync@@@std@@YAPBQAVNPRPCAsync@@ABQAV1@@Z 1015d510 f i RPC.obj
 0002:00064530       ??$addressof@U?$pair@$$CBHPAVNPRPCAsync@@@std@@@std@@YAPAU?$pair@$$CBHPAVNPRPCAsync@@@0@AAU10@@Z 1015d530 f i RPC.obj
 0002:00064550       ??$addressof@Urpc_dispatch_handler_s@@@std@@YAPAUrpc_dispatch_handler_s@@AAU1@@Z 1015d550 f i RPC.obj
 0002:00064570       ??$construct@PAU?$_Tree_node@U?$pair@$$CBHPAVNPRPCAsync@@@std@@PAX@std@@AAPAU12@@?$_Wrap_alloc@V?$allocator@U?$_Tree_node@U?$pair@$$CBHPAVNPRPCAsync@@@std@@PAX@std@@@std@@@std@@QAEXPAPAU?$_Tree_node@U?$pair@$$CBHPAVNPRPCAsync@@@std@@PAX@1@AAPAU21@@Z 1015d570 f i RPC.obj
 0002:000645b0       ??$construct@PAU?$_Tree_node@U?$pair@$$CBHPAVNPRPCAsync@@@std@@PAX@std@@AAPAU12@@?$allocator@U?$_Tree_node@U?$pair@$$CBHPAVNPRPCAsync@@@std@@PAX@std@@@std@@QAEXPAPAU?$_Tree_node@U?$pair@$$CBHPAVNPRPCAsync@@@std@@PAX@1@AAPAU21@@Z 1015d5b0 f i RPC.obj
 0002:00064660       ??$construct@PAU?$_Tree_node@U?$pair@$$CBHPAVNPRPCAsync@@@std@@PAX@std@@AAPAU12@@?$allocator_traits@V?$allocator@U?$_Tree_node@U?$pair@$$CBHPAVNPRPCAsync@@@std@@PAX@std@@@std@@@std@@SAXAAV?$allocator@U?$_Tree_node@U?$pair@$$CBHPAVNPRPCAsync@@@std@@PAX@std@@@1@PAPAU?$_Tree_node@U?$pair@$$CBHPAVNPRPCAsync@@@std@@PAX@1@AAPAU31@@Z 1015d660 f i RPC.obj
 0002:000646a0       ??$construct@PAVNPRPCAsync@@AAPAV1@@?$_Wrap_alloc@V?$allocator@PAVNPRPCAsync@@@std@@@std@@QAEXPAPAVNPRPCAsync@@AAPAV2@@Z 1015d6a0 f i RPC.obj
 0002:000646e0       ??$construct@PAVNPRPCAsync@@AAPAV1@@?$allocator@PAVNPRPCAsync@@@std@@QAEXPAPAVNPRPCAsync@@AAPAV2@@Z 1015d6e0 f i RPC.obj
 0002:00064790       ??$construct@PAVNPRPCAsync@@AAPAV1@@?$allocator_traits@V?$allocator@PAVNPRPCAsync@@@std@@@std@@SAXAAV?$allocator@PAVNPRPCAsync@@@1@PAPAVNPRPCAsync@@AAPAV3@@Z 1015d790 f i RPC.obj
 0002:000647d0       ??$construct@PAVNPRPCAsync@@ABQAV1@@?$_Wrap_alloc@V?$allocator@PAVNPRPCAsync@@@std@@@std@@QAEXPAPAVNPRPCAsync@@ABQAV2@@Z 1015d7d0 f i RPC.obj
 0002:00064810       ??$construct@PAVNPRPCAsync@@ABQAV1@@?$allocator_traits@V?$allocator@PAVNPRPCAsync@@@std@@@std@@SAXAAV?$allocator@PAVNPRPCAsync@@@1@PAPAVNPRPCAsync@@ABQAV3@@Z 1015d810 f i RPC.obj
 0002:00064850       ??$construct@U?$pair@$$CBHPAVNPRPCAsync@@@std@@ABUpiecewise_construct_t@2@V?$tuple@ABH@2@V?$tuple@$$$V@2@@?$_Wrap_alloc@V?$allocator@U?$_Tree_node@U?$pair@$$CBHPAVNPRPCAsync@@@std@@PAX@std@@@std@@@std@@QAEXPAU?$pair@$$CBHPAVNPRPCAsync@@@1@ABUpiecewise_construct_t@1@$$QAV?$tuple@ABH@1@$$QAV?$tuple@$$$V@1@@Z 1015d850 f i RPC.obj
 0002:000648b0       ??$construct@U?$pair@$$CBHPAVNPRPCAsync@@@std@@ABUpiecewise_construct_t@2@V?$tuple@ABH@2@V?$tuple@$$$V@2@@?$allocator@U?$_Tree_node@U?$pair@$$CBHPAVNPRPCAsync@@@std@@PAX@std@@@std@@QAEXPAU?$pair@$$CBHPAVNPRPCAsync@@@1@ABUpiecewise_construct_t@1@$$QAV?$tuple@ABH@1@$$QAV?$tuple@$$$V@1@@Z 1015d8b0 f i RPC.obj
 0002:000649a0       ??$construct@U?$pair@$$CBHPAVNPRPCAsync@@@std@@ABUpiecewise_construct_t@2@V?$tuple@ABH@2@V?$tuple@$$$V@2@@?$allocator_traits@V?$allocator@U?$_Tree_node@U?$pair@$$CBHPAVNPRPCAsync@@@std@@PAX@std@@@std@@@std@@SAXAAV?$allocator@U?$_Tree_node@U?$pair@$$CBHPAVNPRPCAsync@@@std@@PAX@std@@@1@PAU?$pair@$$CBHPAVNPRPCAsync@@@1@ABUpiecewise_construct_t@1@$$QAV?$tuple@ABH@1@$$QAV?$tuple@$$$V@1@@Z 1015d9a0 f i RPC.obj
 0002:00064a00       ??$construct@Urpc_dispatch_handler_s@@AAU1@@?$_Wrap_alloc@V?$allocator@Urpc_dispatch_handler_s@@@std@@@std@@QAEXPAUrpc_dispatch_handler_s@@AAU2@@Z 1015da00 f i RPC.obj
 0002:00064a40       ??$construct@Urpc_dispatch_handler_s@@AAU1@@?$allocator@Urpc_dispatch_handler_s@@@std@@QAEXPAUrpc_dispatch_handler_s@@AAU2@@Z 1015da40 f i RPC.obj
 0002:00064b00       ??$construct@Urpc_dispatch_handler_s@@AAU1@@?$allocator_traits@V?$allocator@Urpc_dispatch_handler_s@@@std@@@std@@SAXAAV?$allocator@Urpc_dispatch_handler_s@@@1@PAUrpc_dispatch_handler_s@@AAU3@@Z 1015db00 f i RPC.obj
 0002:00064b40       ??$construct@Urpc_dispatch_handler_s@@ABU1@@?$_Wrap_alloc@V?$allocator@Urpc_dispatch_handler_s@@@std@@@std@@QAEXPAUrpc_dispatch_handler_s@@ABU2@@Z 1015db40 f i RPC.obj
 0002:00064b80       ??$construct@Urpc_dispatch_handler_s@@ABU1@@?$allocator_traits@V?$allocator@Urpc_dispatch_handler_s@@@std@@@std@@SAXAAV?$allocator@Urpc_dispatch_handler_s@@@1@PAUrpc_dispatch_handler_s@@ABU3@@Z 1015db80 f i RPC.obj
 0002:00064bc0       ??$construct@Urpc_dispatch_handler_s@@U1@@?$_Wrap_alloc@V?$allocator@Urpc_dispatch_handler_s@@@std@@@std@@QAEXPAUrpc_dispatch_handler_s@@$$QAU2@@Z 1015dbc0 f i RPC.obj
 0002:00064c00       ??$construct@Urpc_dispatch_handler_s@@U1@@?$allocator@Urpc_dispatch_handler_s@@@std@@QAEXPAUrpc_dispatch_handler_s@@$$QAU2@@Z 1015dc00 f i RPC.obj
 0002:00064cc0       ??$construct@Urpc_dispatch_handler_s@@U1@@?$allocator_traits@V?$allocator@Urpc_dispatch_handler_s@@@std@@@std@@SAXAAV?$allocator@Urpc_dispatch_handler_s@@@1@PAUrpc_dispatch_handler_s@@$$QAU3@@Z 1015dcc0 f i RPC.obj
 0002:00064d00       ??$destroy@PAU?$_Tree_node@U?$pair@$$CBHPAVNPRPCAsync@@@std@@PAX@std@@@?$_Wrap_alloc@V?$allocator@U?$_Tree_node@U?$pair@$$CBHPAVNPRPCAsync@@@std@@PAX@std@@@std@@@std@@QAEXPAPAU?$_Tree_node@U?$pair@$$CBHPAVNPRPCAsync@@@std@@PAX@1@@Z 1015dd00 f i RPC.obj
 0002:00064d30       ??$destroy@PAU?$_Tree_node@U?$pair@$$CBHPAVNPRPCAsync@@@std@@PAX@std@@@?$allocator@U?$_Tree_node@U?$pair@$$CBHPAVNPRPCAsync@@@std@@PAX@std@@@std@@QAEXPAPAU?$_Tree_node@U?$pair@$$CBHPAVNPRPCAsync@@@std@@PAX@1@@Z 1015dd30 f i RPC.obj
 0002:00064d50       ??$destroy@PAU?$_Tree_node@U?$pair@$$CBHPAVNPRPCAsync@@@std@@PAX@std@@@?$allocator_traits@V?$allocator@U?$_Tree_node@U?$pair@$$CBHPAVNPRPCAsync@@@std@@PAX@std@@@std@@@std@@SAXAAV?$allocator@U?$_Tree_node@U?$pair@$$CBHPAVNPRPCAsync@@@std@@PAX@std@@@1@PAPAU?$_Tree_node@U?$pair@$$CBHPAVNPRPCAsync@@@std@@PAX@1@@Z 1015dd50 f i RPC.obj
 0002:00064d80       ??$destroy@U?$pair@$$CBHPAVNPRPCAsync@@@std@@@?$_Wrap_alloc@V?$allocator@U?$_Tree_node@U?$pair@$$CBHPAVNPRPCAsync@@@std@@PAX@std@@@std@@@std@@QAEXPAU?$pair@$$CBHPAVNPRPCAsync@@@1@@Z 1015dd80 f i RPC.obj
 0002:00064db0       ??$destroy@U?$pair@$$CBHPAVNPRPCAsync@@@std@@@?$allocator@U?$_Tree_node@U?$pair@$$CBHPAVNPRPCAsync@@@std@@PAX@std@@@std@@QAEXPAU?$pair@$$CBHPAVNPRPCAsync@@@1@@Z 1015ddb0 f i RPC.obj
 0002:00064dd0       ??$destroy@U?$pair@$$CBHPAVNPRPCAsync@@@std@@@?$allocator_traits@V?$allocator@U?$_Tree_node@U?$pair@$$CBHPAVNPRPCAsync@@@std@@PAX@std@@@std@@@std@@SAXAAV?$allocator@U?$_Tree_node@U?$pair@$$CBHPAVNPRPCAsync@@@std@@PAX@std@@@1@PAU?$pair@$$CBHPAVNPRPCAsync@@@1@@Z 1015ddd0 f i RPC.obj
 0002:00064e00       ??$destroy@Urpc_dispatch_handler_s@@@?$_Wrap_alloc@V?$allocator@Urpc_dispatch_handler_s@@@std@@@std@@QAEXPAUrpc_dispatch_handler_s@@@Z 1015de00 f i RPC.obj
 0002:00064e30       ??$destroy@Urpc_dispatch_handler_s@@@?$allocator@Urpc_dispatch_handler_s@@@std@@QAEXPAUrpc_dispatch_handler_s@@@Z 1015de30 f i RPC.obj
 0002:00064e50       ??$destroy@Urpc_dispatch_handler_s@@@?$allocator_traits@V?$allocator@Urpc_dispatch_handler_s@@@std@@@std@@SAXAAV?$allocator@Urpc_dispatch_handler_s@@@1@PAUrpc_dispatch_handler_s@@@Z 1015de50 f i RPC.obj
 0002:00064e80       ??$emplace_hint@ABUpiecewise_construct_t@std@@V?$tuple@ABH@2@V?$tuple@$$$V@2@@?$_Tree@V?$_Tmap_traits@HPAVNPRPCAsync@@U?$less@H@std@@V?$allocator@U?$pair@$$CBHPAVNPRPCAsync@@@std@@@3@$0A@@std@@@std@@QAE?AV?$_Tree_iterator@V?$_Tree_val@U?$_Tree_simple_types@U?$pair@$$CBHPAVNPRPCAsync@@@std@@@std@@@std@@@1@V?$_Tree_const_iterator@V?$_Tree_val@U?$_Tree_simple_types@U?$pair@$$CBHPAVNPRPCAsync@@@std@@@std@@@std@@@1@ABUpiecewise_construct_t@1@$$QAV?$tuple@ABH@1@$$QAV?$tuple@$$$V@1@@Z 1015de80 f i RPC.obj
 0002:00064f10       ??$forward@AAPAU?$_Tree_node@U?$pair@$$CBHPAVNPRPCAsync@@@std@@PAX@std@@@std@@YAAAPAU?$_Tree_node@U?$pair@$$CBHPAVNPRPCAsync@@@std@@PAX@0@AAPAU10@@Z 1015df10 f i RPC.obj
 0002:00064f30       ??$forward@AAPAVNPRPCAsync@@@std@@YAAAPAVNPRPCAsync@@AAPAV1@@Z 1015df30 f i RPC.obj
 0002:00064f50       ??$forward@AAU?$pair@$$CBHPAVNPRPCAsync@@@std@@@std@@YAAAU?$pair@$$CBHPAVNPRPCAsync@@@0@AAU10@@Z 1015df50 f i RPC.obj
 0002:00064f70       ??$forward@AAUrpc_dispatch_handler_s@@@std@@YAAAUrpc_dispatch_handler_s@@AAU1@@Z 1015df70 f i RPC.obj
 0002:00064f90       ??$forward@AAV?$_Tree_iterator@V?$_Tree_val@U?$_Tree_simple_types@U?$pair@$$CBHPAVNPRPCAsync@@@std@@@std@@@std@@@std@@@std@@YAAAV?$_Tree_iterator@V?$_Tree_val@U?$_Tree_simple_types@U?$pair@$$CBHPAVNPRPCAsync@@@std@@@std@@@std@@@0@AAV10@@Z 1015df90 f i RPC.obj
 0002:00064fb0       ??$forward@ABH@std@@YAABHABH@Z 1015dfb0 f i RPC.obj
 0002:00064fd0       ??$forward@ABQAVNPRPCAsync@@@std@@YAABQAVNPRPCAsync@@ABQAV1@@Z 1015dfd0 f i RPC.obj
 0002:00064ff0       ??$forward@ABUrpc_dispatch_handler_s@@@std@@YAABUrpc_dispatch_handler_s@@ABU1@@Z 1015dff0 f i RPC.obj
 0002:00065010       ??$forward@Urpc_dispatch_handler_s@@@std@@YA$$QAUrpc_dispatch_handler_s@@AAU1@@Z 1015e010 f i RPC.obj
 0002:00065030       ??$forward@V?$_Tree_iterator@V?$_Tree_val@U?$_Tree_simple_types@U?$pair@$$CBHPAVNPRPCAsync@@@std@@@std@@@std@@@std@@@std@@YA$$QAV?$_Tree_iterator@V?$_Tree_val@U?$_Tree_simple_types@U?$pair@$$CBHPAVNPRPCAsync@@@std@@@std@@@std@@@0@AAV10@@Z 1015e030 f i RPC.obj
 0002:00065050       ??$forward@V?$tuple@ABH@std@@@std@@YA$$QAV?$tuple@ABH@0@AAV10@@Z 1015e050 f i RPC.obj
 0002:00065070       ??$forward_as_tuple@ABH@std@@YA?AV?$tuple@ABH@0@ABH@Z 1015e070 f i RPC.obj
 0002:000650b0       ??$get@$0A@ABH@std@@YAABH$$QAV?$tuple@ABH@0@@Z 1015e0b0 f i RPC.obj
 0002:000650e0       ??$move@AAV?$tuple@ABH@std@@@std@@YA$$QAV?$tuple@ABH@0@AAV10@@Z 1015e0e0 f i RPC.obj
 0002:00065100       ??$use_facet@V?$codecvt@DDH@std@@@std@@YAABV?$codecvt@DDH@0@ABVlocale@0@@Z 1015e100 f i RPC.obj
 0002:00065240       ??$use_facet@V?$ctype@D@std@@@std@@YAABV?$ctype@D@0@ABVlocale@0@@Z 1015e240 f i RPC.obj
 0002:00065380       ??0?$NPAsync@VINPRPCMessage@@@@QAE@XZ 1015e380 f i RPC.obj
 0002:000653b0       ??0?$_Tree@V?$_Tmap_traits@HPAVNPRPCAsync@@U?$less@H@std@@V?$allocator@U?$pair@$$CBHPAVNPRPCAsync@@@std@@@3@$0A@@std@@@std@@QAE@ABU?$less@H@1@ABV?$allocator@U?$pair@$$CBHPAVNPRPCAsync@@@std@@@1@@Z 1015e3b0 f i RPC.obj
 0002:000653f0       ??0?$_Tree_alloc@$0A@U?$_Tree_base_types@U?$pair@$$CBHPAVNPRPCAsync@@@std@@V?$allocator@U?$pair@$$CBHPAVNPRPCAsync@@@std@@@2@@std@@@std@@QAE@ABV?$allocator@U?$pair@$$CBHPAVNPRPCAsync@@@std@@@1@@Z 1015e3f0 f i RPC.obj
 0002:00065430       ??0?$_Tree_buy@U?$pair@$$CBHPAVNPRPCAsync@@@std@@V?$allocator@U?$pair@$$CBHPAVNPRPCAsync@@@std@@@2@@std@@QAE@ABV?$allocator@U?$pair@$$CBHPAVNPRPCAsync@@@std@@@1@@Z 1015e430 f i RPC.obj
 0002:00065460       ??0?$_Tree_comp@$0A@V?$_Tmap_traits@HPAVNPRPCAsync@@U?$less@H@std@@V?$allocator@U?$pair@$$CBHPAVNPRPCAsync@@@std@@@3@$0A@@std@@@std@@QAE@ABU?$less@H@1@ABV?$allocator@U?$pair@$$CBHPAVNPRPCAsync@@@std@@@1@@Z 1015e460 f i RPC.obj
 0002:00065490       ??0?$_Tree_const_iterator@V?$_Tree_val@U?$_Tree_simple_types@U?$pair@$$CBHPAVNPRPCAsync@@@std@@@std@@@std@@@std@@QAE@PAU?$_Tree_node@U?$pair@$$CBHPAVNPRPCAsync@@@std@@PAX@1@PBV?$_Tree_val@U?$_Tree_simple_types@U?$pair@$$CBHPAVNPRPCAsync@@@std@@@std@@@1@@Z 1015e490 f i RPC.obj
 0002:000654d0       ??0?$_Tree_const_iterator@V?$_Tree_val@U?$_Tree_simple_types@U?$pair@$$CBHPAVNPRPCAsync@@@std@@@std@@@std@@@std@@QAE@XZ 1015e4d0 f i RPC.obj
 0002:00065500       ??0?$_Tree_iterator@V?$_Tree_val@U?$_Tree_simple_types@U?$pair@$$CBHPAVNPRPCAsync@@@std@@@std@@@std@@@std@@QAE@PAU?$_Tree_node@U?$pair@$$CBHPAVNPRPCAsync@@@std@@PAX@1@PBV?$_Tree_val@U?$_Tree_simple_types@U?$pair@$$CBHPAVNPRPCAsync@@@std@@@std@@@1@@Z 1015e500 f i RPC.obj
 0002:00065540       ??0?$_Tree_unchecked_const_iterator@V?$_Tree_val@U?$_Tree_simple_types@U?$pair@$$CBHPAVNPRPCAsync@@@std@@@std@@@std@@U_Iterator_base0@2@@std@@QAE@PAU?$_Tree_node@U?$pair@$$CBHPAVNPRPCAsync@@@std@@PAX@1@PBV?$_Tree_val@U?$_Tree_simple_types@U?$pair@$$CBHPAVNPRPCAsync@@@std@@@std@@@1@@Z 1015e540 f i RPC.obj
 0002:00065580       ??0?$_Tree_unchecked_const_iterator@V?$_Tree_val@U?$_Tree_simple_types@U?$pair@$$CBHPAVNPRPCAsync@@@std@@@std@@@std@@U_Iterator_base0@2@@std@@QAE@XZ 1015e580 f i RPC.obj
 0002:000655b0       ??0?$_Tree_val@U?$_Tree_simple_types@U?$pair@$$CBHPAVNPRPCAsync@@@std@@@std@@@std@@QAE@XZ 1015e5b0 f i RPC.obj
 0002:000655f0       ??0?$_Vector_alloc@$0A@U?$_Vec_base_types@PAVNPRPCAsync@@V?$allocator@PAVNPRPCAsync@@@std@@@std@@@std@@QAE@ABV?$allocator@PAVNPRPCAsync@@@1@@Z 1015e5f0 f i RPC.obj
 0002:00065620       ??0?$_Vector_alloc@$0A@U?$_Vec_base_types@Urpc_dispatch_handler_s@@V?$allocator@Urpc_dispatch_handler_s@@@std@@@std@@@std@@QAE@ABV?$allocator@Urpc_dispatch_handler_s@@@1@@Z 1015e620 f i RPC.obj
 0002:00065650       ??0?$_Vector_const_iterator@V?$_Vector_val@U?$_Simple_types@PAVNPRPCAsync@@@std@@@std@@@std@@QAE@PAPAVNPRPCAsync@@PBU_Container_base0@1@@Z 1015e650 f i RPC.obj
 0002:00065690       ??0?$_Vector_const_iterator@V?$_Vector_val@U?$_Simple_types@Urpc_dispatch_handler_s@@@std@@@std@@@std@@QAE@PAUrpc_dispatch_handler_s@@PBU_Container_base0@1@@Z 1015e690 f i RPC.obj
 0002:000656d0       ??0?$_Vector_iterator@V?$_Vector_val@U?$_Simple_types@PAVNPRPCAsync@@@std@@@std@@@std@@QAE@PAPAVNPRPCAsync@@PBU_Container_base0@1@@Z 1015e6d0 f i RPC.obj
 0002:00065710       ??0?$_Vector_iterator@V?$_Vector_val@U?$_Simple_types@Urpc_dispatch_handler_s@@@std@@@std@@@std@@QAE@PAUrpc_dispatch_handler_s@@PBU_Container_base0@1@@Z 1015e710 f i RPC.obj
 0002:00065750       ??0?$_Vector_val@U?$_Simple_types@PAVNPRPCAsync@@@std@@@std@@QAE@XZ 1015e750 f i RPC.obj
 0002:00065790       ??0?$_Vector_val@U?$_Simple_types@Urpc_dispatch_handler_s@@@std@@@std@@QAE@XZ 1015e790 f i RPC.obj
 0002:000657d0       ??0?$_Wrap_alloc@V?$allocator@PAVNPRPCAsync@@@std@@@std@@QAE@XZ 1015e7d0 f i RPC.obj
 0002:00065800       ??0?$_Wrap_alloc@V?$allocator@U?$_Tree_node@U?$pair@$$CBHPAVNPRPCAsync@@@std@@PAX@std@@@std@@@std@@QAE@XZ 1015e800 f i RPC.obj
 0002:00065830       ??0?$_Wrap_alloc@V?$allocator@Urpc_dispatch_handler_s@@@std@@@std@@QAE@XZ 1015e830 f i RPC.obj
 0002:00065860       ??0?$_Yarn@D@std@@QAE@XZ   1015e860 f i RPC.obj
 0002:00065890       ??0?$_Yarn@_W@std@@QAE@XZ  1015e890 f i RPC.obj
 0002:000658d0       ??0?$allocator@PAVNPRPCAsync@@@std@@QAE@XZ 1015e8d0 f i RPC.obj
 0002:000658f0       ??0?$allocator@U?$_Tree_node@U?$pair@$$CBHPAVNPRPCAsync@@@std@@PAX@std@@@std@@QAE@XZ 1015e8f0 f i RPC.obj
 0002:00065910       ??0?$allocator@U?$pair@$$CBHPAVNPRPCAsync@@@std@@@std@@QAE@XZ 1015e910 f i RPC.obj
 0002:00065930       ??0?$allocator@Urpc_dispatch_handler_s@@@std@@QAE@XZ 1015e930 f i RPC.obj
 0002:00065950       ??0?$basic_filebuf@DU?$char_traits@D@std@@@std@@QAE@PAU_iobuf@@@Z 1015e950 f i RPC.obj
 0002:000659e0       ??0?$basic_ifstream@DU?$char_traits@D@std@@@std@@QAE@PBDHH@Z 1015e9e0 f i RPC.obj
 0002:00065b30       ??0?$basic_ios@DU?$char_traits@D@std@@@std@@IAE@XZ 1015eb30 f i RPC.obj
 0002:00065b60       ??0?$basic_istream@DU?$char_traits@D@std@@@std@@QAE@PAV?$basic_streambuf@DU?$char_traits@D@std@@@1@_N@Z 1015eb60 f i RPC.obj
 0002:00065c70       ??0?$basic_ofstream@DU?$char_traits@D@std@@@std@@QAE@PBDHH@Z 1015ec70 f i RPC.obj
 0002:00065dc0       ??0?$basic_ostream@DU?$char_traits@D@std@@@std@@QAE@PAV?$basic_streambuf@DU?$char_traits@D@std@@@1@_N@Z 1015edc0 f i RPC.obj
 0002:00065eb0       ??0?$basic_streambuf@DU?$char_traits@D@std@@@std@@IAE@XZ 1015eeb0 f i RPC.obj
 0002:00065f20       ??0?$basic_string@DU?$char_traits@D@std@@V?$allocator@D@2@@std@@QAE@ID@Z 1015ef20 f i RPC.obj
 0002:00065f80       ??0?$codecvt@DDH@std@@QAE@ABV_Locinfo@1@I@Z 1015ef80 f i RPC.obj
 0002:00066010       ??0?$ctype@D@std@@QAE@ABV_Locinfo@1@I@Z 1015f010 f i RPC.obj
 0002:000660a0       ??0?$fpos@H@std@@QAE@H_J@Z 1015f0a0 f i RPC.obj
 0002:000660f0       ??0?$fpos@H@std@@QAE@_J@Z  1015f0f0 f i RPC.obj
 0002:00066150       ??0?$map@HPAVNPRPCAsync@@U?$less@H@std@@V?$allocator@U?$pair@$$CBHPAVNPRPCAsync@@@std@@@3@@std@@QAE@XZ 1015f150 f i RPC.obj
 0002:00066190       ??0?$tuple@ABH@std@@QAE@ABH@Z 1015f190 f i RPC.obj
 0002:000661d0       ??0?$vector@PAVNPRPCAsync@@V?$allocator@PAVNPRPCAsync@@@std@@@std@@QAE@XZ 1015f1d0 f i RPC.obj
 0002:00066200       ??0?$vector@Urpc_dispatch_handler_s@@V?$allocator@Urpc_dispatch_handler_s@@@std@@@std@@QAE@XZ 1015f200 f i RPC.obj
 0002:00066230       ??0NPRPCAsync@@QAE@XZ      1015f230 f i RPC.obj
 0002:00066290       ??0_Facet_base@std@@QAE@XZ 1015f290 f i RPC.obj
 0002:000662c0       ??0_Locinfo@std@@QAE@PBD@Z 1015f2c0 f i RPC.obj
 0002:000663e0       ??0_Sentry_base@?$basic_istream@DU?$char_traits@D@std@@@std@@QAE@AAV12@@Z 1015f3e0 f i RPC.obj
 0002:00066460       ??0_Sentry_base@?$basic_ostream@DU?$char_traits@D@std@@@std@@QAE@AAV12@@Z 1015f460 f i RPC.obj
 0002:000664e0       ??0_System_error@std@@IAE@Verror_code@1@ABV?$basic_string@DU?$char_traits@D@std@@V?$allocator@D@2@@1@@Z 1015f4e0 f i RPC.obj
 0002:000665d0       ??0_System_error@std@@QAE@ABV01@@Z 1015f5d0 f i RPC.obj
 0002:00066620       ??0codecvt_base@std@@QAE@I@Z 1015f620 f i RPC.obj
 0002:00066660       ??0ctype_base@std@@QAE@I@Z 1015f660 f i RPC.obj
 0002:000666a0       ??0error_code@std@@QAE@HABVerror_category@1@@Z 1015f6a0 f i RPC.obj
 0002:000666e0       ??0facet@locale@std@@IAE@I@Z 1015f6e0 f i RPC.obj
 0002:00066780       ??0failure@ios_base@std@@QAE@ABV012@@Z 1015f780 f i RPC.obj
 0002:000667c0       ??0failure@ios_base@std@@QAE@PBDABVerror_code@2@@Z 1015f7c0 f i RPC.obj
 0002:00066810       ??0ios_base@std@@IAE@XZ    1015f810 f i RPC.obj
 0002:00066840       ??0locale@std@@QAE@ABV01@@Z 1015f840 f i RPC.obj
 0002:00066880       ??0locale@std@@QAE@XZ      1015f880 f i RPC.obj
 0002:000668b0       ??0rpc_state_s@@QAE@XZ     1015f8b0 f i RPC.obj
 0002:00066940       ??0runtime_error@std@@QAE@ABV01@@Z 1015f940 f i RPC.obj
 0002:00066980       ??0runtime_error@std@@QAE@ABV?$basic_string@DU?$char_traits@D@std@@V?$allocator@D@2@@1@@Z 1015f980 f i RPC.obj
 0002:000669d0       ??0runtime_error@std@@QAE@PBD@Z 1015f9d0 f i RPC.obj
 0002:00066a10       ??0sentry@?$basic_istream@DU?$char_traits@D@std@@@std@@QAE@AAV12@_N@Z 1015fa10 f i RPC.obj
 0002:00066aa0       ??0sentry@?$basic_ostream@DU?$char_traits@D@std@@@std@@QAE@AAV12@@Z 1015faa0 f i RPC.obj
 0002:00066bb0       ??0system_error@std@@QAE@ABV01@@Z 1015fbb0 f i RPC.obj
 0002:00066bf0       ??0system_error@std@@QAE@Verror_code@1@PBD@Z 1015fbf0 f i RPC.obj
 0002:00066cb0       ??1?$_Tree@V?$_Tmap_traits@HPAVNPRPCAsync@@U?$less@H@std@@V?$allocator@U?$pair@$$CBHPAVNPRPCAsync@@@std@@@3@$0A@@std@@@std@@QAE@XZ 1015fcb0 f i RPC.obj
 0002:00066ce0       ??1?$_Tree_alloc@$0A@U?$_Tree_base_types@U?$pair@$$CBHPAVNPRPCAsync@@@std@@V?$allocator@U?$pair@$$CBHPAVNPRPCAsync@@@std@@@2@@std@@@std@@QAE@XZ 1015fce0 f i RPC.obj
 0002:00066d10       ??1?$_Tree_buy@U?$pair@$$CBHPAVNPRPCAsync@@@std@@V?$allocator@U?$pair@$$CBHPAVNPRPCAsync@@@std@@@2@@std@@QAE@XZ 1015fd10 f i RPC.obj
 0002:00066d40       ??1?$_Tree_comp@$0A@V?$_Tmap_traits@HPAVNPRPCAsync@@U?$less@H@std@@V?$allocator@U?$pair@$$CBHPAVNPRPCAsync@@@std@@@3@$0A@@std@@@std@@QAE@XZ 1015fd40 f i RPC.obj
 0002:00066d70       ??1?$_Yarn@D@std@@QAE@XZ   1015fd70 f i RPC.obj
 0002:00066da0       ??1?$_Yarn@_W@std@@QAE@XZ  1015fda0 f i RPC.obj
 0002:00066dd0       ??1?$basic_filebuf@DU?$char_traits@D@std@@@std@@UAE@XZ 1015fdd0 f i RPC.obj
 0002:00066e30       ??1?$basic_ifstream@DU?$char_traits@D@std@@@std@@UAE@XZ 1015fe30 f i RPC.obj
 0002:00066ea0       ??1?$basic_ios@DU?$char_traits@D@std@@@std@@UAE@XZ 1015fea0 f i RPC.obj
 0002:00066ed0       ??1?$basic_istream@DU?$char_traits@D@std@@@std@@UAE@XZ 1015fed0 f i RPC.obj
 0002:00066f30       ??1?$basic_ofstream@DU?$char_traits@D@std@@@std@@UAE@XZ 1015ff30 f i RPC.obj
 0002:00066fa0       ??1?$basic_ostream@DU?$char_traits@D@std@@@std@@UAE@XZ 1015ffa0 f i RPC.obj
 0002:00067000       ??1?$basic_streambuf@DU?$char_traits@D@std@@@std@@UAE@XZ 10160000 f i RPC.obj
 0002:00067060       ??1?$codecvt@DDH@std@@MAE@XZ 10160060 f i RPC.obj
 0002:00067090       ??1?$ctype@D@std@@MAE@XZ   10160090 f i RPC.obj
 0002:000670d0       ??1?$map@HPAVNPRPCAsync@@U?$less@H@std@@V?$allocator@U?$pair@$$CBHPAVNPRPCAsync@@@std@@@3@@std@@QAE@XZ 101600d0 f i RPC.obj
 0002:00067100       ??1?$vector@PAVNPRPCAsync@@V?$allocator@PAVNPRPCAsync@@@std@@@std@@QAE@XZ 10160100 f i RPC.obj
 0002:00067130       ??1?$vector@Urpc_dispatch_handler_s@@V?$allocator@Urpc_dispatch_handler_s@@@std@@@std@@QAE@XZ 10160130 f i RPC.obj
 0002:00067160       ??1_Facet_base@std@@UAE@XZ 10160160 f i RPC.obj
 0002:00067190       ??1_Locinfo@std@@QAE@XZ    10160190 f i RPC.obj
 0002:00067220       ??1_Sentry_base@?$basic_istream@DU?$char_traits@D@std@@@std@@QAE@XZ 10160220 f i RPC.obj
 0002:00067290       ??1_Sentry_base@?$basic_ostream@DU?$char_traits@D@std@@@std@@QAE@XZ 10160290 f i RPC.obj
 0002:00067300       ??1_System_error@std@@UAE@XZ 10160300 f i RPC.obj
 0002:00067330       ??1codecvt_base@std@@UAE@XZ 10160330 f i RPC.obj
 0002:00067360       ??1ctype_base@std@@UAE@XZ  10160360 f i RPC.obj
 0002:00067390       ??1facet@locale@std@@MAE@XZ 10160390 f i RPC.obj
 0002:000673c0       ??1failure@ios_base@std@@UAE@XZ 101603c0 f i RPC.obj
 0002:000673f0       ??1ios_base@std@@UAE@XZ    101603f0 f i RPC.obj
 0002:00067430       ??1locale@std@@QAE@XZ      10160430 f i RPC.obj
 0002:000674a0       ??1rpc_state_s@@QAE@XZ     101604a0 f i RPC.obj
 0002:000674f0       ??1runtime_error@std@@UAE@XZ 101604f0 f i RPC.obj
 0002:00067520       ??1sentry@?$basic_istream@DU?$char_traits@D@std@@@std@@QAE@XZ 10160520 f i RPC.obj
 0002:00067550       ??1sentry@?$basic_ostream@DU?$char_traits@D@std@@@std@@QAE@XZ 10160550 f i RPC.obj
 0002:00067590       ??1system_error@std@@UAE@XZ 10160590 f i RPC.obj
 0002:000675c0       ??8?$_Tree_const_iterator@V?$_Tree_val@U?$_Tree_simple_types@U?$pair@$$CBHPAVNPRPCAsync@@@std@@@std@@@std@@@std@@QBE_NABV01@@Z 101605c0 f i RPC.obj
 0002:00067610       ??8?$_Vector_const_iterator@V?$_Vector_val@U?$_Simple_types@PAVNPRPCAsync@@@std@@@std@@@std@@QBE_NABV01@@Z 10160610 f i RPC.obj
 0002:00067660       ??8?$_Vector_const_iterator@V?$_Vector_val@U?$_Simple_types@Urpc_dispatch_handler_s@@@std@@@std@@@std@@QBE_NABV01@@Z 10160660 f i RPC.obj
 0002:000676b0       ??9?$_Tree_const_iterator@V?$_Tree_val@U?$_Tree_simple_types@U?$pair@$$CBHPAVNPRPCAsync@@@std@@@std@@@std@@@std@@QBE_NABV01@@Z 101606b0 f i RPC.obj
 0002:00067700       ??9?$_Vector_const_iterator@V?$_Vector_val@U?$_Simple_types@PAVNPRPCAsync@@@std@@@std@@@std@@QBE_NABV01@@Z 10160700 f i RPC.obj
 0002:00067750       ??9?$_Vector_const_iterator@V?$_Vector_val@U?$_Simple_types@Urpc_dispatch_handler_s@@@std@@@std@@@std@@QBE_NABV01@@Z 10160750 f i RPC.obj
 0002:000677a0       ??A?$map@HPAVNPRPCAsync@@U?$less@H@std@@V?$allocator@U?$pair@$$CBHPAVNPRPCAsync@@@std@@@3@@std@@QAEAAPAVNPRPCAsync@@ABH@Z 101607a0 f i RPC.obj
 0002:00067890       ??B?$fpos@H@std@@QBE_JXZ   10160890 f i RPC.obj
 0002:000678d0       ??Bid@locale@std@@QAEIXZ   101608d0 f i RPC.obj
 0002:00067940       ??Bsentry@?$basic_istream@DU?$char_traits@D@std@@@std@@QBE_NXZ 10160940 f i RPC.obj
 0002:00067960       ??Bsentry@?$basic_ostream@DU?$char_traits@D@std@@@std@@QBE_NXZ 10160960 f i RPC.obj
 0002:00067980       ??C?$_Tree_iterator@V?$_Tree_val@U?$_Tree_simple_types@U?$pair@$$CBHPAVNPRPCAsync@@@std@@@std@@@std@@@std@@QBEPAU?$pair@$$CBHPAVNPRPCAsync@@@1@XZ 10160980 f i RPC.obj
 0002:000679b0       ??C?$_Vector_iterator@V?$_Vector_val@U?$_Simple_types@Urpc_dispatch_handler_s@@@std@@@std@@@std@@QBEPAUrpc_dispatch_handler_s@@XZ 101609b0 f i RPC.obj
 0002:000679e0       ??D?$_String_const_iterator@V?$_String_val@U?$_Simple_types@D@std@@@std@@@std@@QBEABDXZ 101609e0 f i RPC.obj
 0002:00067a00       ??D?$_String_iterator@V?$_String_val@U?$_Simple_types@D@std@@@std@@@std@@QBEAADXZ 10160a00 f i RPC.obj
 0002:00067a30       ??D?$_Tree_const_iterator@V?$_Tree_val@U?$_Tree_simple_types@U?$pair@$$CBHPAVNPRPCAsync@@@std@@@std@@@std@@@std@@QBEABU?$pair@$$CBHPAVNPRPCAsync@@@1@XZ 10160a30 f i RPC.obj
 0002:00067a60       ??D?$_Tree_iterator@V?$_Tree_val@U?$_Tree_simple_types@U?$pair@$$CBHPAVNPRPCAsync@@@std@@@std@@@std@@@std@@QBEAAU?$pair@$$CBHPAVNPRPCAsync@@@1@XZ 10160a60 f i RPC.obj
 0002:00067a90       ??D?$_Vector_const_iterator@V?$_Vector_val@U?$_Simple_types@PAVNPRPCAsync@@@std@@@std@@@std@@QBEABQAVNPRPCAsync@@XZ 10160a90 f i RPC.obj
 0002:00067ab0       ??D?$_Vector_const_iterator@V?$_Vector_val@U?$_Simple_types@Urpc_dispatch_handler_s@@@std@@@std@@@std@@QBEABUrpc_dispatch_handler_s@@XZ 10160ab0 f i RPC.obj
 0002:00067ad0       ??D?$_Vector_iterator@V?$_Vector_val@U?$_Simple_types@PAVNPRPCAsync@@@std@@@std@@@std@@QBEAAPAVNPRPCAsync@@XZ 10160ad0 f i RPC.obj
 0002:00067b00       ??D?$_Vector_iterator@V?$_Vector_val@U?$_Simple_types@Urpc_dispatch_handler_s@@@std@@@std@@@std@@QBEAAUrpc_dispatch_handler_s@@XZ 10160b00 f i RPC.obj
 0002:00067b30       ??E?$_Tree_const_iterator@V?$_Tree_val@U?$_Tree_simple_types@U?$pair@$$CBHPAVNPRPCAsync@@@std@@@std@@@std@@@std@@QAE?AV01@H@Z 10160b30 f i RPC.obj
 0002:00067b70       ??E?$_Tree_const_iterator@V?$_Tree_val@U?$_Tree_simple_types@U?$pair@$$CBHPAVNPRPCAsync@@@std@@@std@@@std@@@std@@QAEAAV01@XZ 10160b70 f i RPC.obj
 0002:00067ba0       ??E?$_Tree_unchecked_const_iterator@V?$_Tree_val@U?$_Tree_simple_types@U?$pair@$$CBHPAVNPRPCAsync@@@std@@@std@@@std@@U_Iterator_base0@2@@std@@QAEAAV01@XZ 10160ba0 f i RPC.obj
 0002:00067c90       ??E?$_Vector_const_iterator@V?$_Vector_val@U?$_Simple_types@PAVNPRPCAsync@@@std@@@std@@@std@@QAEAAV01@XZ 10160c90 f i RPC.obj
 0002:00067cc0       ??E?$_Vector_const_iterator@V?$_Vector_val@U?$_Simple_types@Urpc_dispatch_handler_s@@@std@@@std@@@std@@QAEAAV01@XZ 10160cc0 f i RPC.obj
 0002:00067cf0       ??E?$_Vector_iterator@V?$_Vector_val@U?$_Simple_types@PAVNPRPCAsync@@@std@@@std@@@std@@QAE?AV01@H@Z 10160cf0 f i RPC.obj
 0002:00067d30       ??E?$_Vector_iterator@V?$_Vector_val@U?$_Simple_types@PAVNPRPCAsync@@@std@@@std@@@std@@QAEAAV01@XZ 10160d30 f i RPC.obj
 0002:00067d60       ??E?$_Vector_iterator@V?$_Vector_val@U?$_Simple_types@Urpc_dispatch_handler_s@@@std@@@std@@@std@@QAE?AV01@H@Z 10160d60 f i RPC.obj
 0002:00067da0       ??E?$_Vector_iterator@V?$_Vector_val@U?$_Simple_types@Urpc_dispatch_handler_s@@@std@@@std@@@std@@QAEAAV01@XZ 10160da0 f i RPC.obj
 0002:00067dd0       ??F?$_Tree_const_iterator@V?$_Tree_val@U?$_Tree_simple_types@U?$pair@$$CBHPAVNPRPCAsync@@@std@@@std@@@std@@@std@@QAEAAV01@XZ 10160dd0 f i RPC.obj
 0002:00067e00       ??F?$_Tree_iterator@V?$_Tree_val@U?$_Tree_simple_types@U?$pair@$$CBHPAVNPRPCAsync@@@std@@@std@@@std@@@std@@QAEAAV01@XZ 10160e00 f i RPC.obj
 0002:00067e30       ??F?$_Tree_unchecked_const_iterator@V?$_Tree_val@U?$_Tree_simple_types@U?$pair@$$CBHPAVNPRPCAsync@@@std@@@std@@@std@@U_Iterator_base0@2@@std@@QAEAAV01@XZ 10160e30 f i RPC.obj
 0002:00067f60       ??R?$less@H@std@@QBE_NABH0@Z 10160f60 f i RPC.obj
 0002:00067fb0       ??_D?$basic_ifstream@DU?$char_traits@D@std@@@std@@QAEXXZ 10160fb0 f i RPC.obj
 0002:00067ff0       ??_D?$basic_istream@DU?$char_traits@D@std@@@std@@QAEXXZ 10160ff0 f i RPC.obj
 0002:00068030       ??_D?$basic_ofstream@DU?$char_traits@D@std@@@std@@QAEXXZ 10161030 f i RPC.obj
 0002:00068070       ??_D?$basic_ostream@DU?$char_traits@D@std@@@std@@QAEXXZ 10161070 f i RPC.obj
 0002:000680a3       ??_E?$basic_ifstream@DU?$char_traits@D@std@@@std@@$4PPPPPPPM@A@AEPAXI@Z 101610a3 f i RPC.obj
 0002:000680ad       ??_E?$basic_istream@DU?$char_traits@D@std@@@std@@$4PPPPPPPM@A@AEPAXI@Z 101610ad f i RPC.obj
 0002:000680b7       ??_E?$basic_ofstream@DU?$char_traits@D@std@@@std@@$4PPPPPPPM@A@AEPAXI@Z 101610b7 f i RPC.obj
 0002:000680c1       ??_E?$basic_ostream@DU?$char_traits@D@std@@@std@@$4PPPPPPPM@A@AEPAXI@Z 101610c1 f i RPC.obj
 0002:000680d0       ??_E?$basic_filebuf@DU?$char_traits@D@std@@@std@@UAEPAXI@Z 101610d0 f i RPC.obj
 0002:000680d0       ??_G?$basic_filebuf@DU?$char_traits@D@std@@@std@@UAEPAXI@Z 101610d0 f i RPC.obj
 0002:00068120       ??_G?$basic_ifstream@DU?$char_traits@D@std@@@std@@UAEPAXI@Z 10161120 f i RPC.obj
 0002:00068120       ??_E?$basic_ifstream@DU?$char_traits@D@std@@@std@@UAEPAXI@Z 10161120 f i RPC.obj
 0002:00068170       ??_E?$basic_ios@DU?$char_traits@D@std@@@std@@UAEPAXI@Z 10161170 f i RPC.obj
 0002:00068170       ??_G?$basic_ios@DU?$char_traits@D@std@@@std@@UAEPAXI@Z 10161170 f i RPC.obj
 0002:000681c0       ??_G?$basic_istream@DU?$char_traits@D@std@@@std@@UAEPAXI@Z 101611c0 f i RPC.obj
 0002:000681c0       ??_E?$basic_istream@DU?$char_traits@D@std@@@std@@UAEPAXI@Z 101611c0 f i RPC.obj
 0002:00068210       ??_E?$basic_ofstream@DU?$char_traits@D@std@@@std@@UAEPAXI@Z 10161210 f i RPC.obj
 0002:00068210       ??_G?$basic_ofstream@DU?$char_traits@D@std@@@std@@UAEPAXI@Z 10161210 f i RPC.obj
 0002:00068260       ??_G?$basic_ostream@DU?$char_traits@D@std@@@std@@UAEPAXI@Z 10161260 f i RPC.obj
 0002:00068260       ??_E?$basic_ostream@DU?$char_traits@D@std@@@std@@UAEPAXI@Z 10161260 f i RPC.obj
 0002:000682b0       ??_G?$basic_streambuf@DU?$char_traits@D@std@@@std@@UAEPAXI@Z 101612b0 f i RPC.obj
 0002:000682b0       ??_E?$basic_streambuf@DU?$char_traits@D@std@@@std@@UAEPAXI@Z 101612b0 f i RPC.obj
 0002:00068300       ??_E?$codecvt@DDH@std@@MAEPAXI@Z 10161300 f i RPC.obj
 0002:00068300       ??_G?$codecvt@DDH@std@@MAEPAXI@Z 10161300 f i RPC.obj
 0002:00068350       ??_G?$ctype@D@std@@MAEPAXI@Z 10161350 f i RPC.obj
 0002:00068350       ??_E?$ctype@D@std@@MAEPAXI@Z 10161350 f i RPC.obj
 0002:000683a0       ??_E_Facet_base@std@@UAEPAXI@Z 101613a0 f i RPC.obj
 0002:000683a0       ??_G_Facet_base@std@@UAEPAXI@Z 101613a0 f i RPC.obj
 0002:000683f0       ??_E_System_error@std@@UAEPAXI@Z 101613f0 f i RPC.obj
 0002:000683f0       ??_G_System_error@std@@UAEPAXI@Z 101613f0 f i RPC.obj
 0002:00068440       ??_Gcodecvt_base@std@@UAEPAXI@Z 10161440 f i RPC.obj
 0002:00068440       ??_Ecodecvt_base@std@@UAEPAXI@Z 10161440 f i RPC.obj
 0002:00068490       ??_Ectype_base@std@@UAEPAXI@Z 10161490 f i RPC.obj
 0002:00068490       ??_Gctype_base@std@@UAEPAXI@Z 10161490 f i RPC.obj
 0002:000684e0       ??_Gfacet@locale@std@@MAEPAXI@Z 101614e0 f i RPC.obj
 0002:000684e0       ??_Efacet@locale@std@@MAEPAXI@Z 101614e0 f i RPC.obj
 0002:00068530       ??_Gfailure@ios_base@std@@UAEPAXI@Z 10161530 f i RPC.obj
 0002:00068530       ??_Efailure@ios_base@std@@UAEPAXI@Z 10161530 f i RPC.obj
 0002:00068580       ??_Eios_base@std@@UAEPAXI@Z 10161580 f i RPC.obj
 0002:00068580       ??_Gios_base@std@@UAEPAXI@Z 10161580 f i RPC.obj
 0002:000685d0       ??_Glocale@std@@QAEPAXI@Z  101615d0 f i RPC.obj
 0002:00068620       ??_Eruntime_error@std@@UAEPAXI@Z 10161620 f i RPC.obj
 0002:00068620       ??_Gruntime_error@std@@UAEPAXI@Z 10161620 f i RPC.obj
 0002:00068670       ??_Esystem_error@std@@UAEPAXI@Z 10161670 f i RPC.obj
 0002:00068670       ??_Gsystem_error@std@@UAEPAXI@Z 10161670 f i RPC.obj
 0002:000686c0       ?Free@NPRPCAsync@@UAEXXZ   101616c0 f i RPC.obj
 0002:000686f0       ?GetResult@NPRPCAsync@@UAEPAVINPRPCMessage@@XZ 101616f0 f i RPC.obj
 0002:00068710       ?GetUserData@NPRPCAsync@@UAEPAXXZ 10161710 f i RPC.obj
 0002:00068730       ?HasCompleted@NPRPCAsync@@UAE_NXZ 10161730 f i RPC.obj
 0002:000688f0       ?RPC_GenerateID@@YAHXZ     101618f0 f   RPC.obj
 0002:00068ab0       ?RPC_Init@@YA_NXZ          10161ab0 f   RPC.obj
 0002:00069120       ?RPC_Reconnect@@YAXXZ      10162120 f   RPC.obj
 0002:00069190       ?RPC_RegisterDispatch@@YAXIP6AXPAVINPRPCMessage@@@Z@Z 10162190 f   RPC.obj
 0002:000691e0       ?RPC_RunFrame@@YAXXZ       101621e0 f   RPC.obj
 0002:000692d0       ?RPC_SendMessage@@YAXPAVINPRPCMessage@@@Z 101622d0 f   RPC.obj
 0002:00069300       ?RPC_SendMessage@@YAXPAVINPRPCMessage@@H@Z 10162300 f   RPC.obj
 0002:00069390       ?RPC_SendMessageAsync@@YAPAV?$NPAsync@VINPRPCMessage@@@@PAVINPRPCMessage@@@Z 10162390 f   RPC.obj
 0002:00069480       ?RPC_Shutdown@@YAXXZ       10162480 f   RPC.obj
 0002:00069590       ?RunCallback@NPRPCAsync@@QAEXXZ 10162590 f i RPC.obj
 0002:000695e0       ?SetCallback@NPRPCAsync@@UAEXP6AXPAV?$NPAsync@VINPRPCMessage@@@@@ZPAX@Z 101625e0 f i RPC.obj
 0002:00069610       ?SetResult@NPRPCAsync@@QAEXPAVINPRPCMessage@@@Z 10162610 f i RPC.obj
 0002:00069640       ?Wait@NPRPCAsync@@UAEPAVINPRPCMessage@@XZ 10162640 f i RPC.obj
 0002:00069690       ?_Buyheadnode@?$_Tree_alloc@$0A@U?$_Tree_base_types@U?$pair@$$CBHPAVNPRPCAsync@@@std@@V?$allocator@U?$pair@$$CBHPAVNPRPCAsync@@@std@@@2@@std@@@std@@QAEPAU?$_Tree_node@U?$pair@$$CBHPAVNPRPCAsync@@@std@@PAX@2@XZ 10162690 f i RPC.obj
 0002:00069850       ?_Buynode0@?$_Tree_buy@U?$pair@$$CBHPAVNPRPCAsync@@@std@@V?$allocator@U?$pair@$$CBHPAVNPRPCAsync@@@std@@@2@@std@@QAEPAU?$_Tree_node@U?$pair@$$CBHPAVNPRPCAsync@@@std@@PAX@2@XZ 10162850 f i RPC.obj
 0002:000699f0       ?_Chassign@?$basic_string@DU?$char_traits@D@std@@V?$allocator@D@2@@std@@QAEXIID@Z 101629f0 f i RPC.obj
 0002:00069a60       ?_Color@?$_Tree_val@U?$_Tree_simple_types@U?$pair@$$CBHPAVNPRPCAsync@@@std@@@std@@@std@@SAAADPAU?$_Tree_node@U?$pair@$$CBHPAVNPRPCAsync@@@std@@PAX@2@@Z 10162a60 f i RPC.obj
 0002:00069a80       ?_Compat@?$_Vector_const_iterator@V?$_Vector_val@U?$_Simple_types@PAVNPRPCAsync@@@std@@@std@@@std@@QBEXABV12@@Z 10162a80 f i RPC.obj
 0002:00069aa0       ?_Compat@?$_Vector_const_iterator@V?$_Vector_val@U?$_Simple_types@Urpc_dispatch_handler_s@@@std@@@std@@@std@@QBEXABV12@@Z 10162aa0 f i RPC.obj
 0002:00069ac0       ?_Decref@facet@locale@std@@UAEPAV_Facet_base@3@XZ 10162ac0 f i RPC.obj
 0002:00069b00       ?_Destroy@?$vector@PAVNPRPCAsync@@V?$allocator@PAVNPRPCAsync@@@std@@@std@@IAEXPAPAVNPRPCAsync@@0@Z 10162b00 f i RPC.obj
 0002:00069b50       ?_Destroy@?$vector@Urpc_dispatch_handler_s@@V?$allocator@Urpc_dispatch_handler_s@@@std@@@std@@IAEXPAUrpc_dispatch_handler_s@@0@Z 10162b50 f i RPC.obj
 0002:00069ba0       ?_Destroy_if_not_nil@?$_Tree@V?$_Tmap_traits@HPAVNPRPCAsync@@U?$less@H@std@@V?$allocator@U?$pair@$$CBHPAVNPRPCAsync@@@std@@@3@$0A@@std@@@std@@IAEXPAU?$_Tree_node@U?$pair@$$CBHPAVNPRPCAsync@@@std@@PAX@2@@Z 10162ba0 f i RPC.obj
 0002:00069c10       ?_Endwrite@?$basic_filebuf@DU?$char_traits@D@std@@@std@@IAE_NXZ 10162c10 f i RPC.obj
 0002:00069ed0       ?_Erase@?$_Tree@V?$_Tmap_traits@HPAVNPRPCAsync@@U?$less@H@std@@V?$allocator@U?$pair@$$CBHPAVNPRPCAsync@@@std@@@3@$0A@@std@@@std@@IAEXPAU?$_Tree_node@U?$pair@$$CBHPAVNPRPCAsync@@@std@@PAX@2@@Z 10162ed0 f i RPC.obj
 0002:00069fa0       ?_Freeheadnode@?$_Tree_alloc@$0A@U?$_Tree_base_types@U?$pair@$$CBHPAVNPRPCAsync@@@std@@V?$allocator@U?$pair@$$CBHPAVNPRPCAsync@@@std@@@2@@std@@@std@@QAEXPAU?$_Tree_node@U?$pair@$$CBHPAVNPRPCAsync@@@std@@PAX@2@@Z 10162fa0 f i RPC.obj
 0002:0006a080       ?_Freenode0@?$_Tree_buy@U?$pair@$$CBHPAVNPRPCAsync@@@std@@V?$allocator@U?$pair@$$CBHPAVNPRPCAsync@@@std@@@2@@std@@QAEXPAU?$_Tree_node@U?$pair@$$CBHPAVNPRPCAsync@@@std@@PAX@2@@Z 10163080 f i RPC.obj
 0002:0006a160       ?_Get_rest@?$tuple@ABH@std@@QAEAAV?$tuple@$$$V@2@XZ 10163160 f i RPC.obj
 0002:0006a180       ?_Getal@?$_Tree_alloc@$0A@U?$_Tree_base_types@U?$pair@$$CBHPAVNPRPCAsync@@@std@@V?$allocator@U?$pair@$$CBHPAVNPRPCAsync@@@std@@@2@@std@@@std@@QBE?AU?$_Wrap_alloc@V?$allocator@U?$_Tree_node@U?$pair@$$CBHPAVNPRPCAsync@@@std@@PAX@std@@@std@@@2@XZ 10163180 f i RPC.obj
 0002:0006a1b0       ?_Getal@?$_Vector_alloc@$0A@U?$_Vec_base_types@PAVNPRPCAsync@@V?$allocator@PAVNPRPCAsync@@@std@@@std@@@std@@QBE?AU?$_Wrap_alloc@V?$allocator@PAVNPRPCAsync@@@std@@@2@XZ 101631b0 f i RPC.obj
 0002:0006a1e0       ?_Getal@?$_Vector_alloc@$0A@U?$_Vec_base_types@Urpc_dispatch_handler_s@@V?$allocator@Urpc_dispatch_handler_s@@@std@@@std@@@std@@QBE?AU?$_Wrap_alloc@V?$allocator@Urpc_dispatch_handler_s@@@std@@@2@XZ 101631e0 f i RPC.obj
 0002:0006a210       ?_Getcat@?$codecvt@DDH@std@@SAIPAPBVfacet@locale@2@PBV42@@Z 10163210 f i RPC.obj
 0002:0006a370       ?_Getcat@?$ctype@D@std@@SAIPAPBVfacet@locale@2@PBV42@@Z 10163370 f i RPC.obj
 0002:0006a4d0       ?_Getcomp@?$_Tree_comp@$0A@V?$_Tmap_traits@HPAVNPRPCAsync@@U?$less@H@std@@V?$allocator@U?$pair@$$CBHPAVNPRPCAsync@@@std@@@3@$0A@@std@@@std@@QBE?AU?$less@H@2@XZ 101634d0 f i RPC.obj
 0002:0006a4f0       ?_Getctype@_Locinfo@std@@QBE?AU_Ctypevec@@XZ 101634f0 f i RPC.obj
 0002:0006a560       ?_Getfacet@locale@std@@QBEPBVfacet@12@I@Z 10163560 f i RPC.obj
 0002:0006a610       ?_Gnavail@?$basic_streambuf@DU?$char_traits@D@std@@@std@@IBE_JXZ 10163610 f i RPC.obj
 0002:0006a660       ?_Gndec@?$basic_streambuf@DU?$char_traits@D@std@@@std@@IAEPADXZ 10163660 f i RPC.obj
 0002:0006a6c0       ?_Gninc@?$basic_streambuf@DU?$char_traits@D@std@@@std@@IAEPADXZ 101636c0 f i RPC.obj
 0002:0006a720       ?_Gnpreinc@?$basic_streambuf@DU?$char_traits@D@std@@@std@@IAEPADXZ 10163720 f i RPC.obj
 0002:0006a780       ?_Grow_to@?$vector@PAVNPRPCAsync@@V?$allocator@PAVNPRPCAsync@@@std@@@std@@IBEII@Z 10163780 f i RPC.obj
 0002:0006a800       ?_Grow_to@?$vector@Urpc_dispatch_handler_s@@V?$allocator@Urpc_dispatch_handler_s@@@std@@@std@@IBEII@Z 10163800 f i RPC.obj
 0002:0006a880       ?_Incref@facet@locale@std@@UAEXXZ 10163880 f i RPC.obj
 0002:0006a8b0       ?_Init@?$basic_filebuf@DU?$char_traits@D@std@@@std@@IAEXPAU_iobuf@@W4_Initfl@12@@Z 101638b0 f i RPC.obj
 0002:0006a990       ?_Init@?$basic_streambuf@DU?$char_traits@D@std@@@std@@IAEXPAPAD0PAH001@Z 10163990 f i RPC.obj
 0002:0006a9f0       ?_Init@?$basic_streambuf@DU?$char_traits@D@std@@@std@@IAEXXZ 101639f0 f i RPC.obj
 0002:0006aa90       ?_Init@?$codecvt@DDH@std@@IAEXABV_Locinfo@2@@Z 10163a90 f i RPC.obj
 0002:0006aab0       ?_Init@?$ctype@D@std@@IAEXABV_Locinfo@2@@Z 10163ab0 f i RPC.obj
 0002:0006ab00       ?_Init@ios_base@std@@IAEXXZ 10163b00 f i RPC.obj
 0002:0006abe0       ?_Init_atomic_counter@std@@YAXAAKK@Z 10163be0 f i RPC.obj
 0002:0006ac00       ?_Initcvt@?$basic_filebuf@DU?$char_traits@D@std@@@std@@IAEXPBV?$codecvt@DDH@2@@Z 10163c00 f i RPC.obj
 0002:0006ac60       ?_Inside@?$vector@PAVNPRPCAsync@@V?$allocator@PAVNPRPCAsync@@@std@@@std@@IBE_NPBQAVNPRPCAsync@@@Z 10163c60 f i RPC.obj
 0002:0006acb0       ?_Inside@?$vector@Urpc_dispatch_handler_s@@V?$allocator@Urpc_dispatch_handler_s@@@std@@@std@@IBE_NPBUrpc_dispatch_handler_s@@@Z 10163cb0 f i RPC.obj
 0002:0006ad00       ?_Ipfx@?$basic_istream@DU?$char_traits@D@std@@@std@@QAE_N_N@Z 10163d00 f i RPC.obj
 0002:0006afa0       ?_Isnil@?$_Tree_val@U?$_Tree_simple_types@U?$pair@$$CBHPAVNPRPCAsync@@@std@@@std@@@std@@SAAADPAU?$_Tree_node@U?$pair@$$CBHPAVNPRPCAsync@@@std@@PAX@2@@Z 10163fa0 f i RPC.obj
 0002:0006afc0       ?_Key@?$_Tree@V?$_Tmap_traits@HPAVNPRPCAsync@@U?$less@H@std@@V?$allocator@U?$pair@$$CBHPAVNPRPCAsync@@@std@@@3@$0A@@std@@@std@@IBEABHPAU?$_Tree_node@U?$pair@$$CBHPAVNPRPCAsync@@@std@@PAX@2@@Z 10163fc0 f i RPC.obj
 0002:0006b000       ?_Kfn@?$_Tree@V?$_Tmap_traits@HPAVNPRPCAsync@@U?$less@H@std@@V?$allocator@U?$pair@$$CBHPAVNPRPCAsync@@@std@@@3@$0A@@std@@@std@@IBEABHABU?$pair@$$CBHPAVNPRPCAsync@@@2@@Z 10164000 f i RPC.obj
 0002:0006b030       ?_Lbound@?$_Tree@V?$_Tmap_traits@HPAVNPRPCAsync@@U?$less@H@std@@V?$allocator@U?$pair@$$CBHPAVNPRPCAsync@@@std@@@3@$0A@@std@@@std@@IAEPAU?$_Tree_node@U?$pair@$$CBHPAVNPRPCAsync@@@std@@PAX@2@ABH@Z 10164030 f i RPC.obj
 0002:0006b0f0       ?_Left@?$_Tree_val@U?$_Tree_simple_types@U?$pair@$$CBHPAVNPRPCAsync@@@std@@@std@@@std@@SAAAPAU?$_Tree_node@U?$pair@$$CBHPAVNPRPCAsync@@@std@@PAX@2@PAU32@@Z 101640f0 f i RPC.obj
 0002:0006b110       ?_Lmost@?$_Tree@V?$_Tmap_traits@HPAVNPRPCAsync@@U?$less@H@std@@V?$allocator@U?$pair@$$CBHPAVNPRPCAsync@@@std@@@3@$0A@@std@@@std@@IBEAAPAU?$_Tree_node@U?$pair@$$CBHPAVNPRPCAsync@@@std@@PAX@2@XZ 10164110 f i RPC.obj
 0002:0006b140       ?_Lock@?$basic_filebuf@DU?$char_traits@D@std@@@std@@UAEXXZ 10164140 f i RPC.obj
 0002:0006b180       ?_Lock@?$basic_streambuf@DU?$char_traits@D@std@@@std@@UAEXXZ 10164180 f i RPC.obj
 0002:0006b1a0       ?_Lrotate@?$_Tree@V?$_Tmap_traits@HPAVNPRPCAsync@@U?$less@H@std@@V?$allocator@U?$pair@$$CBHPAVNPRPCAsync@@@std@@@3@$0A@@std@@@std@@IAEXPAU?$_Tree_node@U?$pair@$$CBHPAVNPRPCAsync@@@std@@PAX@2@@Z 101641a0 f i RPC.obj
 0002:0006b330       ?_Makestr@_System_error@std@@CA?AV?$basic_string@DU?$char_traits@D@std@@V?$allocator@D@2@@2@Verror_code@2@V32@@Z 10164330 f i RPC.obj
 0002:0006b430       ?_Max@?$_Tree_val@U?$_Tree_simple_types@U?$pair@$$CBHPAVNPRPCAsync@@@std@@@std@@@std@@SAPAU?$_Tree_node@U?$pair@$$CBHPAVNPRPCAsync@@@std@@PAX@2@PAU32@@Z 10164430 f i RPC.obj
 0002:0006b490       ?_Min@?$_Tree_val@U?$_Tree_simple_types@U?$pair@$$CBHPAVNPRPCAsync@@@std@@@std@@@std@@SAPAU?$_Tree_node@U?$pair@$$CBHPAVNPRPCAsync@@@std@@PAX@2@PAU32@@Z 10164490 f i RPC.obj
 0002:0006b4f0       ?_Mynode@?$_Tree_unchecked_const_iterator@V?$_Tree_val@U?$_Tree_simple_types@U?$pair@$$CBHPAVNPRPCAsync@@@std@@@std@@@std@@U_Iterator_base0@2@@std@@QBEPAU?$_Tree_node@U?$pair@$$CBHPAVNPRPCAsync@@@std@@PAX@2@XZ 101644f0 f i RPC.obj
 0002:0006b510       ?_Myval@?$_Tree_val@U?$_Tree_simple_types@U?$pair@$$CBHPAVNPRPCAsync@@@std@@@std@@@std@@SAAAU?$pair@$$CBHPAVNPRPCAsync@@@2@PAU?$_Tree_node@U?$pair@$$CBHPAVNPRPCAsync@@@std@@PAX@2@@Z 10164510 f i RPC.obj
 0002:0006b530       ?_Orphan_all@_Container_base0@std@@QAEXXZ 10164530 f i RPC.obj
 0002:0006b550       ?_Orphan_range@?$vector@PAVNPRPCAsync@@V?$allocator@PAVNPRPCAsync@@@std@@@std@@IBEXPAPAVNPRPCAsync@@0@Z 10164550 f i RPC.obj
 0002:0006b570       ?_Orphan_range@?$vector@Urpc_dispatch_handler_s@@V?$allocator@Urpc_dispatch_handler_s@@@std@@@std@@IBEXPAUrpc_dispatch_handler_s@@0@Z 10164570 f i RPC.obj
 0002:0006b590       ?_Osfx@?$basic_ostream@DU?$char_traits@D@std@@@std@@QAEXXZ 10164590 f i RPC.obj
 0002:0006b6a0       ?_Parent@?$_Tree_val@U?$_Tree_simple_types@U?$pair@$$CBHPAVNPRPCAsync@@@std@@@std@@@std@@SAAAPAU?$_Tree_node@U?$pair@$$CBHPAVNPRPCAsync@@@std@@PAX@2@PAU32@@Z 101646a0 f i RPC.obj
 0002:0006b6c0       ?_Pnavail@?$basic_streambuf@DU?$char_traits@D@std@@@std@@IBE_JXZ 101646c0 f i RPC.obj
 0002:0006b710       ?_Pninc@?$basic_streambuf@DU?$char_traits@D@std@@@std@@IAEPADXZ 10164710 f i RPC.obj
 0002:0006b770       ?_Reallocate@?$vector@PAVNPRPCAsync@@V?$allocator@PAVNPRPCAsync@@@std@@@std@@IAEXI@Z 10164770 f i RPC.obj
 0002:0006b900       ?_Reallocate@?$vector@Urpc_dispatch_handler_s@@V?$allocator@Urpc_dispatch_handler_s@@@std@@@std@@IAEXI@Z 10164900 f i RPC.obj
 0002:0006ba90       ?_Reserve@?$vector@PAVNPRPCAsync@@V?$allocator@PAVNPRPCAsync@@@std@@@std@@IAEXI@Z 10164a90 f i RPC.obj
 0002:0006bb10       ?_Reserve@?$vector@Urpc_dispatch_handler_s@@V?$allocator@Urpc_dispatch_handler_s@@@std@@@std@@IAEXI@Z 10164b10 f i RPC.obj
 0002:0006bb90       ?_Reset_back@?$basic_filebuf@DU?$char_traits@D@std@@@std@@AAEXXZ 10164b90 f i RPC.obj
 0002:0006bbf0       ?_Right@?$_Tree_val@U?$_Tree_simple_types@U?$pair@$$CBHPAVNPRPCAsync@@@std@@@std@@@std@@SAAAPAU?$_Tree_node@U?$pair@$$CBHPAVNPRPCAsync@@@std@@PAX@2@PAU32@@Z 10164bf0 f i RPC.obj
 0002:0006bc10       ?_Rmost@?$_Tree@V?$_Tmap_traits@HPAVNPRPCAsync@@U?$less@H@std@@V?$allocator@U?$pair@$$CBHPAVNPRPCAsync@@@std@@@3@$0A@@std@@@std@@IBEAAPAU?$_Tree_node@U?$pair@$$CBHPAVNPRPCAsync@@@std@@PAX@2@XZ 10164c10 f i RPC.obj
 0002:0006bc40       ?_Root@?$_Tree@V?$_Tmap_traits@HPAVNPRPCAsync@@U?$less@H@std@@V?$allocator@U?$pair@$$CBHPAVNPRPCAsync@@@std@@@3@$0A@@std@@@std@@IBEAAPAU?$_Tree_node@U?$pair@$$CBHPAVNPRPCAsync@@@std@@PAX@2@XZ 10164c40 f i RPC.obj
 0002:0006bc70       ?_Rrotate@?$_Tree@V?$_Tmap_traits@HPAVNPRPCAsync@@U?$less@H@std@@V?$allocator@U?$pair@$$CBHPAVNPRPCAsync@@@std@@@3@$0A@@std@@@std@@IAEXPAU?$_Tree_node@U?$pair@$$CBHPAVNPRPCAsync@@@std@@PAX@2@@Z 10164c70 f i RPC.obj
 0002:0006be00       ?_Set_back@?$basic_filebuf@DU?$char_traits@D@std@@@std@@AAEXXZ 10164e00 f i RPC.obj
 0002:0006be80       ?_Tidy@?$_Tree@V?$_Tmap_traits@HPAVNPRPCAsync@@U?$less@H@std@@V?$allocator@U?$pair@$$CBHPAVNPRPCAsync@@@std@@@3@$0A@@std@@@std@@IAEXXZ 10164e80 f i RPC.obj
 0002:0006bee0       ?_Tidy@?$_Yarn@D@std@@AAEXXZ 10164ee0 f i RPC.obj
 0002:0006bf20       ?_Tidy@?$_Yarn@_W@std@@AAEXXZ 10164f20 f i RPC.obj
 0002:0006bf60       ?_Tidy@?$ctype@D@std@@IAEXXZ 10164f60 f i RPC.obj
 0002:0006bfd0       ?_Tidy@?$vector@PAVNPRPCAsync@@V?$allocator@PAVNPRPCAsync@@@std@@@std@@IAEXXZ 10164fd0 f i RPC.obj
 0002:0006c070       ?_Tidy@?$vector@Urpc_dispatch_handler_s@@V?$allocator@Urpc_dispatch_handler_s@@@std@@@std@@IAEXXZ 10165070 f i RPC.obj
 0002:0006c120       ?_Unlock@?$basic_filebuf@DU?$char_traits@D@std@@@std@@UAEXXZ 10165120 f i RPC.obj
 0002:0006c160       ?_Unlock@?$basic_streambuf@DU?$char_traits@D@std@@@std@@UAEXXZ 10165160 f i RPC.obj
 0002:0006c180       ?_Unused_capacity@?$vector@PAVNPRPCAsync@@V?$allocator@PAVNPRPCAsync@@@std@@@std@@QBEIXZ 10165180 f i RPC.obj
 0002:0006c1b0       ?_Unused_capacity@?$vector@Urpc_dispatch_handler_s@@V?$allocator@Urpc_dispatch_handler_s@@@std@@@std@@QBEIXZ 101651b0 f i RPC.obj
 0002:0006c1e0       ?_Xlen@?$vector@PAVNPRPCAsync@@V?$allocator@PAVNPRPCAsync@@@std@@@std@@IBEXXZ 101651e0 f i RPC.obj
 0002:0006c210       ?_Xlen@?$vector@Urpc_dispatch_handler_s@@V?$allocator@Urpc_dispatch_handler_s@@@std@@@std@@IBEXXZ 10165210 f i RPC.obj
 0002:0006c240       ?allocate@?$_Wrap_alloc@V?$allocator@PAVNPRPCAsync@@@std@@@std@@QAEPAPAVNPRPCAsync@@I@Z 10165240 f i RPC.obj
 0002:0006c270       ?allocate@?$_Wrap_alloc@V?$allocator@U?$_Tree_node@U?$pair@$$CBHPAVNPRPCAsync@@@std@@PAX@std@@@std@@@std@@QAEPAU?$_Tree_node@U?$pair@$$CBHPAVNPRPCAsync@@@std@@PAX@2@I@Z 10165270 f i RPC.obj
 0002:0006c2a0       ?allocate@?$_Wrap_alloc@V?$allocator@Urpc_dispatch_handler_s@@@std@@@std@@QAEPAUrpc_dispatch_handler_s@@I@Z 101652a0 f i RPC.obj
 0002:0006c2d0       ?allocate@?$allocator@PAVNPRPCAsync@@@std@@QAEPAPAVNPRPCAsync@@I@Z 101652d0 f i RPC.obj
 0002:0006c300       ?allocate@?$allocator@U?$_Tree_node@U?$pair@$$CBHPAVNPRPCAsync@@@std@@PAX@std@@@std@@QAEPAU?$_Tree_node@U?$pair@$$CBHPAVNPRPCAsync@@@std@@PAX@2@I@Z 10165300 f i RPC.obj
 0002:0006c330       ?allocate@?$allocator@Urpc_dispatch_handler_s@@@std@@QAEPAUrpc_dispatch_handler_s@@I@Z 10165330 f i RPC.obj
 0002:0006c360       ?always_noconv@codecvt_base@std@@QBE_NXZ 10165360 f i RPC.obj
 0002:0006c390       ?append@?$basic_string@DU?$char_traits@D@std@@V?$allocator@D@2@@std@@QAEAAV12@ID@Z 10165390 f i RPC.obj
 0002:0006c430       ?assign@?$basic_string@DU?$char_traits@D@std@@V?$allocator@D@2@@std@@QAEAAV12@ID@Z 10165430 f i RPC.obj
 0002:0006c4b0       ?assign@?$char_traits@D@std@@SAPADPADID@Z 101654b0 f i RPC.obj
 0002:0006c4e0       ?begin@?$_Tree@V?$_Tmap_traits@HPAVNPRPCAsync@@U?$less@H@std@@V?$allocator@U?$pair@$$CBHPAVNPRPCAsync@@@std@@@3@$0A@@std@@@std@@QAE?AV?$_Tree_iterator@V?$_Tree_val@U?$_Tree_simple_types@U?$pair@$$CBHPAVNPRPCAsync@@@std@@@std@@@std@@@2@XZ 101654e0 f i RPC.obj
 0002:0006c520       ?begin@?$vector@PAVNPRPCAsync@@V?$allocator@PAVNPRPCAsync@@@std@@@std@@QAE?AV?$_Vector_iterator@V?$_Vector_val@U?$_Simple_types@PAVNPRPCAsync@@@std@@@std@@@2@XZ 10165520 f i RPC.obj
 0002:0006c560       ?begin@?$vector@Urpc_dispatch_handler_s@@V?$allocator@Urpc_dispatch_handler_s@@@std@@@std@@QAE?AV?$_Vector_iterator@V?$_Vector_val@U?$_Simple_types@Urpc_dispatch_handler_s@@@std@@@std@@@2@XZ 10165560 f i RPC.obj
 0002:0006c5a0       ?c_str@?$_Yarn@D@std@@QBEPBDXZ 101655a0 f i RPC.obj
 0002:0006c5e0       ?c_str@locale@std@@QBEPBDXZ 101655e0 f i RPC.obj
 0002:0006c630       ?capacity@?$vector@PAVNPRPCAsync@@V?$allocator@PAVNPRPCAsync@@@std@@@std@@QBEIXZ 10165630 f i RPC.obj
 0002:0006c660       ?capacity@?$vector@Urpc_dispatch_handler_s@@V?$allocator@Urpc_dispatch_handler_s@@@std@@@std@@QBEIXZ 10165660 f i RPC.obj
 0002:0006c690       ?clear@?$_Tree@V?$_Tmap_traits@HPAVNPRPCAsync@@U?$less@H@std@@V?$allocator@U?$pair@$$CBHPAVNPRPCAsync@@@std@@@3@$0A@@std@@@std@@QAEXXZ 10165690 f i RPC.obj
 0002:0006c710       ?clear@?$basic_ios@DU?$char_traits@D@std@@@std@@QAEXH_N@Z 10165710 f i RPC.obj
 0002:0006c760       ?clear@?$vector@PAVNPRPCAsync@@V?$allocator@PAVNPRPCAsync@@@std@@@std@@QAEXXZ 10165760 f i RPC.obj
 0002:0006c7b0       ?clear@?$vector@Urpc_dispatch_handler_s@@V?$allocator@Urpc_dispatch_handler_s@@@std@@@std@@QAEXXZ 101657b0 f i RPC.obj
 0002:0006c800       ?clear@ios_base@std@@QAEXH@Z 10165800 f i RPC.obj
 0002:0006c830       ?clear@ios_base@std@@QAEXH_N@Z 10165830 f i RPC.obj
 0002:0006c970       ?close@?$basic_filebuf@DU?$char_traits@D@std@@@std@@QAEPAV12@XZ 10165970 f i RPC.obj
 0002:0006ca00       ?close@?$basic_ofstream@DU?$char_traits@D@std@@@std@@QAEXXZ 10165a00 f i RPC.obj
 0002:0006ca50       ?construct@?$allocator@PAVNPRPCAsync@@@std@@QAEXPAPAVNPRPCAsync@@ABQAV3@@Z 10165a50 f i RPC.obj
 0002:0006cab0       ?construct@?$allocator@Urpc_dispatch_handler_s@@@std@@QAEXPAUrpc_dispatch_handler_s@@ABU3@@Z 10165ab0 f i RPC.obj
 0002:0006cb20       ?deallocate@?$_Wrap_alloc@V?$allocator@PAVNPRPCAsync@@@std@@@std@@QAEXPAPAVNPRPCAsync@@I@Z 10165b20 f i RPC.obj
 0002:0006cb50       ?deallocate@?$_Wrap_alloc@V?$allocator@U?$_Tree_node@U?$pair@$$CBHPAVNPRPCAsync@@@std@@PAX@std@@@std@@@std@@QAEXPAU?$_Tree_node@U?$pair@$$CBHPAVNPRPCAsync@@@std@@PAX@2@I@Z 10165b50 f i RPC.obj
 0002:0006cb80       ?deallocate@?$_Wrap_alloc@V?$allocator@Urpc_dispatch_handler_s@@@std@@@std@@QAEXPAUrpc_dispatch_handler_s@@I@Z 10165b80 f i RPC.obj
 0002:0006cbb0       ?deallocate@?$allocator@PAVNPRPCAsync@@@std@@QAEXPAPAVNPRPCAsync@@I@Z 10165bb0 f i RPC.obj
 0002:0006cbe0       ?deallocate@?$allocator@U?$_Tree_node@U?$pair@$$CBHPAVNPRPCAsync@@@std@@PAX@std@@@std@@QAEXPAU?$_Tree_node@U?$pair@$$CBHPAVNPRPCAsync@@@std@@PAX@2@I@Z 10165be0 f i RPC.obj
 0002:0006cc10       ?deallocate@?$allocator@Urpc_dispatch_handler_s@@@std@@QAEXPAUrpc_dispatch_handler_s@@I@Z 10165c10 f i RPC.obj
 0002:0006cc40       ?do_always_noconv@?$codecvt@DDH@std@@MBE_NXZ 10165c40 f i RPC.obj
 0002:0006cc60       ?do_always_noconv@codecvt_base@std@@MBE_NXZ 10165c60 f i RPC.obj
 0002:0006cc80       ?do_encoding@codecvt_base@std@@MBEHXZ 10165c80 f i RPC.obj
 0002:0006cca0       ?do_in@?$codecvt@DDH@std@@MBEHAAHPBD1AAPBDPAD3AAPAD@Z 10165ca0 f i RPC.obj
 0002:0006cd40       ?do_length@?$codecvt@DDH@std@@MBEHAAHPBD1I@Z 10165d40 f i RPC.obj
 0002:0006cd90       ?do_max_length@codecvt_base@std@@MBEHXZ 10165d90 f i RPC.obj
 0002:0006cdb0       ?do_narrow@?$ctype@D@std@@MBEDDD@Z 10165db0 f i RPC.obj
 0002:0006cdd0       ?do_narrow@?$ctype@D@std@@MBEPBDPBD0DPAD@Z 10165dd0 f i RPC.obj
 0002:0006ce10       ?do_out@?$codecvt@DDH@std@@MBEHAAHPBD1AAPBDPAD3AAPAD@Z 10165e10 f i RPC.obj
 0002:0006ceb0       ?do_tolower@?$ctype@D@std@@MBEDD@Z 10165eb0 f i RPC.obj
 0002:0006cef0       ?do_tolower@?$ctype@D@std@@MBEPBDPADPBD@Z 10165ef0 f i RPC.obj
 0002:0006cf50       ?do_toupper@?$ctype@D@std@@MBEDD@Z 10165f50 f i RPC.obj
 0002:0006cf90       ?do_toupper@?$ctype@D@std@@MBEPBDPADPBD@Z 10165f90 f i RPC.obj
 0002:0006cff0       ?do_unshift@?$codecvt@DDH@std@@MBEHAAHPAD1AAPAD@Z 10165ff0 f i RPC.obj
 0002:0006d020       ?do_widen@?$ctype@D@std@@MBEDD@Z 10166020 f i RPC.obj
 0002:0006d040       ?do_widen@?$ctype@D@std@@MBEPBDPBD0PAD@Z 10166040 f i RPC.obj
 0002:0006d080       ?eback@?$basic_streambuf@DU?$char_traits@D@std@@@std@@IBEPADXZ 10166080 f i RPC.obj
 0002:0006d0b0       ?egptr@?$basic_streambuf@DU?$char_traits@D@std@@@std@@IBEPADXZ 101660b0 f i RPC.obj
 0002:0006d0e0       ?empty@?$basic_string@DU?$char_traits@D@std@@V?$allocator@D@2@@std@@QBE_NXZ 101660e0 f i RPC.obj
 0002:0006d120       ?end@?$_Tree@V?$_Tmap_traits@HPAVNPRPCAsync@@U?$less@H@std@@V?$allocator@U?$pair@$$CBHPAVNPRPCAsync@@@std@@@3@$0A@@std@@@std@@QAE?AV?$_Tree_iterator@V?$_Tree_val@U?$_Tree_simple_types@U?$pair@$$CBHPAVNPRPCAsync@@@std@@@std@@@std@@@2@XZ 10166120 f i RPC.obj
 0002:0006d160       ?end@?$vector@PAVNPRPCAsync@@V?$allocator@PAVNPRPCAsync@@@std@@@std@@QAE?AV?$_Vector_iterator@V?$_Vector_val@U?$_Simple_types@PAVNPRPCAsync@@@std@@@std@@@2@XZ 10166160 f i RPC.obj
 0002:0006d1a0       ?end@?$vector@Urpc_dispatch_handler_s@@V?$allocator@Urpc_dispatch_handler_s@@@std@@@std@@QAE?AV?$_Vector_iterator@V?$_Vector_val@U?$_Simple_types@Urpc_dispatch_handler_s@@@std@@@std@@@2@XZ 101661a0 f i RPC.obj
 0002:0006d1e0       ?eof@?$char_traits@D@std@@SAHXZ 101661e0 f i RPC.obj
 0002:0006d200       ?epptr@?$basic_streambuf@DU?$char_traits@D@std@@@std@@IBEPADXZ 10166200 f i RPC.obj
 0002:0006d230       ?eq_int_type@?$char_traits@D@std@@SA_NABH0@Z 10166230 f i RPC.obj
 0002:0006d270       ?erase@?$_Tree@V?$_Tmap_traits@HPAVNPRPCAsync@@U?$less@H@std@@V?$allocator@U?$pair@$$CBHPAVNPRPCAsync@@@std@@@3@$0A@@std@@@std@@QAE?AV?$_Tree_iterator@V?$_Tree_val@U?$_Tree_simple_types@U?$pair@$$CBHPAVNPRPCAsync@@@std@@@std@@@std@@@2@V?$_Tree_const_iterator@V?$_Tree_val@U?$_Tree_simple_types@U?$pair@$$CBHPAVNPRPCAsync@@@std@@@std@@@std@@@2@0@Z 10166270 f i RPC.obj
 0002:0006d350       ?erase@?$_Tree@V?$_Tmap_traits@HPAVNPRPCAsync@@U?$less@H@std@@V?$allocator@U?$pair@$$CBHPAVNPRPCAsync@@@std@@@3@$0A@@std@@@std@@QAE?AV?$_Tree_iterator@V?$_Tree_val@U?$_Tree_simple_types@U?$pair@$$CBHPAVNPRPCAsync@@@std@@@std@@@std@@@2@V?$_Tree_const_iterator@V?$_Tree_val@U?$_Tree_simple_types@U?$pair@$$CBHPAVNPRPCAsync@@@std@@@std@@@std@@@2@@Z 10166350 f i RPC.obj
 0002:0006dcb0       ?fail@ios_base@std@@QBE_NXZ 10166cb0 f i RPC.obj
 0002:0006dcf0       ?flags@ios_base@std@@QBEHXZ 10166cf0 f i RPC.obj
 0002:0006dd10       ?flush@?$basic_ostream@DU?$char_traits@D@std@@@std@@QAEAAV12@XZ 10166d10 f i RPC.obj
 0002:0006de00       ?gbump@?$basic_streambuf@DU?$char_traits@D@std@@@std@@IAEXH@Z 10166e00 f i RPC.obj
 0002:0006de50       ?getloc@?$basic_streambuf@DU?$char_traits@D@std@@@std@@QBE?AVlocale@2@XZ 10166e50 f i RPC.obj
 0002:0006dea0       ?getloc@ios_base@std@@QBE?AVlocale@2@XZ 10166ea0 f i RPC.obj
 0002:0006def0       ?good@ios_base@std@@QBE_NXZ 10166ef0 f i RPC.obj
 0002:0006df30       ?gptr@?$basic_streambuf@DU?$char_traits@D@std@@@std@@IBEPADXZ 10166f30 f i RPC.obj
 0002:0006df60       ?imbue@?$basic_filebuf@DU?$char_traits@D@std@@@std@@MAEXABVlocale@2@@Z 10166f60 f i RPC.obj
 0002:0006dfa0       ?imbue@?$basic_streambuf@DU?$char_traits@D@std@@@std@@MAEXABVlocale@2@@Z 10166fa0 f i RPC.obj
 0002:0006dfc0       ?in@?$codecvt@DDH@std@@QBEHAAHPBD1AAPBDPAD3AAPAD@Z 10166fc0 f i RPC.obj
 0002:0006e010       ?init@?$basic_ios@DU?$char_traits@D@std@@@std@@IAEXPAV?$basic_streambuf@DU?$char_traits@D@std@@@2@_N@Z 10167010 f i RPC.obj
 0002:0006e0a0       ?iostream_category@std@@YAABVerror_category@1@XZ 101670a0 f i RPC.obj
 0002:0006e0c0       ?is@?$ctype@D@std@@QBE_NFD@Z 101670c0 f i RPC.obj
 0002:0006e110       ?is_open@?$basic_filebuf@DU?$char_traits@D@std@@@std@@QBE_NXZ 10167110 f i RPC.obj
 0002:0006e150       ?is_open@?$basic_ifstream@DU?$char_traits@D@std@@@std@@QBE_NXZ 10167150 f i RPC.obj
 0002:0006e180       ?lower_bound@?$_Tree@V?$_Tmap_traits@HPAVNPRPCAsync@@U?$less@H@std@@V?$allocator@U?$pair@$$CBHPAVNPRPCAsync@@@std@@@3@$0A@@std@@@std@@QAE?AV?$_Tree_iterator@V?$_Tree_val@U?$_Tree_simple_types@U?$pair@$$CBHPAVNPRPCAsync@@@std@@@std@@@std@@@2@ABH@Z 10167180 f i RPC.obj
 0002:0006e1c0       ?make_error_code@std@@YA?AVerror_code@1@W4io_errc@1@@Z 101671c0 f i RPC.obj
 0002:0006e1f0       ?max_size@?$_Tree@V?$_Tmap_traits@HPAVNPRPCAsync@@U?$less@H@std@@V?$allocator@U?$pair@$$CBHPAVNPRPCAsync@@@std@@@3@$0A@@std@@@std@@QBEIXZ 101671f0 f i RPC.obj
 0002:0006e220       ?max_size@?$_Wrap_alloc@V?$allocator@PAVNPRPCAsync@@@std@@@std@@QBEIXZ 10167220 f i RPC.obj
 0002:0006e250       ?max_size@?$_Wrap_alloc@V?$allocator@U?$_Tree_node@U?$pair@$$CBHPAVNPRPCAsync@@@std@@PAX@std@@@std@@@std@@QBEIXZ 10167250 f i RPC.obj
 0002:0006e280       ?max_size@?$_Wrap_alloc@V?$allocator@Urpc_dispatch_handler_s@@@std@@@std@@QBEIXZ 10167280 f i RPC.obj
 0002:0006e2b0       ?max_size@?$allocator@PAVNPRPCAsync@@@std@@QBEIXZ 101672b0 f i RPC.obj
 0002:0006e2d0       ?max_size@?$allocator@U?$_Tree_node@U?$pair@$$CBHPAVNPRPCAsync@@@std@@PAX@std@@@std@@QBEIXZ 101672d0 f i RPC.obj
 0002:0006e2f0       ?max_size@?$allocator@Urpc_dispatch_handler_s@@@std@@QBEIXZ 101672f0 f i RPC.obj
 0002:0006e310       ?max_size@?$allocator_traits@V?$allocator@PAVNPRPCAsync@@@std@@@std@@SAIABV?$allocator@PAVNPRPCAsync@@@2@@Z 10167310 f i RPC.obj
 0002:0006e330       ?max_size@?$allocator_traits@V?$allocator@U?$_Tree_node@U?$pair@$$CBHPAVNPRPCAsync@@@std@@PAX@std@@@std@@@std@@SAIABV?$allocator@U?$_Tree_node@U?$pair@$$CBHPAVNPRPCAsync@@@std@@PAX@std@@@2@@Z 10167330 f i RPC.obj
 0002:0006e350       ?max_size@?$allocator_traits@V?$allocator@Urpc_dispatch_handler_s@@@std@@@std@@SAIABV?$allocator@Urpc_dispatch_handler_s@@@2@@Z 10167350 f i RPC.obj
 0002:0006e370       ?max_size@?$vector@PAVNPRPCAsync@@V?$allocator@PAVNPRPCAsync@@@std@@@std@@QBEIXZ 10167370 f i RPC.obj
 0002:0006e3a0       ?max_size@?$vector@Urpc_dispatch_handler_s@@V?$allocator@Urpc_dispatch_handler_s@@@std@@@std@@QBEIXZ 101673a0 f i RPC.obj
 0002:0006e3d0       ?message@error_code@std@@QBE?AV?$basic_string@DU?$char_traits@D@std@@V?$allocator@D@2@@2@XZ 101673d0 f i RPC.obj
 0002:0006e430       ?not_eof@?$char_traits@D@std@@SAHABH@Z 10167430 f i RPC.obj
 0002:0006e490       ?open@?$basic_filebuf@DU?$char_traits@D@std@@@std@@QAEPAV12@PBDHH@Z 10167490 f i RPC.obj
 0002:0006e580       ?out@?$codecvt@DDH@std@@QBEHAAHPBD1AAPBDPAD3AAPAD@Z 10167580 f i RPC.obj
 0002:0006e5d0       ?overflow@?$basic_filebuf@DU?$char_traits@D@std@@@std@@MAEHH@Z 101675d0 f i RPC.obj
 0002:0006ea20       ?overflow@?$basic_streambuf@DU?$char_traits@D@std@@@std@@MAEHH@Z 10167a20 f i RPC.obj
 0002:0006ea40       ?pbackfail@?$basic_filebuf@DU?$char_traits@D@std@@@std@@MAEHH@Z 10167a40 f i RPC.obj
 0002:0006ebf0       ?pbackfail@?$basic_streambuf@DU?$char_traits@D@std@@@std@@MAEHH@Z 10167bf0 f i RPC.obj
 0002:0006ec10       ?pbump@?$basic_streambuf@DU?$char_traits@D@std@@@std@@IAEXH@Z 10167c10 f i RPC.obj
 0002:0006ec60       ?pointer_to@?$pointer_traits@PAU?$pair@$$CBHPAVNPRPCAsync@@@std@@@std@@SAPAU?$pair@$$CBHPAVNPRPCAsync@@@2@AAU32@@Z 10167c60 f i RPC.obj
 0002:0006ec90       ?pointer_to@?$pointer_traits@PAUrpc_dispatch_handler_s@@@std@@SAPAUrpc_dispatch_handler_s@@AAU3@@Z 10167c90 f i RPC.obj
 0002:0006ecc0       ?pptr@?$basic_streambuf@DU?$char_traits@D@std@@@std@@IBEPADXZ 10167cc0 f i RPC.obj
 0002:0006ecf0       ?pubseekoff@?$basic_streambuf@DU?$char_traits@D@std@@@std@@QAE?AV?$fpos@H@2@_JHH@Z 10167cf0 f i RPC.obj
 0002:0006ed40       ?pubseekpos@?$basic_streambuf@DU?$char_traits@D@std@@@std@@QAE?AV?$fpos@H@2@V32@H@Z 10167d40 f i RPC.obj
 0002:0006edb0       ?pubsync@?$basic_streambuf@DU?$char_traits@D@std@@@std@@QAEHXZ 10167db0 f i RPC.obj
 0002:0006ede0       ?push_back@?$vector@PAVNPRPCAsync@@V?$allocator@PAVNPRPCAsync@@@std@@@std@@QAEXABQAVNPRPCAsync@@@Z 10167de0 f i RPC.obj
 0002:0006ef30       ?push_back@?$vector@Urpc_dispatch_handler_s@@V?$allocator@Urpc_dispatch_handler_s@@@std@@@std@@QAEXABUrpc_dispatch_handler_s@@@Z 10167f30 f i RPC.obj
 0002:0006f080       ?rdbuf@?$basic_ios@DU?$char_traits@D@std@@@std@@QBEPAV?$basic_streambuf@DU?$char_traits@D@std@@@2@XZ 10168080 f i RPC.obj
 0002:0006f0a0       ?rdstate@ios_base@std@@QBEHXZ 101680a0 f i RPC.obj
 0002:0006f0c0       ?read@?$basic_istream@DU?$char_traits@D@std@@@std@@QAEAAV12@PAD_J@Z 101680c0 f i RPC.obj
 0002:0006f270       ?sbumpc@?$basic_streambuf@DU?$char_traits@D@std@@@std@@QAEHXZ 10168270 f i RPC.obj
 0002:0006f2e0       ?seekg@?$basic_istream@DU?$char_traits@D@std@@@std@@QAEAAV12@V?$fpos@H@2@@Z 101682e0 f i RPC.obj
 0002:0006f480       ?seekg@?$basic_istream@DU?$char_traits@D@std@@@std@@QAEAAV12@_JH@Z 10168480 f i RPC.obj
 0002:0006f5f0       ?seekoff@?$basic_filebuf@DU?$char_traits@D@std@@@std@@MAE?AV?$fpos@H@2@_JHH@Z 101685f0 f i RPC.obj
 0002:0006f710       ?seekoff@?$basic_streambuf@DU?$char_traits@D@std@@@std@@MAE?AV?$fpos@H@2@_JHH@Z 10168710 f i RPC.obj
 0002:0006f750       ?seekpos@?$basic_filebuf@DU?$char_traits@D@std@@@std@@MAE?AV?$fpos@H@2@V32@H@Z 10168750 f i RPC.obj
 0002:0006f880       ?seekpos@?$basic_streambuf@DU?$char_traits@D@std@@@std@@MAE?AV?$fpos@H@2@V32@H@Z 10168880 f i RPC.obj
 0002:0006f8c0       ?seekpos@?$fpos@H@std@@QBE_JXZ 101688c0 f i RPC.obj
 0002:0006f8f0       ?setbuf@?$basic_filebuf@DU?$char_traits@D@std@@@std@@MAEPAV?$basic_streambuf@DU?$char_traits@D@std@@@2@PAD_J@Z 101688f0 f i RPC.obj
 0002:0006f990       ?setbuf@?$basic_streambuf@DU?$char_traits@D@std@@@std@@MAEPAV12@PAD_J@Z 10168990 f i RPC.obj
 0002:0006f9b0       ?setg@?$basic_streambuf@DU?$char_traits@D@std@@@std@@IAEXPAD00@Z 101689b0 f i RPC.obj
 0002:0006fa00       ?setp@?$basic_streambuf@DU?$char_traits@D@std@@@std@@IAEXPAD0@Z 10168a00 f i RPC.obj
 0002:0006fa50       ?setstate@?$basic_ios@DU?$char_traits@D@std@@@std@@QAEXH_N@Z 10168a50 f i RPC.obj
 0002:0006faa0       ?sgetc@?$basic_streambuf@DU?$char_traits@D@std@@@std@@QAEHXZ 10168aa0 f i RPC.obj
 0002:0006fb10       ?sgetn@?$basic_streambuf@DU?$char_traits@D@std@@@std@@QAE_JPAD_J@Z 10168b10 f i RPC.obj
 0002:0006fb50       ?showmanyc@?$basic_streambuf@DU?$char_traits@D@std@@@std@@MAE_JXZ 10168b50 f i RPC.obj
 0002:0006fb70       ?size@?$_Tree@V?$_Tmap_traits@HPAVNPRPCAsync@@U?$less@H@std@@V?$allocator@U?$pair@$$CBHPAVNPRPCAsync@@@std@@@3@$0A@@std@@@std@@QBEIXZ 10168b70 f i RPC.obj
 0002:0006fb90       ?size@?$vector@PAVNPRPCAsync@@V?$allocator@PAVNPRPCAsync@@@std@@@std@@QBEIXZ 10168b90 f i RPC.obj
 0002:0006fbc0       ?size@?$vector@Urpc_dispatch_handler_s@@V?$allocator@Urpc_dispatch_handler_s@@@std@@@std@@QBEIXZ 10168bc0 f i RPC.obj
 0002:0006fbf0       ?snextc@?$basic_streambuf@DU?$char_traits@D@std@@@std@@QAEHXZ 10168bf0 f i RPC.obj
 0002:0006fca0       ?sputn@?$basic_streambuf@DU?$char_traits@D@std@@@std@@QAE_JPBD_J@Z 10168ca0 f i RPC.obj
 0002:0006fce0       ?state@?$fpos@H@std@@QBEHXZ 10168ce0 f i RPC.obj
 0002:0006fd00       ?sync@?$basic_filebuf@DU?$char_traits@D@std@@@std@@MAEHXZ 10168d00 f i RPC.obj
 0002:0006fda0       ?sync@?$basic_streambuf@DU?$char_traits@D@std@@@std@@MAEHXZ 10168da0 f i RPC.obj
 0002:0006fdc0       ?tellg@?$basic_istream@DU?$char_traits@D@std@@@std@@QAE?AV?$fpos@H@2@XZ 10168dc0 f i RPC.obj
 0002:0006fee0       ?tie@?$basic_ios@DU?$char_traits@D@std@@@std@@QBEPAV?$basic_ostream@DU?$char_traits@D@std@@@2@XZ 10168ee0 f i RPC.obj
 0002:0006ff00       ?to_char_type@?$char_traits@D@std@@SADABH@Z 10168f00 f i RPC.obj
 0002:0006ff20       ?to_int_type@?$char_traits@D@std@@SAHABD@Z 10168f20 f i RPC.obj
 0002:0006ff40       ?uflow@?$basic_filebuf@DU?$char_traits@D@std@@@std@@MAEHXZ 10168f40 f i RPC.obj
 0002:00070340       ?uflow@?$basic_streambuf@DU?$char_traits@D@std@@@std@@MAEHXZ 10169340 f i RPC.obj
 0002:000703c0       ?underflow@?$basic_filebuf@DU?$char_traits@D@std@@@std@@MAEHXZ 101693c0 f i RPC.obj
 0002:00070480       ?underflow@?$basic_streambuf@DU?$char_traits@D@std@@@std@@MAEHXZ 10169480 f i RPC.obj
 0002:000704a0       ?unshift@?$codecvt@DDH@std@@QBEHAAHPAD1AAPAD@Z 101694a0 f i RPC.obj
 0002:000704e0       ?widen@?$basic_ios@DU?$char_traits@D@std@@@std@@QBEDD@Z 101694e0 f i RPC.obj
 0002:00070590       ?widen@?$ctype@D@std@@QBEDD@Z 10169590 f i RPC.obj
 0002:000705c0       ?write@?$basic_ostream@DU?$char_traits@D@std@@@std@@QAEAAV12@PBD_J@Z 101695c0 f i RPC.obj
 0002:00070730       ?xsgetn@?$basic_streambuf@DU?$char_traits@D@std@@@std@@MAE_JPAD_J@Z 10169730 f i RPC.obj
 0002:000708c0       ?xsputn@?$basic_streambuf@DU?$char_traits@D@std@@@std@@MAE_JPBD_J@Z 101698c0 f i RPC.obj
 0002:00070a50       _NP_Connect                10169a50 f   RPC.obj
 0002:00070c00       ?Log_Print@@YAXPBDZZ       10169c00 f   Utils.obj
 0002:00070c70       _NP_SetLogCallback         10169c70 f   Utils.obj
 0002:00070c90       ??$?0AAIAA_NX@?$pair@I_N@std@@QAE@AAIAA_N@Z 10169c90 f i auth.pb.obj
 0002:00070ce0       ??$?0AAI_NX@?$pair@I_N@std@@QAE@AAI$$QA_N@Z 10169ce0 f i auth.pb.obj
 0002:00070d30       ??$?8DD@std@@YA_NABV?$allocator@D@0@0@Z 10169d30 f i auth.pb.obj
 0002:00070d50       ??$?8V?$allocator@D@std@@V01@@std@@YA_NABU?$_Wrap_alloc@V?$allocator@D@std@@@0@0@Z 10169d50 f i auth.pb.obj
 0002:00070d90       ??$?9V?$allocator@D@std@@V01@@std@@YA_NABU?$_Wrap_alloc@V?$allocator@D@std@@@0@0@Z 10169d90 f i auth.pb.obj
 0002:00070de0       ??$ReadPrimitive@H$04@WireFormatLite@internal@protobuf@google@@SA_NPAVCodedInputStream@io@23@PAH@Z 10169de0 f i auth.pb.obj
 0002:00070e20       ??$ReadPrimitive@I$06@WireFormatLite@internal@protobuf@google@@SA_NPAVCodedInputStream@io@23@PAI@Z 10169e20 f i auth.pb.obj
 0002:00070e50       ??$ReadPrimitive@_K$05@WireFormatLite@internal@protobuf@google@@SA_NPAVCodedInputStream@io@23@PA_K@Z 10169e50 f i auth.pb.obj
 0002:00070e80       ??$_Move@AAH@std@@YA$$QAHAAH@Z 10169e80 f i auth.pb.obj
 0002:00070ea0       ??$_Move@AAPAD@std@@YA$$QAPADAAPAD@Z 10169ea0 f i auth.pb.obj
 0002:00070ec0       ??$_Move@AAPAV?$basic_string@DU?$char_traits@D@std@@V?$allocator@D@2@@std@@@std@@YA$$QAPAV?$basic_string@DU?$char_traits@D@std@@V?$allocator@D@2@@0@AAPAV10@@Z 10169ec0 f i auth.pb.obj
 0002:00070ee0       ??$_Move@AAT_Bxty@?$_String_val@U?$_Simple_types@D@std@@@std@@@std@@YA$$QAT_Bxty@?$_String_val@U?$_Simple_types@D@std@@@0@AAT120@@Z 10169ee0 f i auth.pb.obj
 0002:00070f00       ??$_Move@AA_K@std@@YA$$QA_KAA_K@Z 10169f00 f i auth.pb.obj
 0002:00070f20       ??$_Swap_adl@PAD@std@@YAXAAPAD0@Z 10169f20 f i auth.pb.obj
 0002:00070f50       ??$down_cast@PBVAuthenticateExternalStatusMessage@@$$CBVMessageLite@protobuf@google@@@internal@protobuf@google@@YAPBVAuthenticateExternalStatusMessage@@PBVMessageLite@12@@Z 10169f50 f i auth.pb.obj
 0002:00070f90       ??$down_cast@PBVAuthenticateKickUserMessage@@$$CBVMessageLite@protobuf@google@@@internal@protobuf@google@@YAPBVAuthenticateKickUserMessage@@PBVMessageLite@12@@Z 10169f90 f i auth.pb.obj
 0002:00070fd0       ??$down_cast@PBVAuthenticateRegisterServerMessage@@$$CBVMessageLite@protobuf@google@@@internal@protobuf@google@@YAPBVAuthenticateRegisterServerMessage@@PBVMessageLite@12@@Z 10169fd0 f i auth.pb.obj
 0002:00071010       ??$down_cast@PBVAuthenticateRegisterServerResultMessage@@$$CBVMessageLite@protobuf@google@@@internal@protobuf@google@@YAPBVAuthenticateRegisterServerResultMessage@@PBVMessageLite@12@@Z 1016a010 f i auth.pb.obj
 0002:00071050       ??$down_cast@PBVAuthenticateResultMessage@@$$CBVMessageLite@protobuf@google@@@internal@protobuf@google@@YAPBVAuthenticateResultMessage@@PBVMessageLite@12@@Z 1016a050 f i auth.pb.obj
 0002:00071090       ??$down_cast@PBVAuthenticateUserGroupMessage@@$$CBVMessageLite@protobuf@google@@@internal@protobuf@google@@YAPBVAuthenticateUserGroupMessage@@PBVMessageLite@12@@Z 1016a090 f i auth.pb.obj
 0002:000710d0       ??$down_cast@PBVAuthenticateValidateTicketMessage@@$$CBVMessageLite@protobuf@google@@@internal@protobuf@google@@YAPBVAuthenticateValidateTicketMessage@@PBVMessageLite@12@@Z 1016a0d0 f i auth.pb.obj
 0002:00071110       ??$down_cast@PBVAuthenticateValidateTicketResultMessage@@$$CBVMessageLite@protobuf@google@@@internal@protobuf@google@@YAPBVAuthenticateValidateTicketResultMessage@@PBVMessageLite@12@@Z 1016a110 f i auth.pb.obj
 0002:00071150       ??$down_cast@PBVAuthenticateWithDetailsMessage@@$$CBVMessageLite@protobuf@google@@@internal@protobuf@google@@YAPBVAuthenticateWithDetailsMessage@@PBVMessageLite@12@@Z 1016a150 f i auth.pb.obj
 0002:00071190       ??$down_cast@PBVAuthenticateWithKeyMessage@@$$CBVMessageLite@protobuf@google@@@internal@protobuf@google@@YAPBVAuthenticateWithKeyMessage@@PBVMessageLite@12@@Z 1016a190 f i auth.pb.obj
 0002:000711d0       ??$down_cast@PBVAuthenticateWithTokenMessage@@$$CBVMessageLite@protobuf@google@@@internal@protobuf@google@@YAPBVAuthenticateWithTokenMessage@@PBVMessageLite@12@@Z 1016a1d0 f i auth.pb.obj
 0002:00071210       ??$forward@AA_N@std@@YAAA_NAA_N@Z 1016a210 f i auth.pb.obj
 0002:00071230       ??$implicit_cast@PBVMessageLite@protobuf@google@@PBVAuthenticateExternalStatusMessage@@@internal@protobuf@google@@YAPBVMessageLite@12@ABQBVAuthenticateExternalStatusMessage@@@Z 1016a230 f i auth.pb.obj
 0002:00071250       ??$implicit_cast@PBVMessageLite@protobuf@google@@PBVAuthenticateKickUserMessage@@@internal@protobuf@google@@YAPBVMessageLite@12@ABQBVAuthenticateKickUserMessage@@@Z 1016a250 f i auth.pb.obj
 0002:00071270       ??$implicit_cast@PBVMessageLite@protobuf@google@@PBVAuthenticateRegisterServerMessage@@@internal@protobuf@google@@YAPBVMessageLite@12@ABQBVAuthenticateRegisterServerMessage@@@Z 1016a270 f i auth.pb.obj
 0002:00071290       ??$implicit_cast@PBVMessageLite@protobuf@google@@PBVAuthenticateRegisterServerResultMessage@@@internal@protobuf@google@@YAPBVMessageLite@12@ABQBVAuthenticateRegisterServerResultMessage@@@Z 1016a290 f i auth.pb.obj
 0002:000712b0       ??$implicit_cast@PBVMessageLite@protobuf@google@@PBVAuthenticateResultMessage@@@internal@protobuf@google@@YAPBVMessageLite@12@ABQBVAuthenticateResultMessage@@@Z 1016a2b0 f i auth.pb.obj
 0002:000712d0       ??$implicit_cast@PBVMessageLite@protobuf@google@@PBVAuthenticateUserGroupMessage@@@internal@protobuf@google@@YAPBVMessageLite@12@ABQBVAuthenticateUserGroupMessage@@@Z 1016a2d0 f i auth.pb.obj
 0002:000712f0       ??$implicit_cast@PBVMessageLite@protobuf@google@@PBVAuthenticateValidateTicketMessage@@@internal@protobuf@google@@YAPBVMessageLite@12@ABQBVAuthenticateValidateTicketMessage@@@Z 1016a2f0 f i auth.pb.obj
 0002:00071310       ??$implicit_cast@PBVMessageLite@protobuf@google@@PBVAuthenticateValidateTicketResultMessage@@@internal@protobuf@google@@YAPBVMessageLite@12@ABQBVAuthenticateValidateTicketResultMessage@@@Z 1016a310 f i auth.pb.obj
 0002:00071330       ??$implicit_cast@PBVMessageLite@protobuf@google@@PBVAuthenticateWithDetailsMessage@@@internal@protobuf@google@@YAPBVMessageLite@12@ABQBVAuthenticateWithDetailsMessage@@@Z 1016a330 f i auth.pb.obj
 0002:00071350       ??$implicit_cast@PBVMessageLite@protobuf@google@@PBVAuthenticateWithKeyMessage@@@internal@protobuf@google@@YAPBVMessageLite@12@ABQBVAuthenticateWithKeyMessage@@@Z 1016a350 f i auth.pb.obj
 0002:00071370       ??$implicit_cast@PBVMessageLite@protobuf@google@@PBVAuthenticateWithTokenMessage@@@internal@protobuf@google@@YAPBVMessageLite@12@ABQBVAuthenticateWithTokenMessage@@@Z 1016a370 f i auth.pb.obj
 0002:00071390       ??$iter_swap@PADPAD@std@@YAXPAD0@Z 1016a390 f i auth.pb.obj
 0002:000713c0       ??$make_pair@AAIAA_N@std@@YA?AU?$pair@I_N@0@AAIAA_N@Z 1016a3c0 f i auth.pb.obj
 0002:00071410       ??$make_pair@AAI_N@std@@YA?AU?$pair@I_N@0@AAI$$QA_N@Z 1016a410 f i auth.pb.obj
 0002:00071460       ??$swap@D$0BA@@std@@YAXAAY0BA@D0@Z 1016a460 f i auth.pb.obj
 0002:000714e0       ??$swap@H@std@@YAXAAH0@Z   1016a4e0 f i auth.pb.obj
 0002:00071540       ??$swap@PAD@std@@YAXAAPAD0@Z 1016a540 f i auth.pb.obj
 0002:000715a0       ??$swap@PAV?$basic_string@DU?$char_traits@D@std@@V?$allocator@D@2@@std@@@std@@YAXAAPAV?$basic_string@DU?$char_traits@D@std@@V?$allocator@D@2@@0@0@Z 1016a5a0 f i auth.pb.obj
 0002:00071600       ??$swap@T_Bxty@?$_String_val@U?$_Simple_types@D@std@@@std@@@std@@YAXAAT_Bxty@?$_String_val@U?$_Simple_types@D@std@@@0@0@Z 1016a600 f i auth.pb.obj
 0002:000716c0       ??$swap@_K@std@@YAXAA_K0@Z 1016a6c0 f i auth.pb.obj
 0002:00071730       ??0AuthenticateExternalStatusMessage@@QAE@ABV0@@Z 1016a730 f   auth.pb.obj
 0002:000717e0       ??0AuthenticateExternalStatusMessage@@QAE@XZ 1016a7e0 f   auth.pb.obj
 0002:00071880       ??0AuthenticateKickUserMessage@@QAE@ABV0@@Z 1016a880 f   auth.pb.obj
 0002:00071930       ??0AuthenticateKickUserMessage@@QAE@XZ 1016a930 f   auth.pb.obj
 0002:000719d0       ??0AuthenticateRegisterServerMessage@@QAE@ABV0@@Z 1016a9d0 f   auth.pb.obj
 0002:00071a80       ??0AuthenticateRegisterServerMessage@@QAE@XZ 1016aa80 f   auth.pb.obj
 0002:00071b20       ??0AuthenticateRegisterServerResultMessage@@QAE@ABV0@@Z 1016ab20 f   auth.pb.obj
 0002:00071bd0       ??0AuthenticateRegisterServerResultMessage@@QAE@XZ 1016abd0 f   auth.pb.obj
 0002:00071c70       ??0AuthenticateResultMessage@@QAE@ABV0@@Z 1016ac70 f   auth.pb.obj
 0002:00071d20       ??0AuthenticateResultMessage@@QAE@XZ 1016ad20 f   auth.pb.obj
 0002:00071dc0       ??0AuthenticateUserGroupMessage@@QAE@ABV0@@Z 1016adc0 f   auth.pb.obj
 0002:00071e70       ??0AuthenticateUserGroupMessage@@QAE@XZ 1016ae70 f   auth.pb.obj
 0002:00071f10       ??0AuthenticateValidateTicketMessage@@QAE@ABV0@@Z 1016af10 f   auth.pb.obj
 0002:00071fc0       ??0AuthenticateValidateTicketMessage@@QAE@XZ 1016afc0 f   auth.pb.obj
 0002:00072060       ??0AuthenticateValidateTicketResultMessage@@QAE@ABV0@@Z 1016b060 f   auth.pb.obj
 0002:00072110       ??0AuthenticateValidateTicketResultMessage@@QAE@XZ 1016b110 f   auth.pb.obj
 0002:000721b0       ??0AuthenticateWithDetailsMessage@@QAE@ABV0@@Z 1016b1b0 f   auth.pb.obj
 0002:00072260       ??0AuthenticateWithDetailsMessage@@QAE@XZ 1016b260 f   auth.pb.obj
 0002:00072300       ??0AuthenticateWithKeyMessage@@QAE@ABV0@@Z 1016b300 f   auth.pb.obj
 0002:000723b0       ??0AuthenticateWithKeyMessage@@QAE@XZ 1016b3b0 f   auth.pb.obj
 0002:00072450       ??0AuthenticateWithTokenMessage@@QAE@ABV0@@Z 1016b450 f   auth.pb.obj
 0002:00072500       ??0AuthenticateWithTokenMessage@@QAE@XZ 1016b500 f   auth.pb.obj
 0002:000725a0       ??0Closure@protobuf@google@@QAE@XZ 1016b5a0 f i auth.pb.obj
 0002:000725d0       ??0FunctionClosure0@internal@protobuf@google@@QAE@P6AXXZ_N@Z 1016b5d0 f i auth.pb.obj
 0002:00072620       ??0MessageLite@protobuf@google@@QAE@XZ 1016b620 f i auth.pb.obj
 0002:00072650       ??0StaticDescriptorInitializer_auth_2eproto@@QAE@XZ 1016b650 f i auth.pb.obj
 0002:00072680       ??1AuthenticateExternalStatusMessage@@UAE@XZ 1016b680 f   auth.pb.obj
 0002:00072710       ??1AuthenticateKickUserMessage@@UAE@XZ 1016b710 f   auth.pb.obj
 0002:000727a0       ??1AuthenticateRegisterServerMessage@@UAE@XZ 1016b7a0 f   auth.pb.obj
 0002:00072830       ??1AuthenticateRegisterServerResultMessage@@UAE@XZ 1016b830 f   auth.pb.obj
 0002:000728c0       ??1AuthenticateResultMessage@@UAE@XZ 1016b8c0 f   auth.pb.obj
 0002:00072950       ??1AuthenticateUserGroupMessage@@UAE@XZ 1016b950 f   auth.pb.obj
 0002:000729e0       ??1AuthenticateValidateTicketMessage@@UAE@XZ 1016b9e0 f   auth.pb.obj
 0002:00072a70       ??1AuthenticateValidateTicketResultMessage@@UAE@XZ 1016ba70 f   auth.pb.obj
 0002:00072b00       ??1AuthenticateWithDetailsMessage@@UAE@XZ 1016bb00 f   auth.pb.obj
 0002:00072b90       ??1AuthenticateWithKeyMessage@@UAE@XZ 1016bb90 f   auth.pb.obj
 0002:00072c20       ??1AuthenticateWithTokenMessage@@UAE@XZ 1016bc20 f   auth.pb.obj
 0002:00072cb0       ??4?$basic_string@DU?$char_traits@D@std@@V?$allocator@D@2@@std@@QAEAAV01@ABV01@@Z 1016bcb0 f i auth.pb.obj
 0002:00072d50       ??_G?$basic_string@DU?$char_traits@D@std@@V?$allocator@D@2@@std@@QAEPAXI@Z 1016bd50 f i auth.pb.obj
 0002:00072da0       ??_GAuthenticateExternalStatusMessage@@UAEPAXI@Z 1016bda0 f i auth.pb.obj
 0002:00072da0       ??_EAuthenticateExternalStatusMessage@@UAEPAXI@Z 1016bda0 f i auth.pb.obj
 0002:00072df0       ??_GAuthenticateKickUserMessage@@UAEPAXI@Z 1016bdf0 f i auth.pb.obj
 0002:00072df0       ??_EAuthenticateKickUserMessage@@UAEPAXI@Z 1016bdf0 f i auth.pb.obj
 0002:00072e40       ??_EAuthenticateRegisterServerMessage@@UAEPAXI@Z 1016be40 f i auth.pb.obj
 0002:00072e40       ??_GAuthenticateRegisterServerMessage@@UAEPAXI@Z 1016be40 f i auth.pb.obj
 0002:00072e90       ??_GAuthenticateRegisterServerResultMessage@@UAEPAXI@Z 1016be90 f i auth.pb.obj
 0002:00072e90       ??_EAuthenticateRegisterServerResultMessage@@UAEPAXI@Z 1016be90 f i auth.pb.obj
 0002:00072ee0       ??_EAuthenticateResultMessage@@UAEPAXI@Z 1016bee0 f i auth.pb.obj
 0002:00072ee0       ??_GAuthenticateResultMessage@@UAEPAXI@Z 1016bee0 f i auth.pb.obj
 0002:00072f30       ??_GAuthenticateUserGroupMessage@@UAEPAXI@Z 1016bf30 f i auth.pb.obj
 0002:00072f30       ??_EAuthenticateUserGroupMessage@@UAEPAXI@Z 1016bf30 f i auth.pb.obj
 0002:00072f80       ??_GAuthenticateValidateTicketMessage@@UAEPAXI@Z 1016bf80 f i auth.pb.obj
 0002:00072f80       ??_EAuthenticateValidateTicketMessage@@UAEPAXI@Z 1016bf80 f i auth.pb.obj
 0002:00072fd0       ??_GAuthenticateValidateTicketResultMessage@@UAEPAXI@Z 1016bfd0 f i auth.pb.obj
 0002:00072fd0       ??_EAuthenticateValidateTicketResultMessage@@UAEPAXI@Z 1016bfd0 f i auth.pb.obj
 0002:00073020       ??_GAuthenticateWithDetailsMessage@@UAEPAXI@Z 1016c020 f i auth.pb.obj
 0002:00073020       ??_EAuthenticateWithDetailsMessage@@UAEPAXI@Z 1016c020 f i auth.pb.obj
 0002:00073070       ??_GAuthenticateWithKeyMessage@@UAEPAXI@Z 1016c070 f i auth.pb.obj
 0002:00073070       ??_EAuthenticateWithKeyMessage@@UAEPAXI@Z 1016c070 f i auth.pb.obj
 0002:000730c0       ??_GAuthenticateWithTokenMessage@@UAEPAXI@Z 1016c0c0 f i auth.pb.obj
 0002:000730c0       ??_EAuthenticateWithTokenMessage@@UAEPAXI@Z 1016c0c0 f i auth.pb.obj
 0002:00073110       ??_GClosure@protobuf@google@@UAEPAXI@Z 1016c110 f i auth.pb.obj
 0002:00073110       ??_EClosure@protobuf@google@@UAEPAXI@Z 1016c110 f i auth.pb.obj
 0002:00073160       ??_EFunctionClosure0@internal@protobuf@google@@UAEPAXI@Z 1016c160 f i auth.pb.obj
 0002:00073160       ??_GFunctionClosure0@internal@protobuf@google@@UAEPAXI@Z 1016c160 f i auth.pb.obj
 0002:000731b0       ??_GMessageLite@protobuf@google@@UAEPAXI@Z 1016c1b0 f i auth.pb.obj
 0002:000731b0       ??_EMessageLite@protobuf@google@@UAEPAXI@Z 1016c1b0 f i auth.pb.obj
 0002:00073200       ?Acquire_Load@internal@protobuf@google@@YAHPDH@Z 1016c200 f i auth.pb.obj
 0002:00073230       ?Advance@CodedInputStream@io@protobuf@google@@AAEXH@Z 1016c230 f i auth.pb.obj
 0002:00073260       ?BufferSize@CodedInputStream@io@protobuf@google@@ABEHXZ 1016c260 f i auth.pb.obj
 0002:00073290       ?ByteSize@AuthenticateExternalStatusMessage@@UBEHXZ 1016c290 f   auth.pb.obj
 0002:00073330       ?ByteSize@AuthenticateKickUserMessage@@UBEHXZ 1016c330 f   auth.pb.obj
 0002:00073420       ?ByteSize@AuthenticateRegisterServerMessage@@UBEHXZ 1016c420 f   auth.pb.obj
 0002:000734c0       ?ByteSize@AuthenticateRegisterServerResultMessage@@UBEHXZ 1016c4c0 f   auth.pb.obj
 0002:000735d0       ?ByteSize@AuthenticateResultMessage@@UBEHXZ 1016c5d0 f   auth.pb.obj
 0002:000736c0       ?ByteSize@AuthenticateUserGroupMessage@@UBEHXZ 1016c6c0 f   auth.pb.obj
 0002:00073760       ?ByteSize@AuthenticateValidateTicketMessage@@UBEHXZ 1016c760 f   auth.pb.obj
 0002:00073870       ?ByteSize@AuthenticateValidateTicketResultMessage@@UBEHXZ 1016c870 f   auth.pb.obj
 0002:00073960       ?ByteSize@AuthenticateWithDetailsMessage@@UBEHXZ 1016c960 f   auth.pb.obj
 0002:00073a30       ?ByteSize@AuthenticateWithKeyMessage@@UBEHXZ 1016ca30 f   auth.pb.obj
 0002:00073ad0       ?ByteSize@AuthenticateWithTokenMessage@@UBEHXZ 1016cad0 f   auth.pb.obj
 0002:00073b70       ?BytesSize@WireFormatLite@internal@protobuf@google@@SAHABV?$basic_string@DU?$char_traits@D@std@@V?$allocator@D@2@@std@@@Z 1016cb70 f i auth.pb.obj
 0002:00073bb0       ?CheckTypeAndMergeFrom@AuthenticateExternalStatusMessage@@UAEXABVMessageLite@protobuf@google@@@Z 1016cbb0 f   auth.pb.obj
 0002:00073bf0       ?CheckTypeAndMergeFrom@AuthenticateKickUserMessage@@UAEXABVMessageLite@protobuf@google@@@Z 1016cbf0 f   auth.pb.obj
 0002:00073c30       ?CheckTypeAndMergeFrom@AuthenticateRegisterServerMessage@@UAEXABVMessageLite@protobuf@google@@@Z 1016cc30 f   auth.pb.obj
 0002:00073c70       ?CheckTypeAndMergeFrom@AuthenticateRegisterServerResultMessage@@UAEXABVMessageLite@protobuf@google@@@Z 1016cc70 f   auth.pb.obj
 0002:00073cb0       ?CheckTypeAndMergeFrom@AuthenticateResultMessage@@UAEXABVMessageLite@protobuf@google@@@Z 1016ccb0 f   auth.pb.obj
 0002:00073cf0       ?CheckTypeAndMergeFrom@AuthenticateUserGroupMessage@@UAEXABVMessageLite@protobuf@google@@@Z 1016ccf0 f   auth.pb.obj
 0002:00073d30       ?CheckTypeAndMergeFrom@AuthenticateValidateTicketMessage@@UAEXABVMessageLite@protobuf@google@@@Z 1016cd30 f   auth.pb.obj
 0002:00073d70       ?CheckTypeAndMergeFrom@AuthenticateValidateTicketResultMessage@@UAEXABVMessageLite@protobuf@google@@@Z 1016cd70 f   auth.pb.obj
 0002:00073db0       ?CheckTypeAndMergeFrom@AuthenticateWithDetailsMessage@@UAEXABVMessageLite@protobuf@google@@@Z 1016cdb0 f   auth.pb.obj
 0002:00073df0       ?CheckTypeAndMergeFrom@AuthenticateWithKeyMessage@@UAEXABVMessageLite@protobuf@google@@@Z 1016cdf0 f   auth.pb.obj
 0002:00073e30       ?CheckTypeAndMergeFrom@AuthenticateWithTokenMessage@@UAEXABVMessageLite@protobuf@google@@@Z 1016ce30 f   auth.pb.obj
 0002:00073e70       ?Clear@AuthenticateExternalStatusMessage@@UAEXXZ 1016ce70 f   auth.pb.obj
 0002:00073ec0       ?Clear@AuthenticateKickUserMessage@@UAEXXZ 1016cec0 f   auth.pb.obj
 0002:00073f70       ?Clear@AuthenticateRegisterServerMessage@@UAEXXZ 1016cf70 f   auth.pb.obj
 0002:00073ff0       ?Clear@AuthenticateRegisterServerResultMessage@@UAEXXZ 1016cff0 f   auth.pb.obj
 0002:000740c0       ?Clear@AuthenticateResultMessage@@UAEXXZ 1016d0c0 f   auth.pb.obj
 0002:00074170       ?Clear@AuthenticateUserGroupMessage@@UAEXXZ 1016d170 f   auth.pb.obj
 0002:000741c0       ?Clear@AuthenticateValidateTicketMessage@@UAEXXZ 1016d1c0 f   auth.pb.obj
 0002:000742a0       ?Clear@AuthenticateValidateTicketResultMessage@@UAEXXZ 1016d2a0 f   auth.pb.obj
 0002:00074320       ?Clear@AuthenticateWithDetailsMessage@@UAEXXZ 1016d320 f   auth.pb.obj
 0002:000743e0       ?Clear@AuthenticateWithKeyMessage@@UAEXXZ 1016d3e0 f   auth.pb.obj
 0002:00074460       ?Clear@AuthenticateWithTokenMessage@@UAEXXZ 1016d460 f   auth.pb.obj
 0002:000744e0       ?CopyFrom@AuthenticateExternalStatusMessage@@QAEXABV1@@Z 1016d4e0 f   auth.pb.obj
 0002:00074530       ?CopyFrom@AuthenticateKickUserMessage@@QAEXABV1@@Z 1016d530 f   auth.pb.obj
 0002:00074580       ?CopyFrom@AuthenticateRegisterServerMessage@@QAEXABV1@@Z 1016d580 f   auth.pb.obj
 0002:000745d0       ?CopyFrom@AuthenticateRegisterServerResultMessage@@QAEXABV1@@Z 1016d5d0 f   auth.pb.obj
 0002:00074620       ?CopyFrom@AuthenticateResultMessage@@QAEXABV1@@Z 1016d620 f   auth.pb.obj
 0002:00074670       ?CopyFrom@AuthenticateUserGroupMessage@@QAEXABV1@@Z 1016d670 f   auth.pb.obj
 0002:000746c0       ?CopyFrom@AuthenticateValidateTicketMessage@@QAEXABV1@@Z 1016d6c0 f   auth.pb.obj
 0002:00074710       ?CopyFrom@AuthenticateValidateTicketResultMessage@@QAEXABV1@@Z 1016d710 f   auth.pb.obj
 0002:00074760       ?CopyFrom@AuthenticateWithDetailsMessage@@QAEXABV1@@Z 1016d760 f   auth.pb.obj
 0002:000747b0       ?CopyFrom@AuthenticateWithKeyMessage@@QAEXABV1@@Z 1016d7b0 f   auth.pb.obj
 0002:00074800       ?CopyFrom@AuthenticateWithTokenMessage@@QAEXABV1@@Z 1016d800 f   auth.pb.obj
 0002:00074850       ?ExpectAtEnd@CodedInputStream@io@protobuf@google@@QAE_NXZ 1016d850 f i auth.pb.obj
 0002:000748c0       ?ExpectTag@CodedInputStream@io@protobuf@google@@QAE_NI@Z 1016d8c0 f i auth.pb.obj
 0002:000749c0       ?GetCachedSize@AuthenticateExternalStatusMessage@@UBEHXZ 1016d9c0 f i auth.pb.obj
 0002:000749e0       ?GetCachedSize@AuthenticateKickUserMessage@@UBEHXZ 1016d9e0 f i auth.pb.obj
 0002:00074a00       ?GetCachedSize@AuthenticateRegisterServerMessage@@UBEHXZ 1016da00 f i auth.pb.obj
 0002:00074a20       ?GetCachedSize@AuthenticateRegisterServerResultMessage@@UBEHXZ 1016da20 f i auth.pb.obj
 0002:00074a40       ?GetCachedSize@AuthenticateResultMessage@@UBEHXZ 1016da40 f i auth.pb.obj
 0002:00074a60       ?GetCachedSize@AuthenticateUserGroupMessage@@UBEHXZ 1016da60 f i auth.pb.obj
 0002:00074a80       ?GetCachedSize@AuthenticateValidateTicketMessage@@UBEHXZ 1016da80 f i auth.pb.obj
 0002:00074aa0       ?GetCachedSize@AuthenticateValidateTicketResultMessage@@UBEHXZ 1016daa0 f i auth.pb.obj
 0002:00074ac0       ?GetCachedSize@AuthenticateWithDetailsMessage@@UBEHXZ 1016dac0 f i auth.pb.obj
 0002:00074ae0       ?GetCachedSize@AuthenticateWithKeyMessage@@UBEHXZ 1016dae0 f i auth.pb.obj
 0002:00074b00       ?GetCachedSize@AuthenticateWithTokenMessage@@UBEHXZ 1016db00 f i auth.pb.obj
 0002:00074b20       ?GetEmptyString@internal@protobuf@google@@YAABV?$basic_string@DU?$char_traits@D@std@@V?$allocator@D@2@@std@@XZ 1016db20 f i auth.pb.obj
 0002:00074b50       ?GetTagFieldNumber@WireFormatLite@internal@protobuf@google@@SAHI@Z 1016db50 f i auth.pb.obj
 0002:00074b70       ?GetTagWireType@WireFormatLite@internal@protobuf@google@@SA?AW4WireType@1234@I@Z 1016db70 f i auth.pb.obj
 0002:00074b90       ?GetTypeName@AuthenticateExternalStatusMessage@@UBE?AV?$basic_string@DU?$char_traits@D@std@@V?$allocator@D@2@@std@@XZ 1016db90 f   auth.pb.obj
 0002:00074be0       ?GetTypeName@AuthenticateKickUserMessage@@UBE?AV?$basic_string@DU?$char_traits@D@std@@V?$allocator@D@2@@std@@XZ 1016dbe0 f   auth.pb.obj
 0002:00074c30       ?GetTypeName@AuthenticateRegisterServerMessage@@UBE?AV?$basic_string@DU?$char_traits@D@std@@V?$allocator@D@2@@std@@XZ 1016dc30 f   auth.pb.obj
 0002:00074c80       ?GetTypeName@AuthenticateRegisterServerResultMessage@@UBE?AV?$basic_string@DU?$char_traits@D@std@@V?$allocator@D@2@@std@@XZ 1016dc80 f   auth.pb.obj
 0002:00074cd0       ?GetTypeName@AuthenticateResultMessage@@UBE?AV?$basic_string@DU?$char_traits@D@std@@V?$allocator@D@2@@std@@XZ 1016dcd0 f   auth.pb.obj
 0002:00074d20       ?GetTypeName@AuthenticateUserGroupMessage@@UBE?AV?$basic_string@DU?$char_traits@D@std@@V?$allocator@D@2@@std@@XZ 1016dd20 f   auth.pb.obj
 0002:00074d70       ?GetTypeName@AuthenticateValidateTicketMessage@@UBE?AV?$basic_string@DU?$char_traits@D@std@@V?$allocator@D@2@@std@@XZ 1016dd70 f   auth.pb.obj
 0002:00074dc0       ?GetTypeName@AuthenticateValidateTicketResultMessage@@UBE?AV?$basic_string@DU?$char_traits@D@std@@V?$allocator@D@2@@std@@XZ 1016ddc0 f   auth.pb.obj
 0002:00074e10       ?GetTypeName@AuthenticateWithDetailsMessage@@UBE?AV?$basic_string@DU?$char_traits@D@std@@V?$allocator@D@2@@std@@XZ 1016de10 f   auth.pb.obj
 0002:00074e60       ?GetTypeName@AuthenticateWithKeyMessage@@UBE?AV?$basic_string@DU?$char_traits@D@std@@V?$allocator@D@2@@std@@XZ 1016de60 f   auth.pb.obj
 0002:00074eb0       ?GetTypeName@AuthenticateWithTokenMessage@@UBE?AV?$basic_string@DU?$char_traits@D@std@@V?$allocator@D@2@@std@@XZ 1016deb0 f   auth.pb.obj
 0002:00074f00       ?GoogleOnceInit@protobuf@google@@YAXPAHP6AXXZ@Z 1016df00 f i auth.pb.obj
 0002:00074fa0       ?InitAsDefaultInstance@AuthenticateExternalStatusMessage@@AAEXXZ 1016dfa0 f   auth.pb.obj
 0002:00074fc0       ?InitAsDefaultInstance@AuthenticateKickUserMessage@@AAEXXZ 1016dfc0 f   auth.pb.obj
 0002:00074fe0       ?InitAsDefaultInstance@AuthenticateRegisterServerMessage@@AAEXXZ 1016dfe0 f   auth.pb.obj
 0002:00075000       ?InitAsDefaultInstance@AuthenticateRegisterServerResultMessage@@AAEXXZ 1016e000 f   auth.pb.obj
 0002:00075020       ?InitAsDefaultInstance@AuthenticateResultMessage@@AAEXXZ 1016e020 f   auth.pb.obj
 0002:00075040       ?InitAsDefaultInstance@AuthenticateUserGroupMessage@@AAEXXZ 1016e040 f   auth.pb.obj
 0002:00075060       ?InitAsDefaultInstance@AuthenticateValidateTicketMessage@@AAEXXZ 1016e060 f   auth.pb.obj
 0002:00075080       ?InitAsDefaultInstance@AuthenticateValidateTicketResultMessage@@AAEXXZ 1016e080 f   auth.pb.obj
 0002:000750a0       ?InitAsDefaultInstance@AuthenticateWithDetailsMessage@@AAEXXZ 1016e0a0 f   auth.pb.obj
 0002:000750c0       ?InitAsDefaultInstance@AuthenticateWithKeyMessage@@AAEXXZ 1016e0c0 f   auth.pb.obj
 0002:000750e0       ?InitAsDefaultInstance@AuthenticateWithTokenMessage@@AAEXXZ 1016e0e0 f   auth.pb.obj
 0002:00075100       ?Int32Size@WireFormatLite@internal@protobuf@google@@SAHH@Z 1016e100 f i auth.pb.obj
 0002:00075130       ?IsInitialized@AuthenticateExternalStatusMessage@@UBE_NXZ 1016e130 f   auth.pb.obj
 0002:00075170       ?IsInitialized@AuthenticateKickUserMessage@@UBE_NXZ 1016e170 f   auth.pb.obj
 0002:000751b0       ?IsInitialized@AuthenticateRegisterServerMessage@@UBE_NXZ 1016e1b0 f   auth.pb.obj
 0002:000751d0       ?IsInitialized@AuthenticateRegisterServerResultMessage@@UBE_NXZ 1016e1d0 f   auth.pb.obj
 0002:00075210       ?IsInitialized@AuthenticateResultMessage@@UBE_NXZ 1016e210 f   auth.pb.obj
 0002:00075250       ?IsInitialized@AuthenticateUserGroupMessage@@UBE_NXZ 1016e250 f   auth.pb.obj
 0002:00075290       ?IsInitialized@AuthenticateValidateTicketMessage@@UBE_NXZ 1016e290 f   auth.pb.obj
 0002:000752d0       ?IsInitialized@AuthenticateValidateTicketResultMessage@@UBE_NXZ 1016e2d0 f   auth.pb.obj
 0002:00075310       ?IsInitialized@AuthenticateWithDetailsMessage@@UBE_NXZ 1016e310 f   auth.pb.obj
 0002:00075350       ?IsInitialized@AuthenticateWithKeyMessage@@UBE_NXZ 1016e350 f   auth.pb.obj
 0002:00075390       ?IsInitialized@AuthenticateWithTokenMessage@@UBE_NXZ 1016e390 f   auth.pb.obj
 0002:000753d0       ?MergeFrom@AuthenticateExternalStatusMessage@@QAEXABV1@@Z 1016e3d0 f   auth.pb.obj
 0002:00075540       ?MergeFrom@AuthenticateKickUserMessage@@QAEXABV1@@Z 1016e540 f   auth.pb.obj
 0002:00075700       ?MergeFrom@AuthenticateRegisterServerMessage@@QAEXABV1@@Z 1016e700 f   auth.pb.obj
 0002:00075870       ?MergeFrom@AuthenticateRegisterServerResultMessage@@QAEXABV1@@Z 1016e870 f   auth.pb.obj
 0002:00075a30       ?MergeFrom@AuthenticateResultMessage@@QAEXABV1@@Z 1016ea30 f   auth.pb.obj
 0002:00075bf0       ?MergeFrom@AuthenticateUserGroupMessage@@QAEXABV1@@Z 1016ebf0 f   auth.pb.obj
 0002:00075d60       ?MergeFrom@AuthenticateValidateTicketMessage@@QAEXABV1@@Z 1016ed60 f   auth.pb.obj
 0002:00075f50       ?MergeFrom@AuthenticateValidateTicketResultMessage@@QAEXABV1@@Z 1016ef50 f   auth.pb.obj
 0002:00076110       ?MergeFrom@AuthenticateWithDetailsMessage@@QAEXABV1@@Z 1016f110 f   auth.pb.obj
 0002:000762a0       ?MergeFrom@AuthenticateWithKeyMessage@@QAEXABV1@@Z 1016f2a0 f   auth.pb.obj
 0002:00076410       ?MergeFrom@AuthenticateWithTokenMessage@@QAEXABV1@@Z 1016f410 f   auth.pb.obj
 0002:00076580       ?MergePartialFromCodedStream@AuthenticateExternalStatusMessage@@UAE_NPAVCodedInputStream@io@protobuf@google@@@Z 1016f580 f   auth.pb.obj
 0002:00076740       ?MergePartialFromCodedStream@AuthenticateKickUserMessage@@UAE_NPAVCodedInputStream@io@protobuf@google@@@Z 1016f740 f   auth.pb.obj
 0002:000769c0       ?MergePartialFromCodedStream@AuthenticateRegisterServerMessage@@UAE_NPAVCodedInputStream@io@protobuf@google@@@Z 1016f9c0 f   auth.pb.obj
 0002:00076b70       ?MergePartialFromCodedStream@AuthenticateRegisterServerResultMessage@@UAE_NPAVCodedInputStream@io@protobuf@google@@@Z 1016fb70 f   auth.pb.obj
 0002:00076df0       ?MergePartialFromCodedStream@AuthenticateResultMessage@@UAE_NPAVCodedInputStream@io@protobuf@google@@@Z 1016fdf0 f   auth.pb.obj
 0002:00077070       ?MergePartialFromCodedStream@AuthenticateUserGroupMessage@@UAE_NPAVCodedInputStream@io@protobuf@google@@@Z 10170070 f   auth.pb.obj
 0002:00077230       ?MergePartialFromCodedStream@AuthenticateValidateTicketMessage@@UAE_NPAVCodedInputStream@io@protobuf@google@@@Z 10170230 f   auth.pb.obj
 0002:00077520       ?MergePartialFromCodedStream@AuthenticateValidateTicketResultMessage@@UAE_NPAVCodedInputStream@io@protobuf@google@@@Z 10170520 f   auth.pb.obj
 0002:000777b0       ?MergePartialFromCodedStream@AuthenticateWithDetailsMessage@@UAE_NPAVCodedInputStream@io@protobuf@google@@@Z 101707b0 f   auth.pb.obj
 0002:000779c0       ?MergePartialFromCodedStream@AuthenticateWithKeyMessage@@UAE_NPAVCodedInputStream@io@protobuf@google@@@Z 101709c0 f   auth.pb.obj
 0002:00077b70       ?MergePartialFromCodedStream@AuthenticateWithTokenMessage@@UAE_NPAVCodedInputStream@io@protobuf@google@@@Z 10170b70 f   auth.pb.obj
 0002:00077d20       ?New@AuthenticateExternalStatusMessage@@UBEPAV1@XZ 10170d20 f   auth.pb.obj
 0002:00077dc0       ?New@AuthenticateKickUserMessage@@UBEPAV1@XZ 10170dc0 f   auth.pb.obj
 0002:00077e60       ?New@AuthenticateRegisterServerMessage@@UBEPAV1@XZ 10170e60 f   auth.pb.obj
 0002:00077f00       ?New@AuthenticateRegisterServerResultMessage@@UBEPAV1@XZ 10170f00 f   auth.pb.obj
 0002:00077fa0       ?New@AuthenticateResultMessage@@UBEPAV1@XZ 10170fa0 f   auth.pb.obj
 0002:00078040       ?New@AuthenticateUserGroupMessage@@UBEPAV1@XZ 10171040 f   auth.pb.obj
 0002:000780e0       ?New@AuthenticateValidateTicketMessage@@UBEPAV1@XZ 101710e0 f   auth.pb.obj
 0002:00078180       ?New@AuthenticateValidateTicketResultMessage@@UBEPAV1@XZ 10171180 f   auth.pb.obj
 0002:00078220       ?New@AuthenticateWithDetailsMessage@@UBEPAV1@XZ 10171220 f   auth.pb.obj
 0002:000782c0       ?New@AuthenticateWithKeyMessage@@UBEPAV1@XZ 101712c0 f   auth.pb.obj
 0002:00078360       ?New@AuthenticateWithTokenMessage@@UBEPAV1@XZ 10171360 f   auth.pb.obj
 0002:00078400       ?ReadLittleEndian32@CodedInputStream@io@protobuf@google@@QAE_NPAI@Z 10171400 f i auth.pb.obj
 0002:00078470       ?ReadLittleEndian64@CodedInputStream@io@protobuf@google@@QAE_NPA_K@Z 10171470 f i auth.pb.obj
 0002:000784e0       ?ReadTagWithCutoff@CodedInputStream@io@protobuf@google@@QAE?AU?$pair@I_N@std@@I@Z 101714e0 f i auth.pb.obj
 0002:00078730       ?ReadVarint32@CodedInputStream@io@protobuf@google@@QAE_NPAI@Z 10171730 f i auth.pb.obj
 0002:000787b0       ?Run@FunctionClosure0@internal@protobuf@google@@UAEXXZ 101717b0 f i auth.pb.obj
 0002:00078820       ?SerializeWithCachedSizes@AuthenticateExternalStatusMessage@@UBEXPAVCodedOutputStream@io@protobuf@google@@@Z 10171820 f   auth.pb.obj
 0002:000788a0       ?SerializeWithCachedSizes@AuthenticateKickUserMessage@@UBEXPAVCodedOutputStream@io@protobuf@google@@@Z 101718a0 f   auth.pb.obj
 0002:00078980       ?SerializeWithCachedSizes@AuthenticateRegisterServerMessage@@UBEXPAVCodedOutputStream@io@protobuf@google@@@Z 10171980 f   auth.pb.obj
 0002:00078a00       ?SerializeWithCachedSizes@AuthenticateRegisterServerResultMessage@@UBEXPAVCodedOutputStream@io@protobuf@google@@@Z 10171a00 f   auth.pb.obj
 0002:00078ae0       ?SerializeWithCachedSizes@AuthenticateResultMessage@@UBEXPAVCodedOutputStream@io@protobuf@google@@@Z 10171ae0 f   auth.pb.obj
 0002:00078bc0       ?SerializeWithCachedSizes@AuthenticateUserGroupMessage@@UBEXPAVCodedOutputStream@io@protobuf@google@@@Z 10171bc0 f   auth.pb.obj
 0002:00078c40       ?SerializeWithCachedSizes@AuthenticateValidateTicketMessage@@UBEXPAVCodedOutputStream@io@protobuf@google@@@Z 10171c40 f   auth.pb.obj
 0002:00078d50       ?SerializeWithCachedSizes@AuthenticateValidateTicketResultMessage@@UBEXPAVCodedOutputStream@io@protobuf@google@@@Z 10171d50 f   auth.pb.obj
 0002:00078e30       ?SerializeWithCachedSizes@AuthenticateWithDetailsMessage@@UBEXPAVCodedOutputStream@io@protobuf@google@@@Z 10171e30 f   auth.pb.obj
 0002:00078ee0       ?SerializeWithCachedSizes@AuthenticateWithKeyMessage@@UBEXPAVCodedOutputStream@io@protobuf@google@@@Z 10171ee0 f   auth.pb.obj
 0002:00078f60       ?SerializeWithCachedSizes@AuthenticateWithTokenMessage@@UBEXPAVCodedOutputStream@io@protobuf@google@@@Z 10171f60 f   auth.pb.obj
 0002:00078fe0       ?SetCachedSize@AuthenticateExternalStatusMessage@@ABEXH@Z 10171fe0 f   auth.pb.obj
 0002:00079010       ?SetCachedSize@AuthenticateKickUserMessage@@ABEXH@Z 10172010 f   auth.pb.obj
 0002:00079040       ?SetCachedSize@AuthenticateRegisterServerMessage@@ABEXH@Z 10172040 f   auth.pb.obj
 0002:00079070       ?SetCachedSize@AuthenticateRegisterServerResultMessage@@ABEXH@Z 10172070 f   auth.pb.obj
 0002:000790a0       ?SetCachedSize@AuthenticateResultMessage@@ABEXH@Z 101720a0 f   auth.pb.obj
 0002:000790d0       ?SetCachedSize@AuthenticateUserGroupMessage@@ABEXH@Z 101720d0 f   auth.pb.obj
 0002:00079100       ?SetCachedSize@AuthenticateValidateTicketMessage@@ABEXH@Z 10172100 f   auth.pb.obj
 0002:00079130       ?SetCachedSize@AuthenticateValidateTicketResultMessage@@ABEXH@Z 10172130 f   auth.pb.obj
 0002:00079160       ?SetCachedSize@AuthenticateWithDetailsMessage@@ABEXH@Z 10172160 f   auth.pb.obj
 0002:00079190       ?SetCachedSize@AuthenticateWithKeyMessage@@ABEXH@Z 10172190 f   auth.pb.obj
 0002:000791c0       ?SetCachedSize@AuthenticateWithTokenMessage@@ABEXH@Z 101721c0 f   auth.pb.obj
 0002:000791f0       ?SharedCtor@AuthenticateExternalStatusMessage@@AAEXXZ 101721f0 f   auth.pb.obj
 0002:00079240       ?SharedCtor@AuthenticateKickUserMessage@@AAEXXZ 10172240 f   auth.pb.obj
 0002:000792c0       ?SharedCtor@AuthenticateRegisterServerMessage@@AAEXXZ 101722c0 f   auth.pb.obj
 0002:00079310       ?SharedCtor@AuthenticateRegisterServerResultMessage@@AAEXXZ 10172310 f   auth.pb.obj
 0002:00079380       ?SharedCtor@AuthenticateResultMessage@@AAEXXZ 10172380 f   auth.pb.obj
 0002:00079400       ?SharedCtor@AuthenticateUserGroupMessage@@AAEXXZ 10172400 f   auth.pb.obj
 0002:00079450       ?SharedCtor@AuthenticateValidateTicketMessage@@AAEXXZ 10172450 f   auth.pb.obj
 0002:000794d0       ?SharedCtor@AuthenticateValidateTicketResultMessage@@AAEXXZ 101724d0 f   auth.pb.obj
 0002:00079540       ?SharedCtor@AuthenticateWithDetailsMessage@@AAEXXZ 10172540 f   auth.pb.obj
 0002:000795a0       ?SharedCtor@AuthenticateWithKeyMessage@@AAEXXZ 101725a0 f   auth.pb.obj
 0002:000795f0       ?SharedCtor@AuthenticateWithTokenMessage@@AAEXXZ 101725f0 f   auth.pb.obj
 0002:00079640       ?SharedDtor@AuthenticateExternalStatusMessage@@AAEXXZ 10172640 f   auth.pb.obj
 0002:00079660       ?SharedDtor@AuthenticateKickUserMessage@@AAEXXZ 10172660 f   auth.pb.obj
 0002:000796c0       ?SharedDtor@AuthenticateRegisterServerMessage@@AAEXXZ 101726c0 f   auth.pb.obj
 0002:00079720       ?SharedDtor@AuthenticateRegisterServerResultMessage@@AAEXXZ 10172720 f   auth.pb.obj
 0002:00079780       ?SharedDtor@AuthenticateResultMessage@@AAEXXZ 10172780 f   auth.pb.obj
 0002:000797e0       ?SharedDtor@AuthenticateUserGroupMessage@@AAEXXZ 101727e0 f   auth.pb.obj
 0002:00079800       ?SharedDtor@AuthenticateValidateTicketMessage@@AAEXXZ 10172800 f   auth.pb.obj
 0002:000798b0       ?SharedDtor@AuthenticateValidateTicketResultMessage@@AAEXXZ 101728b0 f   auth.pb.obj
 0002:000798d0       ?SharedDtor@AuthenticateWithDetailsMessage@@AAEXXZ 101728d0 f   auth.pb.obj
 0002:00079980       ?SharedDtor@AuthenticateWithKeyMessage@@AAEXXZ 10172980 f   auth.pb.obj
 0002:000799e0       ?SharedDtor@AuthenticateWithTokenMessage@@AAEXXZ 101729e0 f   auth.pb.obj
 0002:00079a40       ?StringSize@WireFormatLite@internal@protobuf@google@@SAHABV?$basic_string@DU?$char_traits@D@std@@V?$allocator@D@2@@std@@@Z 10172a40 f i auth.pb.obj
 0002:00079a80       ?Swap@AuthenticateExternalStatusMessage@@QAEXPAV1@@Z 10172a80 f   auth.pb.obj
 0002:00079b30       ?Swap@AuthenticateKickUserMessage@@QAEXPAV1@@Z 10172b30 f   auth.pb.obj
 0002:00079c10       ?Swap@AuthenticateRegisterServerMessage@@QAEXPAV1@@Z 10172c10 f   auth.pb.obj
 0002:00079cc0       ?Swap@AuthenticateRegisterServerResultMessage@@QAEXPAV1@@Z 10172cc0 f   auth.pb.obj
 0002:00079da0       ?Swap@AuthenticateResultMessage@@QAEXPAV1@@Z 10172da0 f   auth.pb.obj
 0002:00079e80       ?Swap@AuthenticateUserGroupMessage@@QAEXPAV1@@Z 10172e80 f   auth.pb.obj
 0002:00079f30       ?Swap@AuthenticateValidateTicketMessage@@QAEXPAV1@@Z 10172f30 f   auth.pb.obj
 0002:0007a030       ?Swap@AuthenticateValidateTicketResultMessage@@QAEXPAV1@@Z 10173030 f   auth.pb.obj
 0002:0007a110       ?Swap@AuthenticateWithDetailsMessage@@QAEXPAV1@@Z 10173110 f   auth.pb.obj
 0002:0007a1d0       ?Swap@AuthenticateWithKeyMessage@@QAEXPAV1@@Z 101731d0 f   auth.pb.obj
 0002:0007a280       ?Swap@AuthenticateWithTokenMessage@@QAEXPAV1@@Z 10173280 f   auth.pb.obj
 0002:0007a330       ?VarintSize32@CodedOutputStream@io@protobuf@google@@SAHI@Z 10173330 f i auth.pb.obj
 0002:0007a370       ?VarintSize32SignExtended@CodedOutputStream@io@protobuf@google@@SAHH@Z 10173370 f i auth.pb.obj
 0002:0007a3b0       ?_Change_alloc@?$_String_alloc@$0A@U?$_String_base_types@DV?$allocator@D@std@@@std@@@std@@QAEXABU?$_Wrap_alloc@V?$allocator@D@std@@@2@@Z 101733b0 f i auth.pb.obj
 0002:0007a3d0       ?_Swap_all@_Container_base0@std@@QAEXAAU12@@Z 101733d0 f i auth.pb.obj
 0002:0007a3f0       ?_Swap_alloc@?$_String_alloc@$0A@U?$_String_base_types@DV?$allocator@D@std@@@std@@@std@@QAEXAAV12@@Z 101733f0 f i auth.pb.obj
 0002:0007a410       ?_Swap_bx@?$basic_string@DU?$char_traits@D@std@@V?$allocator@D@2@@std@@QAEXAAV12@@Z 10173410 f i auth.pb.obj
 0002:0007a550       ?clientip@AuthenticateValidateTicketMessage@@QBEIXZ 10173550 f i auth.pb.obj
 0002:0007a570       ?configpath@AuthenticateRegisterServerMessage@@QBEABV?$basic_string@DU?$char_traits@D@std@@V?$allocator@D@2@@std@@XZ 10173570 f i auth.pb.obj
 0002:0007a590       ?default_instance@AuthenticateExternalStatusMessage@@SAABV1@XZ 10173590 f   auth.pb.obj
 0002:0007a5c0       ?default_instance@AuthenticateKickUserMessage@@SAABV1@XZ 101735c0 f   auth.pb.obj
 0002:0007a5f0       ?default_instance@AuthenticateRegisterServerMessage@@SAABV1@XZ 101735f0 f   auth.pb.obj
 0002:0007a620       ?default_instance@AuthenticateRegisterServerResultMessage@@SAABV1@XZ 10173620 f   auth.pb.obj
 0002:0007a650       ?default_instance@AuthenticateResultMessage@@SAABV1@XZ 10173650 f   auth.pb.obj
 0002:0007a680       ?default_instance@AuthenticateUserGroupMessage@@SAABV1@XZ 10173680 f   auth.pb.obj
 0002:0007a6b0       ?default_instance@AuthenticateValidateTicketMessage@@SAABV1@XZ 101736b0 f   auth.pb.obj
 0002:0007a6e0       ?default_instance@AuthenticateValidateTicketResultMessage@@SAABV1@XZ 101736e0 f   auth.pb.obj
 0002:0007a710       ?default_instance@AuthenticateWithDetailsMessage@@SAABV1@XZ 10173710 f   auth.pb.obj
 0002:0007a740       ?default_instance@AuthenticateWithKeyMessage@@SAABV1@XZ 10173740 f   auth.pb.obj
 0002:0007a770       ?default_instance@AuthenticateWithTokenMessage@@SAABV1@XZ 10173770 f   auth.pb.obj
 0002:0007a7a0       ?has_clientip@AuthenticateValidateTicketMessage@@QBE_NXZ 101737a0 f i auth.pb.obj
 0002:0007a7f0       ?has_configpath@AuthenticateRegisterServerMessage@@QBE_NXZ 101737f0 f i auth.pb.obj
 0002:0007a840       ?has_groupid@AuthenticateUserGroupMessage@@QBE_NXZ 10173840 f i auth.pb.obj
 0002:0007a890       ?has_groupid@AuthenticateValidateTicketResultMessage@@QBE_NXZ 10173890 f i auth.pb.obj
 0002:0007a8e0       ?has_licensekey@AuthenticateRegisterServerResultMessage@@QBE_NXZ 101738e0 f i auth.pb.obj
 0002:0007a930       ?has_licensekey@AuthenticateWithKeyMessage@@QBE_NXZ 10173930 f i auth.pb.obj
 0002:0007a980       ?has_name@AuthenticateValidateTicketMessage@@QBE_NXZ 10173980 f i auth.pb.obj
 0002:0007a9d0       ?has_npid@AuthenticateKickUserMessage@@QBE_NXZ 101739d0 f i auth.pb.obj
 0002:0007aa20       ?has_npid@AuthenticateResultMessage@@QBE_NXZ 10173a20 f i auth.pb.obj
 0002:0007aa70       ?has_npid@AuthenticateValidateTicketMessage@@QBE_NXZ 10173a70 f i auth.pb.obj
 0002:0007aac0       ?has_npid@AuthenticateValidateTicketResultMessage@@QBE_NXZ 10173ac0 f i auth.pb.obj
 0002:0007ab10       ?has_password@AuthenticateWithDetailsMessage@@QBE_NXZ 10173b10 f i auth.pb.obj
 0002:0007ab60       ?has_reason@AuthenticateKickUserMessage@@QBE_NXZ 10173b60 f i auth.pb.obj
 0002:0007abb0       ?has_reasonstring@AuthenticateKickUserMessage@@QBE_NXZ 10173bb0 f i auth.pb.obj
 0002:0007ac00       ?has_result@AuthenticateRegisterServerResultMessage@@QBE_NXZ 10173c00 f i auth.pb.obj
 0002:0007ac50       ?has_result@AuthenticateResultMessage@@QBE_NXZ 10173c50 f i auth.pb.obj
 0002:0007aca0       ?has_result@AuthenticateValidateTicketResultMessage@@QBE_NXZ 10173ca0 f i auth.pb.obj
 0002:0007acf0       ?has_serverid@AuthenticateRegisterServerResultMessage@@QBE_NXZ 10173cf0 f i auth.pb.obj
 0002:0007ad40       ?has_sessiontoken@AuthenticateResultMessage@@QBE_NXZ 10173d40 f i auth.pb.obj
 0002:0007ad90       ?has_status@AuthenticateExternalStatusMessage@@QBE_NXZ 10173d90 f i auth.pb.obj
 0002:0007ade0       ?has_ticket@AuthenticateValidateTicketMessage@@QBE_NXZ 10173de0 f i auth.pb.obj
 0002:0007ae30       ?has_token@AuthenticateWithTokenMessage@@QBE_NXZ 10173e30 f i auth.pb.obj
 0002:0007ae80       ?has_username@AuthenticateWithDetailsMessage@@QBE_NXZ 10173e80 f i auth.pb.obj
 0002:0007aed0       ?licensekey@AuthenticateWithKeyMessage@@QBEABV?$basic_string@DU?$char_traits@D@std@@V?$allocator@D@2@@std@@XZ 10173ed0 f i auth.pb.obj
 0002:0007aef0       ?mutable_configpath@AuthenticateRegisterServerMessage@@QAEPAV?$basic_string@DU?$char_traits@D@std@@V?$allocator@D@2@@std@@XZ 10173ef0 f i auth.pb.obj
 0002:0007afc0       ?mutable_licensekey@AuthenticateRegisterServerResultMessage@@QAEPAV?$basic_string@DU?$char_traits@D@std@@V?$allocator@D@2@@std@@XZ 10173fc0 f i auth.pb.obj
 0002:0007b090       ?mutable_licensekey@AuthenticateWithKeyMessage@@QAEPAV?$basic_string@DU?$char_traits@D@std@@V?$allocator@D@2@@std@@XZ 10174090 f i auth.pb.obj
 0002:0007b160       ?mutable_name@AuthenticateValidateTicketMessage@@QAEPAV?$basic_string@DU?$char_traits@D@std@@V?$allocator@D@2@@std@@XZ 10174160 f i auth.pb.obj
 0002:0007b230       ?mutable_password@AuthenticateWithDetailsMessage@@QAEPAV?$basic_string@DU?$char_traits@D@std@@V?$allocator@D@2@@std@@XZ 10174230 f i auth.pb.obj
 0002:0007b300       ?mutable_reasonstring@AuthenticateKickUserMessage@@QAEPAV?$basic_string@DU?$char_traits@D@std@@V?$allocator@D@2@@std@@XZ 10174300 f i auth.pb.obj
 0002:0007b3d0       ?mutable_sessiontoken@AuthenticateResultMessage@@QAEPAV?$basic_string@DU?$char_traits@D@std@@V?$allocator@D@2@@std@@XZ 101743d0 f i auth.pb.obj
 0002:0007b4a0       ?mutable_ticket@AuthenticateValidateTicketMessage@@QAEPAV?$basic_string@DU?$char_traits@D@std@@V?$allocator@D@2@@std@@XZ 101744a0 f i auth.pb.obj
 0002:0007b570       ?mutable_token@AuthenticateWithTokenMessage@@QAEPAV?$basic_string@DU?$char_traits@D@std@@V?$allocator@D@2@@std@@XZ 10174570 f i auth.pb.obj
 0002:0007b640       ?mutable_unknown_fields@AuthenticateExternalStatusMessage@@QAEPAV?$basic_string@DU?$char_traits@D@std@@V?$allocator@D@2@@std@@XZ 10174640 f i auth.pb.obj
 0002:0007b660       ?mutable_unknown_fields@AuthenticateKickUserMessage@@QAEPAV?$basic_string@DU?$char_traits@D@std@@V?$allocator@D@2@@std@@XZ 10174660 f i auth.pb.obj
 0002:0007b680       ?mutable_unknown_fields@AuthenticateRegisterServerMessage@@QAEPAV?$basic_string@DU?$char_traits@D@std@@V?$allocator@D@2@@std@@XZ 10174680 f i auth.pb.obj
 0002:0007b6a0       ?mutable_unknown_fields@AuthenticateRegisterServerResultMessage@@QAEPAV?$basic_string@DU?$char_traits@D@std@@V?$allocator@D@2@@std@@XZ 101746a0 f i auth.pb.obj
 0002:0007b6c0       ?mutable_unknown_fields@AuthenticateResultMessage@@QAEPAV?$basic_string@DU?$char_traits@D@std@@V?$allocator@D@2@@std@@XZ 101746c0 f i auth.pb.obj
 0002:0007b6e0       ?mutable_unknown_fields@AuthenticateUserGroupMessage@@QAEPAV?$basic_string@DU?$char_traits@D@std@@V?$allocator@D@2@@std@@XZ 101746e0 f i auth.pb.obj
 0002:0007b700       ?mutable_unknown_fields@AuthenticateValidateTicketMessage@@QAEPAV?$basic_string@DU?$char_traits@D@std@@V?$allocator@D@2@@std@@XZ 10174700 f i auth.pb.obj
 0002:0007b720       ?mutable_unknown_fields@AuthenticateValidateTicketResultMessage@@QAEPAV?$basic_string@DU?$char_traits@D@std@@V?$allocator@D@2@@std@@XZ 10174720 f i auth.pb.obj
 0002:0007b740       ?mutable_unknown_fields@AuthenticateWithDetailsMessage@@QAEPAV?$basic_string@DU?$char_traits@D@std@@V?$allocator@D@2@@std@@XZ 10174740 f i auth.pb.obj
 0002:0007b760       ?mutable_unknown_fields@AuthenticateWithKeyMessage@@QAEPAV?$basic_string@DU?$char_traits@D@std@@V?$allocator@D@2@@std@@XZ 10174760 f i auth.pb.obj
 0002:0007b780       ?mutable_unknown_fields@AuthenticateWithTokenMessage@@QAEPAV?$basic_string@DU?$char_traits@D@std@@V?$allocator@D@2@@std@@XZ 10174780 f i auth.pb.obj
 0002:0007b7a0       ?mutable_username@AuthenticateWithDetailsMessage@@QAEPAV?$basic_string@DU?$char_traits@D@std@@V?$allocator@D@2@@std@@XZ 101747a0 f i auth.pb.obj
 0002:0007b870       ?name@AuthenticateValidateTicketMessage@@QBEABV?$basic_string@DU?$char_traits@D@std@@V?$allocator@D@2@@std@@XZ 10174870 f i auth.pb.obj
 0002:0007b890       ?npid@AuthenticateValidateTicketMessage@@QBE_KXZ 10174890 f i auth.pb.obj
 0002:0007b8c0       ?password@AuthenticateWithDetailsMessage@@QBEABV?$basic_string@DU?$char_traits@D@std@@V?$allocator@D@2@@std@@XZ 101748c0 f i auth.pb.obj
 0002:0007b8e0       ?protobuf_AddDesc_auth_2eproto@@YAXXZ 101748e0 f   auth.pb.obj
 0002:0007be90       ?protobuf_ShutdownFile_auth_2eproto@@YAXXZ 10174e90 f   auth.pb.obj
 0002:0007c1c0       ?reason@AuthenticateKickUserMessage@@QBEHXZ 101751c0 f i auth.pb.obj
 0002:0007c1e0       ?set_configpath@AuthenticateRegisterServerMessage@@QAEXABV?$basic_string@DU?$char_traits@D@std@@V?$allocator@D@2@@std@@@Z 101751e0 f i auth.pb.obj
 0002:0007c2b0       ?set_groupid@AuthenticateUserGroupMessage@@QAEXH@Z 101752b0 f i auth.pb.obj
 0002:0007c2e0       ?set_groupid@AuthenticateValidateTicketResultMessage@@QAEXH@Z 101752e0 f i auth.pb.obj
 0002:0007c310       ?set_has_groupid@AuthenticateUserGroupMessage@@AAEXXZ 10175310 f i auth.pb.obj
 0002:0007c360       ?set_has_groupid@AuthenticateValidateTicketResultMessage@@AAEXXZ 10175360 f i auth.pb.obj
 0002:0007c3b0       ?set_has_licensekey@AuthenticateRegisterServerResultMessage@@AAEXXZ 101753b0 f i auth.pb.obj
 0002:0007c400       ?set_has_npid@AuthenticateKickUserMessage@@AAEXXZ 10175400 f i auth.pb.obj
 0002:0007c450       ?set_has_npid@AuthenticateResultMessage@@AAEXXZ 10175450 f i auth.pb.obj
 0002:0007c4a0       ?set_has_npid@AuthenticateValidateTicketResultMessage@@AAEXXZ 101754a0 f i auth.pb.obj
 0002:0007c4f0       ?set_has_reason@AuthenticateKickUserMessage@@AAEXXZ 101754f0 f i auth.pb.obj
 0002:0007c540       ?set_has_reasonstring@AuthenticateKickUserMessage@@AAEXXZ 10175540 f i auth.pb.obj
 0002:0007c590       ?set_has_result@AuthenticateRegisterServerResultMessage@@AAEXXZ 10175590 f i auth.pb.obj
 0002:0007c5e0       ?set_has_result@AuthenticateResultMessage@@AAEXXZ 101755e0 f i auth.pb.obj
 0002:0007c630       ?set_has_result@AuthenticateValidateTicketResultMessage@@AAEXXZ 10175630 f i auth.pb.obj
 0002:0007c680       ?set_has_serverid@AuthenticateRegisterServerResultMessage@@AAEXXZ 10175680 f i auth.pb.obj
 0002:0007c6d0       ?set_has_sessiontoken@AuthenticateResultMessage@@AAEXXZ 101756d0 f i auth.pb.obj
 0002:0007c720       ?set_has_status@AuthenticateExternalStatusMessage@@AAEXXZ 10175720 f i auth.pb.obj
 0002:0007c770       ?set_licensekey@AuthenticateRegisterServerResultMessage@@QAEXABV?$basic_string@DU?$char_traits@D@std@@V?$allocator@D@2@@std@@@Z 10175770 f i auth.pb.obj
 0002:0007c840       ?set_licensekey@AuthenticateWithKeyMessage@@QAEXABV?$basic_string@DU?$char_traits@D@std@@V?$allocator@D@2@@std@@@Z 10175840 f i auth.pb.obj
 0002:0007c910       ?set_name@AuthenticateValidateTicketMessage@@QAEXABV?$basic_string@DU?$char_traits@D@std@@V?$allocator@D@2@@std@@@Z 10175910 f i auth.pb.obj
 0002:0007c9e0       ?set_npid@AuthenticateKickUserMessage@@QAEX_K@Z 101759e0 f i auth.pb.obj
 0002:0007ca20       ?set_npid@AuthenticateResultMessage@@QAEX_K@Z 10175a20 f i auth.pb.obj
 0002:0007ca60       ?set_npid@AuthenticateValidateTicketResultMessage@@QAEX_K@Z 10175a60 f i auth.pb.obj
 0002:0007caa0       ?set_password@AuthenticateWithDetailsMessage@@QAEXABV?$basic_string@DU?$char_traits@D@std@@V?$allocator@D@2@@std@@@Z 10175aa0 f i auth.pb.obj
 0002:0007cb70       ?set_reason@AuthenticateKickUserMessage@@QAEXH@Z 10175b70 f i auth.pb.obj
 0002:0007cba0       ?set_reasonstring@AuthenticateKickUserMessage@@QAEXABV?$basic_string@DU?$char_traits@D@std@@V?$allocator@D@2@@std@@@Z 10175ba0 f i auth.pb.obj
 0002:0007cc70       ?set_result@AuthenticateRegisterServerResultMessage@@QAEXH@Z 10175c70 f i auth.pb.obj
 0002:0007cca0       ?set_result@AuthenticateResultMessage@@QAEXH@Z 10175ca0 f i auth.pb.obj
 0002:0007ccd0       ?set_result@AuthenticateValidateTicketResultMessage@@QAEXH@Z 10175cd0 f i auth.pb.obj
 0002:0007cd00       ?set_serverid@AuthenticateRegisterServerResultMessage@@QAEXH@Z 10175d00 f i auth.pb.obj
 0002:0007cd30       ?set_sessiontoken@AuthenticateResultMessage@@QAEXABV?$basic_string@DU?$char_traits@D@std@@V?$allocator@D@2@@std@@@Z 10175d30 f i auth.pb.obj
 0002:0007ce00       ?set_status@AuthenticateExternalStatusMessage@@QAEXH@Z 10175e00 f i auth.pb.obj
 0002:0007ce30       ?set_token@AuthenticateWithTokenMessage@@QAEXABV?$basic_string@DU?$char_traits@D@std@@V?$allocator@D@2@@std@@@Z 10175e30 f i auth.pb.obj
 0002:0007cf00       ?set_username@AuthenticateWithDetailsMessage@@QAEXABV?$basic_string@DU?$char_traits@D@std@@V?$allocator@D@2@@std@@@Z 10175f00 f i auth.pb.obj
 0002:0007cfd0       ?swap@?$basic_string@DU?$char_traits@D@std@@V?$allocator@D@2@@std@@QAEXAAV12@@Z 10175fd0 f i auth.pb.obj
 0002:0007d190       ?ticket@AuthenticateValidateTicketMessage@@QBEABV?$basic_string@DU?$char_traits@D@std@@V?$allocator@D@2@@std@@XZ 10176190 f i auth.pb.obj
 0002:0007d1b0       ?token@AuthenticateWithTokenMessage@@QBEABV?$basic_string@DU?$char_traits@D@std@@V?$allocator@D@2@@std@@XZ 101761b0 f i auth.pb.obj
 0002:0007d1d0       ?unknown_fields@AuthenticateExternalStatusMessage@@QBEABV?$basic_string@DU?$char_traits@D@std@@V?$allocator@D@2@@std@@XZ 101761d0 f i auth.pb.obj
 0002:0007d1f0       ?unknown_fields@AuthenticateKickUserMessage@@QBEABV?$basic_string@DU?$char_traits@D@std@@V?$allocator@D@2@@std@@XZ 101761f0 f i auth.pb.obj
 0002:0007d210       ?unknown_fields@AuthenticateRegisterServerMessage@@QBEABV?$basic_string@DU?$char_traits@D@std@@V?$allocator@D@2@@std@@XZ 10176210 f i auth.pb.obj
 0002:0007d230       ?unknown_fields@AuthenticateRegisterServerResultMessage@@QBEABV?$basic_string@DU?$char_traits@D@std@@V?$allocator@D@2@@std@@XZ 10176230 f i auth.pb.obj
 0002:0007d250       ?unknown_fields@AuthenticateResultMessage@@QBEABV?$basic_string@DU?$char_traits@D@std@@V?$allocator@D@2@@std@@XZ 10176250 f i auth.pb.obj
 0002:0007d270       ?unknown_fields@AuthenticateUserGroupMessage@@QBEABV?$basic_string@DU?$char_traits@D@std@@V?$allocator@D@2@@std@@XZ 10176270 f i auth.pb.obj
 0002:0007d290       ?unknown_fields@AuthenticateValidateTicketMessage@@QBEABV?$basic_string@DU?$char_traits@D@std@@V?$allocator@D@2@@std@@XZ 10176290 f i auth.pb.obj
 0002:0007d2b0       ?unknown_fields@AuthenticateValidateTicketResultMessage@@QBEABV?$basic_string@DU?$char_traits@D@std@@V?$allocator@D@2@@std@@XZ 101762b0 f i auth.pb.obj
 0002:0007d2d0       ?unknown_fields@AuthenticateWithDetailsMessage@@QBEABV?$basic_string@DU?$char_traits@D@std@@V?$allocator@D@2@@std@@XZ 101762d0 f i auth.pb.obj
 0002:0007d2f0       ?unknown_fields@AuthenticateWithKeyMessage@@QBEABV?$basic_string@DU?$char_traits@D@std@@V?$allocator@D@2@@std@@XZ 101762f0 f i auth.pb.obj
 0002:0007d310       ?unknown_fields@AuthenticateWithTokenMessage@@QBEABV?$basic_string@DU?$char_traits@D@std@@V?$allocator@D@2@@std@@XZ 10176310 f i auth.pb.obj
 0002:0007d330       ?username@AuthenticateWithDetailsMessage@@QBEABV?$basic_string@DU?$char_traits@D@std@@V?$allocator@D@2@@std@@XZ 10176330 f i auth.pb.obj
 0002:0007d350       ??$Add@VTypeHandler@?$RepeatedPtrField@VFriendsRosterMessage_FriendDetails@@@protobuf@google@@@RepeatedPtrFieldBase@internal@protobuf@google@@IAEPAVFriendsRosterMessage_FriendDetails@@XZ 10176350 f i friends.pb.obj
 0002:0007d430       ??$AllAreInitialized@V?$RepeatedPtrField@VFriendsPresence@@@protobuf@google@@@internal@protobuf@google@@YA_NABV?$RepeatedPtrField@VFriendsPresence@@@12@@Z 10176430 f i friends.pb.obj
 0002:0007d4a0       ??$AllAreInitialized@V?$RepeatedPtrField@VFriendsRosterMessage_FriendDetails@@@protobuf@google@@@internal@protobuf@google@@YA_NABV?$RepeatedPtrField@VFriendsRosterMessage_FriendDetails@@@12@@Z 101764a0 f i friends.pb.obj
 0002:0007d510       ??$Clear@VTypeHandler@?$RepeatedPtrField@VFriendsPresence@@@protobuf@google@@@RepeatedPtrFieldBase@internal@protobuf@google@@IAEXXZ 10176510 f i friends.pb.obj
 0002:0007d580       ??$Clear@VTypeHandler@?$RepeatedPtrField@VFriendsRosterMessage_FriendDetails@@@protobuf@google@@@RepeatedPtrFieldBase@internal@protobuf@google@@IAEXXZ 10176580 f i friends.pb.obj
 0002:0007d5f0       ??$Destroy@VTypeHandler@?$RepeatedPtrField@VFriendsPresence@@@protobuf@google@@@RepeatedPtrFieldBase@internal@protobuf@google@@IAEXXZ 101765f0 f i friends.pb.obj
 0002:0007d670       ??$Destroy@VTypeHandler@?$RepeatedPtrField@VFriendsRosterMessage_FriendDetails@@@protobuf@google@@@RepeatedPtrFieldBase@internal@protobuf@google@@IAEXXZ 10176670 f i friends.pb.obj
 0002:0007d6f0       ??$Get@VTypeHandler@?$RepeatedPtrField@VFriendsPresence@@@protobuf@google@@@RepeatedPtrFieldBase@internal@protobuf@google@@IBEABVFriendsPresence@@H@Z 101766f0 f i friends.pb.obj
 0002:0007d8d0       ??$MergeFrom@VTypeHandler@?$RepeatedPtrField@VFriendsPresence@@@protobuf@google@@@RepeatedPtrFieldBase@internal@protobuf@google@@IAEXABV0123@@Z 101768d0 f i friends.pb.obj
 0002:0007da40       ??$MergeFrom@VTypeHandler@?$RepeatedPtrField@VFriendsRosterMessage_FriendDetails@@@protobuf@google@@@RepeatedPtrFieldBase@internal@protobuf@google@@IAEXABV0123@@Z 10176a40 f i friends.pb.obj
 0002:0007dbb0       ??$MessageSizeNoVirtual@VFriendsPresence@@@WireFormatLite@internal@protobuf@google@@SAHABVFriendsPresence@@@Z 10176bb0 f i friends.pb.obj
 0002:0007dbe0       ??$MessageSizeNoVirtual@VFriendsRosterMessage_FriendDetails@@@WireFormatLite@internal@protobuf@google@@SAHABVFriendsRosterMessage_FriendDetails@@@Z 10176be0 f i friends.pb.obj
 0002:0007dc10       ??$ReadMessageNoVirtual@VFriendsPresence@@@WireFormatLite@internal@protobuf@google@@SA_NPAVCodedInputStream@io@23@PAVFriendsPresence@@@Z 10176c10 f i friends.pb.obj
 0002:0007dcc0       ??$ReadMessageNoVirtual@VFriendsRosterMessage_FriendDetails@@@WireFormatLite@internal@protobuf@google@@SA_NPAVCodedInputStream@io@23@PAVFriendsRosterMessage_FriendDetails@@@Z 10176cc0 f i friends.pb.obj
 0002:0007dd70       ??$down_cast@PBVFriendsGetUserAvatarMessage@@$$CBVMessageLite@protobuf@google@@@internal@protobuf@google@@YAPBVFriendsGetUserAvatarMessage@@PBVMessageLite@12@@Z 10176d70 f i friends.pb.obj
 0002:0007ddb0       ??$down_cast@PBVFriendsGetUserAvatarResultMessage@@$$CBVMessageLite@protobuf@google@@@internal@protobuf@google@@YAPBVFriendsGetUserAvatarResultMessage@@PBVMessageLite@12@@Z 10176db0 f i friends.pb.obj
 0002:0007ddf0       ??$down_cast@PBVFriendsPresence@@$$CBVMessageLite@protobuf@google@@@internal@protobuf@google@@YAPBVFriendsPresence@@PBVMessageLite@12@@Z 10176df0 f i friends.pb.obj
 0002:0007de30       ??$down_cast@PBVFriendsRequestRoster@@$$CBVMessageLite@protobuf@google@@@internal@protobuf@google@@YAPBVFriendsRequestRoster@@PBVMessageLite@12@@Z 10176e30 f i friends.pb.obj
 0002:0007de70       ??$down_cast@PBVFriendsRosterMessage@@$$CBVMessageLite@protobuf@google@@@internal@protobuf@google@@YAPBVFriendsRosterMessage@@PBVMessageLite@12@@Z 10176e70 f i friends.pb.obj
 0002:0007deb0       ??$down_cast@PBVFriendsRosterMessage_FriendDetails@@$$CBVMessageLite@protobuf@google@@@internal@protobuf@google@@YAPBVFriendsRosterMessage_FriendDetails@@PBVMessageLite@12@@Z 10176eb0 f i friends.pb.obj
 0002:0007def0       ??$down_cast@PBVFriendsSetPresenceMessage@@$$CBVMessageLite@protobuf@google@@@internal@protobuf@google@@YAPBVFriendsSetPresenceMessage@@PBVMessageLite@12@@Z 10176ef0 f i friends.pb.obj
 0002:0007df30       ??$implicit_cast@PBVMessageLite@protobuf@google@@PBVFriendsGetUserAvatarMessage@@@internal@protobuf@google@@YAPBVMessageLite@12@ABQBVFriendsGetUserAvatarMessage@@@Z 10176f30 f i friends.pb.obj
 0002:0007df50       ??$implicit_cast@PBVMessageLite@protobuf@google@@PBVFriendsGetUserAvatarResultMessage@@@internal@protobuf@google@@YAPBVMessageLite@12@ABQBVFriendsGetUserAvatarResultMessage@@@Z 10176f50 f i friends.pb.obj
 0002:0007df70       ??$implicit_cast@PBVMessageLite@protobuf@google@@PBVFriendsPresence@@@internal@protobuf@google@@YAPBVMessageLite@12@ABQBVFriendsPresence@@@Z 10176f70 f i friends.pb.obj
 0002:0007df90       ??$implicit_cast@PBVMessageLite@protobuf@google@@PBVFriendsRequestRoster@@@internal@protobuf@google@@YAPBVMessageLite@12@ABQBVFriendsRequestRoster@@@Z 10176f90 f i friends.pb.obj
 0002:0007dfb0       ??$implicit_cast@PBVMessageLite@protobuf@google@@PBVFriendsRosterMessage@@@internal@protobuf@google@@YAPBVMessageLite@12@ABQBVFriendsRosterMessage@@@Z 10176fb0 f i friends.pb.obj
 0002:0007dfd0       ??$implicit_cast@PBVMessageLite@protobuf@google@@PBVFriendsRosterMessage_FriendDetails@@@internal@protobuf@google@@YAPBVMessageLite@12@ABQBVFriendsRosterMessage_FriendDetails@@@Z 10176fd0 f i friends.pb.obj
 0002:0007dff0       ??$implicit_cast@PBVMessageLite@protobuf@google@@PBVFriendsSetPresenceMessage@@@internal@protobuf@google@@YAPBVMessageLite@12@ABQBVFriendsSetPresenceMessage@@@Z 10176ff0 f i friends.pb.obj
 0002:0007e010       ??0?$RepeatedPtrField@VFriendsPresence@@@protobuf@google@@QAE@XZ 10177010 f i friends.pb.obj
 0002:0007e040       ??0?$RepeatedPtrField@VFriendsRosterMessage_FriendDetails@@@protobuf@google@@QAE@XZ 10177040 f i friends.pb.obj
 0002:0007e070       ??0FriendsGetUserAvatarMessage@@QAE@ABV0@@Z 10177070 f   friends.pb.obj
 0002:0007e120       ??0FriendsGetUserAvatarMessage@@QAE@XZ 10177120 f   friends.pb.obj
 0002:0007e1c0       ??0FriendsGetUserAvatarResultMessage@@QAE@ABV0@@Z 101771c0 f   friends.pb.obj
 0002:0007e270       ??0FriendsGetUserAvatarResultMessage@@QAE@XZ 10177270 f   friends.pb.obj
 0002:0007e310       ??0FriendsPresence@@QAE@ABV0@@Z 10177310 f   friends.pb.obj
 0002:0007e3c0       ??0FriendsPresence@@QAE@XZ 101773c0 f   friends.pb.obj
 0002:0007e460       ??0FriendsRequestRoster@@QAE@ABV0@@Z 10177460 f   friends.pb.obj
 0002:0007e510       ??0FriendsRequestRoster@@QAE@XZ 10177510 f   friends.pb.obj
 0002:0007e5b0       ??0FriendsRosterMessage@@QAE@ABV0@@Z 101775b0 f   friends.pb.obj
 0002:0007e670       ??0FriendsRosterMessage@@QAE@XZ 10177670 f   friends.pb.obj
 0002:0007e720       ??0FriendsRosterMessage_FriendDetails@@QAE@ABV0@@Z 10177720 f   friends.pb.obj
 0002:0007e7d0       ??0FriendsRosterMessage_FriendDetails@@QAE@XZ 101777d0 f   friends.pb.obj
 0002:0007e870       ??0FriendsSetPresenceMessage@@QAE@ABV0@@Z 10177870 f   friends.pb.obj
 0002:0007e930       ??0FriendsSetPresenceMessage@@QAE@XZ 10177930 f   friends.pb.obj
 0002:0007e9e0       ??0RepeatedPtrFieldBase@internal@protobuf@google@@IAE@XZ 101779e0 f i friends.pb.obj
 0002:0007ea30       ??0StaticDescriptorInitializer_friends_2eproto@@QAE@XZ 10177a30 f i friends.pb.obj
 0002:0007ea60       ??1?$RepeatedPtrField@VFriendsPresence@@@protobuf@google@@QAE@XZ 10177a60 f i friends.pb.obj
 0002:0007ea90       ??1?$RepeatedPtrField@VFriendsRosterMessage_FriendDetails@@@protobuf@google@@QAE@XZ 10177a90 f i friends.pb.obj
 0002:0007eac0       ??1FriendsGetUserAvatarMessage@@UAE@XZ 10177ac0 f   friends.pb.obj
 0002:0007eb50       ??1FriendsGetUserAvatarResultMessage@@UAE@XZ 10177b50 f   friends.pb.obj
 0002:0007ebe0       ??1FriendsPresence@@UAE@XZ 10177be0 f   friends.pb.obj
 0002:0007ec70       ??1FriendsRequestRoster@@UAE@XZ 10177c70 f   friends.pb.obj
 0002:0007ed00       ??1FriendsRosterMessage@@UAE@XZ 10177d00 f   friends.pb.obj
 0002:0007edb0       ??1FriendsRosterMessage_FriendDetails@@UAE@XZ 10177db0 f   friends.pb.obj
 0002:0007ee40       ??1FriendsSetPresenceMessage@@UAE@XZ 10177e40 f   friends.pb.obj
 0002:0007eef0       ??_EFriendsGetUserAvatarMessage@@UAEPAXI@Z 10177ef0 f i friends.pb.obj
 0002:0007eef0       ??_GFriendsGetUserAvatarMessage@@UAEPAXI@Z 10177ef0 f i friends.pb.obj
 0002:0007ef40       ??_EFriendsGetUserAvatarResultMessage@@UAEPAXI@Z 10177f40 f i friends.pb.obj
 0002:0007ef40       ??_GFriendsGetUserAvatarResultMessage@@UAEPAXI@Z 10177f40 f i friends.pb.obj
 0002:0007ef90       ??_EFriendsPresence@@UAEPAXI@Z 10177f90 f i friends.pb.obj
 0002:0007ef90       ??_GFriendsPresence@@UAEPAXI@Z 10177f90 f i friends.pb.obj
 0002:0007efe0       ??_EFriendsRequestRoster@@UAEPAXI@Z 10177fe0 f i friends.pb.obj
 0002:0007efe0       ??_GFriendsRequestRoster@@UAEPAXI@Z 10177fe0 f i friends.pb.obj
 0002:0007f030       ??_EFriendsRosterMessage@@UAEPAXI@Z 10178030 f i friends.pb.obj
 0002:0007f030       ??_GFriendsRosterMessage@@UAEPAXI@Z 10178030 f i friends.pb.obj
 0002:0007f080       ??_GFriendsRosterMessage_FriendDetails@@UAEPAXI@Z 10178080 f i friends.pb.obj
 0002:0007f080       ??_EFriendsRosterMessage_FriendDetails@@UAEPAXI@Z 10178080 f i friends.pb.obj
 0002:0007f0d0       ??_GFriendsSetPresenceMessage@@UAEPAXI@Z 101780d0 f i friends.pb.obj
 0002:0007f0d0       ??_EFriendsSetPresenceMessage@@UAEPAXI@Z 101780d0 f i friends.pb.obj
 0002:0007f120       ?Add@?$RepeatedPtrField@VFriendsRosterMessage_FriendDetails@@@protobuf@google@@QAEPAVFriendsRosterMessage_FriendDetails@@XZ 10178120 f i friends.pb.obj
 0002:0007f150       ?ByteSize@FriendsGetUserAvatarMessage@@UBEHXZ 10178150 f   friends.pb.obj
 0002:0007f1f0       ?ByteSize@FriendsGetUserAvatarResultMessage@@UBEHXZ 101781f0 f   friends.pb.obj
 0002:0007f300       ?ByteSize@FriendsPresence@@UBEHXZ 10178300 f   friends.pb.obj
 0002:0007f3d0       ?ByteSize@FriendsRequestRoster@@UBEHXZ 101783d0 f   friends.pb.obj
 0002:0007f420       ?ByteSize@FriendsRosterMessage@@UBEHXZ 10178420 f   friends.pb.obj
 0002:0007f550       ?ByteSize@FriendsRosterMessage_FriendDetails@@UBEHXZ 10178550 f   friends.pb.obj
 0002:0007f700       ?ByteSize@FriendsSetPresenceMessage@@UBEHXZ 10178700 f   friends.pb.obj
 0002:0007f7b0       ?CheckTypeAndMergeFrom@FriendsGetUserAvatarMessage@@UAEXABVMessageLite@protobuf@google@@@Z 101787b0 f   friends.pb.obj
 0002:0007f7f0       ?CheckTypeAndMergeFrom@FriendsGetUserAvatarResultMessage@@UAEXABVMessageLite@protobuf@google@@@Z 101787f0 f   friends.pb.obj
 0002:0007f830       ?CheckTypeAndMergeFrom@FriendsPresence@@UAEXABVMessageLite@protobuf@google@@@Z 10178830 f   friends.pb.obj
 0002:0007f870       ?CheckTypeAndMergeFrom@FriendsRequestRoster@@UAEXABVMessageLite@protobuf@google@@@Z 10178870 f   friends.pb.obj
 0002:0007f8b0       ?CheckTypeAndMergeFrom@FriendsRosterMessage@@UAEXABVMessageLite@protobuf@google@@@Z 101788b0 f   friends.pb.obj
 0002:0007f8f0       ?CheckTypeAndMergeFrom@FriendsRosterMessage_FriendDetails@@UAEXABVMessageLite@protobuf@google@@@Z 101788f0 f   friends.pb.obj
 0002:0007f930       ?CheckTypeAndMergeFrom@FriendsSetPresenceMessage@@UAEXABVMessageLite@protobuf@google@@@Z 10178930 f   friends.pb.obj
 0002:0007f970       ?Clear@?$GenericTypeHandler@VFriendsPresence@@@internal@protobuf@google@@SAXPAVFriendsPresence@@@Z 10178970 f i friends.pb.obj
 0002:0007f9a0       ?Clear@?$GenericTypeHandler@VFriendsRosterMessage_FriendDetails@@@internal@protobuf@google@@SAXPAVFriendsRosterMessage_FriendDetails@@@Z 101789a0 f i friends.pb.obj
 0002:0007f9d0       ?Clear@?$RepeatedPtrField@VFriendsPresence@@@protobuf@google@@QAEXXZ 101789d0 f i friends.pb.obj
 0002:0007fa00       ?Clear@?$RepeatedPtrField@VFriendsRosterMessage_FriendDetails@@@protobuf@google@@QAEXXZ 10178a00 f i friends.pb.obj
 0002:0007fa30       ?Clear@FriendsGetUserAvatarMessage@@UAEXXZ 10178a30 f   friends.pb.obj
 0002:0007fa80       ?Clear@FriendsGetUserAvatarResultMessage@@UAEXXZ 10178a80 f   friends.pb.obj
 0002:0007fb50       ?Clear@FriendsPresence@@UAEXXZ 10178b50 f   friends.pb.obj
 0002:0007fc10       ?Clear@FriendsRequestRoster@@UAEXXZ 10178c10 f   friends.pb.obj
 0002:0007fc60       ?Clear@FriendsRosterMessage@@UAEXXZ 10178c60 f   friends.pb.obj
 0002:0007fcf0       ?Clear@FriendsRosterMessage_FriendDetails@@UAEXXZ 10178cf0 f   friends.pb.obj
 0002:0007fe50       ?Clear@FriendsSetPresenceMessage@@UAEXXZ 10178e50 f   friends.pb.obj
 0002:0007fea0       ?ConsumedEntireMessage@CodedInputStream@io@protobuf@google@@QAE_NXZ 10178ea0 f i friends.pb.obj
 0002:0007fec0       ?CopyFrom@FriendsGetUserAvatarMessage@@QAEXABV1@@Z 10178ec0 f   friends.pb.obj
 0002:0007ff10       ?CopyFrom@FriendsGetUserAvatarResultMessage@@QAEXABV1@@Z 10178f10 f   friends.pb.obj
 0002:0007ff60       ?CopyFrom@FriendsPresence@@QAEXABV1@@Z 10178f60 f   friends.pb.obj
 0002:0007ffb0       ?CopyFrom@FriendsRequestRoster@@QAEXABV1@@Z 10178fb0 f   friends.pb.obj
 0002:00080000       ?CopyFrom@FriendsRosterMessage@@QAEXABV1@@Z 10179000 f   friends.pb.obj
 0002:00080050       ?CopyFrom@FriendsRosterMessage_FriendDetails@@QAEXABV1@@Z 10179050 f   friends.pb.obj
 0002:000800a0       ?CopyFrom@FriendsSetPresenceMessage@@QAEXABV1@@Z 101790a0 f   friends.pb.obj
 0002:000800f0       ?DecrementRecursionDepth@CodedInputStream@io@protobuf@google@@QAEXXZ 101790f0 f i friends.pb.obj
 0002:00080130       ?Delete@?$GenericTypeHandler@VFriendsPresence@@@internal@protobuf@google@@SAXPAVFriendsPresence@@@Z 10179130 f i friends.pb.obj
 0002:00080180       ?Delete@?$GenericTypeHandler@VFriendsRosterMessage_FriendDetails@@@internal@protobuf@google@@SAXPAVFriendsRosterMessage_FriendDetails@@@Z 10179180 f i friends.pb.obj
 0002:000801d0       ?Get@?$RepeatedPtrField@VFriendsPresence@@@protobuf@google@@QBEABVFriendsPresence@@H@Z 101791d0 f i friends.pb.obj
 0002:00080200       ?GetCachedSize@FriendsGetUserAvatarMessage@@UBEHXZ 10179200 f i friends.pb.obj
 0002:00080220       ?GetCachedSize@FriendsGetUserAvatarResultMessage@@UBEHXZ 10179220 f i friends.pb.obj
 0002:00080240       ?GetCachedSize@FriendsPresence@@UBEHXZ 10179240 f i friends.pb.obj
 0002:00080260       ?GetCachedSize@FriendsRequestRoster@@UBEHXZ 10179260 f i friends.pb.obj
 0002:00080280       ?GetCachedSize@FriendsRosterMessage@@UBEHXZ 10179280 f i friends.pb.obj
 0002:000802a0       ?GetCachedSize@FriendsRosterMessage_FriendDetails@@UBEHXZ 101792a0 f i friends.pb.obj
 0002:000802c0       ?GetCachedSize@FriendsSetPresenceMessage@@UBEHXZ 101792c0 f i friends.pb.obj
 0002:000802e0       ?GetTypeName@FriendsGetUserAvatarMessage@@UBE?AV?$basic_string@DU?$char_traits@D@std@@V?$allocator@D@2@@std@@XZ 101792e0 f   friends.pb.obj
 0002:00080330       ?GetTypeName@FriendsGetUserAvatarResultMessage@@UBE?AV?$basic_string@DU?$char_traits@D@std@@V?$allocator@D@2@@std@@XZ 10179330 f   friends.pb.obj
 0002:00080380       ?GetTypeName@FriendsPresence@@UBE?AV?$basic_string@DU?$char_traits@D@std@@V?$allocator@D@2@@std@@XZ 10179380 f   friends.pb.obj
 0002:000803d0       ?GetTypeName@FriendsRequestRoster@@UBE?AV?$basic_string@DU?$char_traits@D@std@@V?$allocator@D@2@@std@@XZ 101793d0 f   friends.pb.obj
 0002:00080420       ?GetTypeName@FriendsRosterMessage@@UBE?AV?$basic_string@DU?$char_traits@D@std@@V?$allocator@D@2@@std@@XZ 10179420 f   friends.pb.obj
 0002:00080470       ?GetTypeName@FriendsRosterMessage_FriendDetails@@UBE?AV?$basic_string@DU?$char_traits@D@std@@V?$allocator@D@2@@std@@XZ 10179470 f   friends.pb.obj
 0002:000804c0       ?GetTypeName@FriendsSetPresenceMessage@@UBE?AV?$basic_string@DU?$char_traits@D@std@@V?$allocator@D@2@@std@@XZ 101794c0 f   friends.pb.obj
 0002:00080510       ?IncrementRecursionDepth@CodedInputStream@io@protobuf@google@@QAE_NXZ 10179510 f i friends.pb.obj
 0002:00080570       ?InitAsDefaultInstance@FriendsGetUserAvatarMessage@@AAEXXZ 10179570 f   friends.pb.obj
 0002:00080590       ?InitAsDefaultInstance@FriendsGetUserAvatarResultMessage@@AAEXXZ 10179590 f   friends.pb.obj
 0002:000805b0       ?InitAsDefaultInstance@FriendsPresence@@AAEXXZ 101795b0 f   friends.pb.obj
 0002:000805d0       ?InitAsDefaultInstance@FriendsRequestRoster@@AAEXXZ 101795d0 f   friends.pb.obj
 0002:000805f0       ?InitAsDefaultInstance@FriendsRosterMessage@@AAEXXZ 101795f0 f   friends.pb.obj
 0002:00080610       ?InitAsDefaultInstance@FriendsRosterMessage_FriendDetails@@AAEXXZ 10179610 f   friends.pb.obj
 0002:00080630       ?InitAsDefaultInstance@FriendsSetPresenceMessage@@AAEXXZ 10179630 f   friends.pb.obj
 0002:00080650       ?IsInitialized@FriendsGetUserAvatarMessage@@UBE_NXZ 10179650 f   friends.pb.obj
 0002:00080690       ?IsInitialized@FriendsGetUserAvatarResultMessage@@UBE_NXZ 10179690 f   friends.pb.obj
 0002:000806d0       ?IsInitialized@FriendsPresence@@UBE_NXZ 101796d0 f   friends.pb.obj
 0002:00080710       ?IsInitialized@FriendsRequestRoster@@UBE_NXZ 10179710 f   friends.pb.obj
 0002:00080730       ?IsInitialized@FriendsRosterMessage@@UBE_NXZ 10179730 f   friends.pb.obj
 0002:00080790       ?IsInitialized@FriendsRosterMessage_FriendDetails@@UBE_NXZ 10179790 f   friends.pb.obj
 0002:000807d0       ?IsInitialized@FriendsSetPresenceMessage@@UBE_NXZ 101797d0 f   friends.pb.obj
 0002:00080810       ?LengthDelimitedSize@WireFormatLite@internal@protobuf@google@@SAHH@Z 10179810 f i friends.pb.obj
 0002:00080840       ?Merge@?$GenericTypeHandler@VFriendsPresence@@@internal@protobuf@google@@SAXABVFriendsPresence@@PAV5@@Z 10179840 f i friends.pb.obj
 0002:00080870       ?Merge@?$GenericTypeHandler@VFriendsRosterMessage_FriendDetails@@@internal@protobuf@google@@SAXABVFriendsRosterMessage_FriendDetails@@PAV5@@Z 10179870 f i friends.pb.obj
 0002:000808a0       ?MergeFrom@?$RepeatedPtrField@VFriendsPresence@@@protobuf@google@@QAEXABV123@@Z 101798a0 f i friends.pb.obj
 0002:000808d0       ?MergeFrom@?$RepeatedPtrField@VFriendsRosterMessage_FriendDetails@@@protobuf@google@@QAEXABV123@@Z 101798d0 f i friends.pb.obj
 0002:00080900       ?MergeFrom@FriendsGetUserAvatarMessage@@QAEXABV1@@Z 10179900 f   friends.pb.obj
 0002:00080a70       ?MergeFrom@FriendsGetUserAvatarResultMessage@@QAEXABV1@@Z 10179a70 f   friends.pb.obj
 0002:00080c30       ?MergeFrom@FriendsPresence@@QAEXABV1@@Z 10179c30 f   friends.pb.obj
 0002:00080dc0       ?MergeFrom@FriendsRequestRoster@@QAEXABV1@@Z 10179dc0 f   friends.pb.obj
 0002:00080ef0       ?MergeFrom@FriendsRosterMessage@@QAEXABV1@@Z 10179ef0 f   friends.pb.obj
 0002:000810a0       ?MergeFrom@FriendsRosterMessage_FriendDetails@@QAEXABV1@@Z 1017a0a0 f   friends.pb.obj
 0002:000812e0       ?MergeFrom@FriendsSetPresenceMessage@@QAEXABV1@@Z 1017a2e0 f   friends.pb.obj
 0002:00081420       ?MergePartialFromCodedStream@FriendsGetUserAvatarMessage@@UAE_NPAVCodedInputStream@io@protobuf@google@@@Z 1017a420 f   friends.pb.obj
 0002:000815e0       ?MergePartialFromCodedStream@FriendsGetUserAvatarResultMessage@@UAE_NPAVCodedInputStream@io@protobuf@google@@@Z 1017a5e0 f   friends.pb.obj
 0002:00081860       ?MergePartialFromCodedStream@FriendsPresence@@UAE_NPAVCodedInputStream@io@protobuf@google@@@Z 1017a860 f   friends.pb.obj
 0002:00081a70       ?MergePartialFromCodedStream@FriendsRequestRoster@@UAE_NPAVCodedInputStream@io@protobuf@google@@@Z 1017aa70 f   friends.pb.obj
 0002:00081bb0       ?MergePartialFromCodedStream@FriendsRosterMessage@@UAE_NPAVCodedInputStream@io@protobuf@google@@@Z 1017abb0 f   friends.pb.obj
 0002:00081e50       ?MergePartialFromCodedStream@FriendsRosterMessage_FriendDetails@@UAE_NPAVCodedInputStream@io@protobuf@google@@@Z 1017ae50 f   friends.pb.obj
 0002:00082200       ?MergePartialFromCodedStream@FriendsSetPresenceMessage@@UAE_NPAVCodedInputStream@io@protobuf@google@@@Z 1017b200 f   friends.pb.obj
 0002:000823d0       ?New@?$GenericTypeHandler@VFriendsRosterMessage_FriendDetails@@@internal@protobuf@google@@SAPAVFriendsRosterMessage_FriendDetails@@XZ 1017b3d0 f i friends.pb.obj
 0002:00082470       ?New@FriendsGetUserAvatarMessage@@UBEPAV1@XZ 1017b470 f   friends.pb.obj
 0002:00082510       ?New@FriendsGetUserAvatarResultMessage@@UBEPAV1@XZ 1017b510 f   friends.pb.obj
 0002:000825b0       ?New@FriendsPresence@@UBEPAV1@XZ 1017b5b0 f   friends.pb.obj
 0002:00082650       ?New@FriendsRequestRoster@@UBEPAV1@XZ 1017b650 f   friends.pb.obj
 0002:000826f0       ?New@FriendsRosterMessage@@UBEPAV1@XZ 1017b6f0 f   friends.pb.obj
 0002:00082790       ?New@FriendsRosterMessage_FriendDetails@@UBEPAV1@XZ 1017b790 f   friends.pb.obj
 0002:00082830       ?New@FriendsSetPresenceMessage@@UBEPAV1@XZ 1017b830 f   friends.pb.obj
 0002:000828d0       ?SerializeWithCachedSizes@FriendsGetUserAvatarMessage@@UBEXPAVCodedOutputStream@io@protobuf@google@@@Z 1017b8d0 f   friends.pb.obj
 0002:00082950       ?SerializeWithCachedSizes@FriendsGetUserAvatarResultMessage@@UBEXPAVCodedOutputStream@io@protobuf@google@@@Z 1017b950 f   friends.pb.obj
 0002:00082a30       ?SerializeWithCachedSizes@FriendsPresence@@UBEXPAVCodedOutputStream@io@protobuf@google@@@Z 1017ba30 f   friends.pb.obj
 0002:00082ae0       ?SerializeWithCachedSizes@FriendsRequestRoster@@UBEXPAVCodedOutputStream@io@protobuf@google@@@Z 1017bae0 f   friends.pb.obj
 0002:00082b30       ?SerializeWithCachedSizes@FriendsRosterMessage@@UBEXPAVCodedOutputStream@io@protobuf@google@@@Z 1017bb30 f   friends.pb.obj
 0002:00082c30       ?SerializeWithCachedSizes@FriendsRosterMessage_FriendDetails@@UBEXPAVCodedOutputStream@io@protobuf@google@@@Z 1017bc30 f   friends.pb.obj
 0002:00082da0       ?SerializeWithCachedSizes@FriendsSetPresenceMessage@@UBEXPAVCodedOutputStream@io@protobuf@google@@@Z 1017bda0 f   friends.pb.obj
 0002:00082e40       ?SetCachedSize@FriendsGetUserAvatarMessage@@ABEXH@Z 1017be40 f   friends.pb.obj
 0002:00082e70       ?SetCachedSize@FriendsGetUserAvatarResultMessage@@ABEXH@Z 1017be70 f   friends.pb.obj
 0002:00082ea0       ?SetCachedSize@FriendsPresence@@ABEXH@Z 1017bea0 f   friends.pb.obj
 0002:00082ed0       ?SetCachedSize@FriendsRequestRoster@@ABEXH@Z 1017bed0 f   friends.pb.obj
 0002:00082f00       ?SetCachedSize@FriendsRosterMessage@@ABEXH@Z 1017bf00 f   friends.pb.obj
 0002:00082f30       ?SetCachedSize@FriendsRosterMessage_FriendDetails@@ABEXH@Z 1017bf30 f   friends.pb.obj
 0002:00082f60       ?SetCachedSize@FriendsSetPresenceMessage@@ABEXH@Z 1017bf60 f   friends.pb.obj
 0002:00082f90       ?SharedCtor@FriendsGetUserAvatarMessage@@AAEXXZ 1017bf90 f   friends.pb.obj
 0002:00082fe0       ?SharedCtor@FriendsGetUserAvatarResultMessage@@AAEXXZ 1017bfe0 f   friends.pb.obj
 0002:00083050       ?SharedCtor@FriendsPresence@@AAEXXZ 1017c050 f   friends.pb.obj
 0002:000830b0       ?SharedCtor@FriendsRequestRoster@@AAEXXZ 1017c0b0 f   friends.pb.obj
 0002:000830f0       ?SharedCtor@FriendsRosterMessage@@AAEXXZ 1017c0f0 f   friends.pb.obj
 0002:00083150       ?SharedCtor@FriendsRosterMessage_FriendDetails@@AAEXXZ 1017c150 f   friends.pb.obj
 0002:000831f0       ?SharedCtor@FriendsSetPresenceMessage@@AAEXXZ 1017c1f0 f   friends.pb.obj
 0002:00083230       ?SharedDtor@FriendsGetUserAvatarMessage@@AAEXXZ 1017c230 f   friends.pb.obj
 0002:00083250       ?SharedDtor@FriendsGetUserAvatarResultMessage@@AAEXXZ 1017c250 f   friends.pb.obj
 0002:000832b0       ?SharedDtor@FriendsPresence@@AAEXXZ 1017c2b0 f   friends.pb.obj
 0002:00083360       ?SharedDtor@FriendsRequestRoster@@AAEXXZ 1017c360 f   friends.pb.obj
 0002:00083380       ?SharedDtor@FriendsRosterMessage@@AAEXXZ 1017c380 f   friends.pb.obj
 0002:000833a0       ?SharedDtor@FriendsRosterMessage_FriendDetails@@AAEXXZ 1017c3a0 f   friends.pb.obj
 0002:000834d0       ?SharedDtor@FriendsSetPresenceMessage@@AAEXXZ 1017c4d0 f   friends.pb.obj
 0002:000834f0       ?Swap@?$RepeatedPtrField@VFriendsPresence@@@protobuf@google@@QAEXPAV123@@Z 1017c4f0 f i friends.pb.obj
 0002:00083520       ?Swap@?$RepeatedPtrField@VFriendsRosterMessage_FriendDetails@@@protobuf@google@@QAEXPAV123@@Z 1017c520 f i friends.pb.obj
 0002:00083550       ?Swap@FriendsGetUserAvatarMessage@@QAEXPAV1@@Z 1017c550 f   friends.pb.obj
 0002:00083600       ?Swap@FriendsGetUserAvatarResultMessage@@QAEXPAV1@@Z 1017c600 f   friends.pb.obj
 0002:000836e0       ?Swap@FriendsPresence@@QAEXPAV1@@Z 1017c6e0 f   friends.pb.obj
 0002:000837a0       ?Swap@FriendsRequestRoster@@QAEXPAV1@@Z 1017c7a0 f   friends.pb.obj
 0002:00083800       ?Swap@FriendsRosterMessage@@QAEXPAV1@@Z 1017c800 f   friends.pb.obj
 0002:000838e0       ?Swap@FriendsRosterMessage_FriendDetails@@QAEXPAV1@@Z 1017c8e0 f   friends.pb.obj
 0002:00083a20       ?Swap@FriendsSetPresenceMessage@@QAEXPAV1@@Z 1017ca20 f   friends.pb.obj
 0002:00083ac0       ?add_friends@FriendsRosterMessage@@QAEPAVFriendsRosterMessage_FriendDetails@@XZ 1017cac0 f i friends.pb.obj
 0002:00083af0       ?default_instance@FriendsGetUserAvatarMessage@@SAABV1@XZ 1017caf0 f   friends.pb.obj
 0002:00083b20       ?default_instance@FriendsGetUserAvatarResultMessage@@SAABV1@XZ 1017cb20 f   friends.pb.obj
 0002:00083b50       ?default_instance@FriendsPresence@@SAABV1@XZ 1017cb50 f   friends.pb.obj
 0002:00083b80       ?default_instance@FriendsRequestRoster@@SAABV1@XZ 1017cb80 f   friends.pb.obj
 0002:00083bb0       ?default_instance@FriendsRosterMessage@@SAABV1@XZ 1017cbb0 f   friends.pb.obj
 0002:00083be0       ?default_instance@FriendsRosterMessage_FriendDetails@@SAABV1@XZ 1017cbe0 f   friends.pb.obj
 0002:00083c10       ?default_instance@FriendsSetPresenceMessage@@SAABV1@XZ 1017cc10 f   friends.pb.obj
 0002:00083c40       ?friends@FriendsRosterMessage@@QBEABV?$RepeatedPtrField@VFriendsRosterMessage_FriendDetails@@@protobuf@google@@XZ 1017cc40 f i friends.pb.obj
 0002:00083c60       ?guid@FriendsGetUserAvatarMessage@@QBEHXZ 1017cc60 f i friends.pb.obj
 0002:00083c80       ?has_current_server@FriendsRosterMessage_FriendDetails@@QBE_NXZ 1017cc80 f i friends.pb.obj
 0002:00083cd0       ?has_filedata@FriendsGetUserAvatarResultMessage@@QBE_NXZ 1017ccd0 f i friends.pb.obj
 0002:00083d20       ?has_game@FriendsRosterMessage_FriendDetails@@QBE_NXZ 1017cd20 f i friends.pb.obj
 0002:00083d70       ?has_guid@FriendsGetUserAvatarMessage@@QBE_NXZ 1017cd70 f i friends.pb.obj
 0002:00083dc0       ?has_guid@FriendsGetUserAvatarResultMessage@@QBE_NXZ 1017cdc0 f i friends.pb.obj
 0002:00083e10       ?has_hostname@FriendsRosterMessage_FriendDetails@@QBE_NXZ 1017ce10 f i friends.pb.obj
 0002:00083e60       ?has_id@FriendsRosterMessage_FriendDetails@@QBE_NXZ 1017ce60 f i friends.pb.obj
 0002:00083eb0       ?has_isonline@FriendsRosterMessage_FriendDetails@@QBE_NXZ 1017ceb0 f i friends.pb.obj
 0002:00083f00       ?has_key@FriendsPresence@@QBE_NXZ 1017cf00 f i friends.pb.obj
 0002:00083f50       ?has_numresults@FriendsRosterMessage@@QBE_NXZ 1017cf50 f i friends.pb.obj
 0002:00083fa0       ?has_result@FriendsGetUserAvatarResultMessage@@QBE_NXZ 1017cfa0 f i friends.pb.obj
 0002:00083ff0       ?has_result@FriendsRosterMessage@@QBE_NXZ 1017cff0 f i friends.pb.obj
 0002:00084040       ?has_username@FriendsRosterMessage_FriendDetails@@QBE_NXZ 1017d040 f i friends.pb.obj
 0002:00084090       ?has_value@FriendsPresence@@QBE_NXZ 1017d090 f i friends.pb.obj
 0002:000840e0       ?key@FriendsPresence@@QBEABV?$basic_string@DU?$char_traits@D@std@@V?$allocator@D@2@@std@@XZ 1017d0e0 f i friends.pb.obj
 0002:00084100       ?mutable_current_server@FriendsRosterMessage_FriendDetails@@QAEPAV?$basic_string@DU?$char_traits@D@std@@V?$allocator@D@2@@std@@XZ 1017d100 f i friends.pb.obj
 0002:000841d0       ?mutable_filedata@FriendsGetUserAvatarResultMessage@@QAEPAV?$basic_string@DU?$char_traits@D@std@@V?$allocator@D@2@@std@@XZ 1017d1d0 f i friends.pb.obj
 0002:000842a0       ?mutable_game@FriendsRosterMessage_FriendDetails@@QAEPAV?$basic_string@DU?$char_traits@D@std@@V?$allocator@D@2@@std@@XZ 1017d2a0 f i friends.pb.obj
 0002:00084370       ?mutable_hostname@FriendsRosterMessage_FriendDetails@@QAEPAV?$basic_string@DU?$char_traits@D@std@@V?$allocator@D@2@@std@@XZ 1017d370 f i friends.pb.obj
 0002:00084440       ?mutable_key@FriendsPresence@@QAEPAV?$basic_string@DU?$char_traits@D@std@@V?$allocator@D@2@@std@@XZ 1017d440 f i friends.pb.obj
 0002:00084510       ?mutable_unknown_fields@FriendsGetUserAvatarMessage@@QAEPAV?$basic_string@DU?$char_traits@D@std@@V?$allocator@D@2@@std@@XZ 1017d510 f i friends.pb.obj
 0002:00084530       ?mutable_unknown_fields@FriendsGetUserAvatarResultMessage@@QAEPAV?$basic_string@DU?$char_traits@D@std@@V?$allocator@D@2@@std@@XZ 1017d530 f i friends.pb.obj
 0002:00084550       ?mutable_unknown_fields@FriendsPresence@@QAEPAV?$basic_string@DU?$char_traits@D@std@@V?$allocator@D@2@@std@@XZ 1017d550 f i friends.pb.obj
 0002:00084570       ?mutable_unknown_fields@FriendsRequestRoster@@QAEPAV?$basic_string@DU?$char_traits@D@std@@V?$allocator@D@2@@std@@XZ 1017d570 f i friends.pb.obj
 0002:00084590       ?mutable_unknown_fields@FriendsRosterMessage@@QAEPAV?$basic_string@DU?$char_traits@D@std@@V?$allocator@D@2@@std@@XZ 1017d590 f i friends.pb.obj
 0002:000845b0       ?mutable_unknown_fields@FriendsRosterMessage_FriendDetails@@QAEPAV?$basic_string@DU?$char_traits@D@std@@V?$allocator@D@2@@std@@XZ 1017d5b0 f i friends.pb.obj
 0002:000845d0       ?mutable_unknown_fields@FriendsSetPresenceMessage@@QAEPAV?$basic_string@DU?$char_traits@D@std@@V?$allocator@D@2@@std@@XZ 1017d5d0 f i friends.pb.obj
 0002:000845f0       ?mutable_username@FriendsRosterMessage_FriendDetails@@QAEPAV?$basic_string@DU?$char_traits@D@std@@V?$allocator@D@2@@std@@XZ 1017d5f0 f i friends.pb.obj
 0002:000846c0       ?mutable_value@FriendsPresence@@QAEPAV?$basic_string@DU?$char_traits@D@std@@V?$allocator@D@2@@std@@XZ 1017d6c0 f i friends.pb.obj
 0002:00084790       ?numresults@FriendsRosterMessage@@QBEHXZ 1017d790 f i friends.pb.obj
 0002:000847b0       ?presence@FriendsSetPresenceMessage@@QBEABV?$RepeatedPtrField@VFriendsPresence@@@protobuf@google@@XZ 1017d7b0 f i friends.pb.obj
 0002:000847d0       ?presence@FriendsSetPresenceMessage@@QBEABVFriendsPresence@@H@Z 1017d7d0 f i friends.pb.obj
 0002:00084800       ?presence_size@FriendsSetPresenceMessage@@QBEHXZ 1017d800 f i friends.pb.obj
 0002:00084830       ?protobuf_AddDesc_friends_2eproto@@YAXXZ 1017d830 f   friends.pb.obj
 0002:00084bd0       ?protobuf_ShutdownFile_friends_2eproto@@YAXXZ 1017dbd0 f   friends.pb.obj
 0002:00084d80       ?set_current_server@FriendsRosterMessage_FriendDetails@@QAEXABV?$basic_string@DU?$char_traits@D@std@@V?$allocator@D@2@@std@@@Z 1017dd80 f i friends.pb.obj
 0002:00084e50       ?set_filedata@FriendsGetUserAvatarResultMessage@@QAEXABV?$basic_string@DU?$char_traits@D@std@@V?$allocator@D@2@@std@@@Z 1017de50 f i friends.pb.obj
 0002:00084f20       ?set_game@FriendsRosterMessage_FriendDetails@@QAEXABV?$basic_string@DU?$char_traits@D@std@@V?$allocator@D@2@@std@@@Z 1017df20 f i friends.pb.obj
 0002:00084ff0       ?set_guid@FriendsGetUserAvatarResultMessage@@QAEXH@Z 1017dff0 f i friends.pb.obj
 0002:00085020       ?set_has_current_server@FriendsRosterMessage_FriendDetails@@AAEXXZ 1017e020 f i friends.pb.obj
 0002:00085070       ?set_has_filedata@FriendsGetUserAvatarResultMessage@@AAEXXZ 1017e070 f i friends.pb.obj
 0002:000850c0       ?set_has_game@FriendsRosterMessage_FriendDetails@@AAEXXZ 1017e0c0 f i friends.pb.obj
 0002:00085110       ?set_has_guid@FriendsGetUserAvatarResultMessage@@AAEXXZ 1017e110 f i friends.pb.obj
 0002:00085160       ?set_has_hostname@FriendsRosterMessage_FriendDetails@@AAEXXZ 1017e160 f i friends.pb.obj
 0002:000851b0       ?set_has_id@FriendsRosterMessage_FriendDetails@@AAEXXZ 1017e1b0 f i friends.pb.obj
 0002:00085200       ?set_has_isonline@FriendsRosterMessage_FriendDetails@@AAEXXZ 1017e200 f i friends.pb.obj
 0002:00085250       ?set_has_numresults@FriendsRosterMessage@@AAEXXZ 1017e250 f i friends.pb.obj
 0002:000852a0       ?set_has_result@FriendsGetUserAvatarResultMessage@@AAEXXZ 1017e2a0 f i friends.pb.obj
 0002:000852f0       ?set_has_result@FriendsRosterMessage@@AAEXXZ 1017e2f0 f i friends.pb.obj
 0002:00085340       ?set_has_username@FriendsRosterMessage_FriendDetails@@AAEXXZ 1017e340 f i friends.pb.obj
 0002:00085390       ?set_hostname@FriendsRosterMessage_FriendDetails@@QAEXABV?$basic_string@DU?$char_traits@D@std@@V?$allocator@D@2@@std@@@Z 1017e390 f i friends.pb.obj
 0002:00085460       ?set_id@FriendsRosterMessage_FriendDetails@@QAEXH@Z 1017e460 f i friends.pb.obj
 0002:00085490       ?set_isonline@FriendsRosterMessage_FriendDetails@@QAEXH@Z 1017e490 f i friends.pb.obj
 0002:000854c0       ?set_numresults@FriendsRosterMessage@@QAEXH@Z 1017e4c0 f i friends.pb.obj
 0002:000854f0       ?set_result@FriendsGetUserAvatarResultMessage@@QAEXH@Z 1017e4f0 f i friends.pb.obj
 0002:00085520       ?set_result@FriendsRosterMessage@@QAEXH@Z 1017e520 f i friends.pb.obj
 0002:00085550       ?set_username@FriendsRosterMessage_FriendDetails@@QAEXABV?$basic_string@DU?$char_traits@D@std@@V?$allocator@D@2@@std@@@Z 1017e550 f i friends.pb.obj
 0002:00085620       ?size@?$RepeatedPtrField@VFriendsPresence@@@protobuf@google@@QBEHXZ 1017e620 f i friends.pb.obj
 0002:00085650       ?unknown_fields@FriendsGetUserAvatarMessage@@QBEABV?$basic_string@DU?$char_traits@D@std@@V?$allocator@D@2@@std@@XZ 1017e650 f i friends.pb.obj
 0002:00085670       ?unknown_fields@FriendsGetUserAvatarResultMessage@@QBEABV?$basic_string@DU?$char_traits@D@std@@V?$allocator@D@2@@std@@XZ 1017e670 f i friends.pb.obj
 0002:00085690       ?unknown_fields@FriendsPresence@@QBEABV?$basic_string@DU?$char_traits@D@std@@V?$allocator@D@2@@std@@XZ 1017e690 f i friends.pb.obj
 0002:000856b0       ?unknown_fields@FriendsRequestRoster@@QBEABV?$basic_string@DU?$char_traits@D@std@@V?$allocator@D@2@@std@@XZ 1017e6b0 f i friends.pb.obj
 0002:000856d0       ?unknown_fields@FriendsRosterMessage@@QBEABV?$basic_string@DU?$char_traits@D@std@@V?$allocator@D@2@@std@@XZ 1017e6d0 f i friends.pb.obj
 0002:000856f0       ?unknown_fields@FriendsRosterMessage_FriendDetails@@QBEABV?$basic_string@DU?$char_traits@D@std@@V?$allocator@D@2@@std@@XZ 1017e6f0 f i friends.pb.obj
 0002:00085710       ?unknown_fields@FriendsSetPresenceMessage@@QBEABV?$basic_string@DU?$char_traits@D@std@@V?$allocator@D@2@@std@@XZ 1017e710 f i friends.pb.obj
 0002:00085730       ?value@FriendsPresence@@QBEABV?$basic_string@DU?$char_traits@D@std@@V?$allocator@D@2@@std@@XZ 1017e730 f i friends.pb.obj
 0002:00085750       ??$down_cast@PBVCloseAppMessage@@$$CBVMessageLite@protobuf@google@@@internal@protobuf@google@@YAPBVCloseAppMessage@@PBVMessageLite@12@@Z 1017e750 f i hello.pb.obj
 0002:00085790       ??$down_cast@PBVHelloMessage@@$$CBVMessageLite@protobuf@google@@@internal@protobuf@google@@YAPBVHelloMessage@@PBVMessageLite@12@@Z 1017e790 f i hello.pb.obj
 0002:000857d0       ??$down_cast@PBVMessagingSendDataMessage@@$$CBVMessageLite@protobuf@google@@@internal@protobuf@google@@YAPBVMessagingSendDataMessage@@PBVMessageLite@12@@Z 1017e7d0 f i hello.pb.obj
 0002:00085810       ??$implicit_cast@PBVMessageLite@protobuf@google@@PBVCloseAppMessage@@@internal@protobuf@google@@YAPBVMessageLite@12@ABQBVCloseAppMessage@@@Z 1017e810 f i hello.pb.obj
 0002:00085830       ??$implicit_cast@PBVMessageLite@protobuf@google@@PBVHelloMessage@@@internal@protobuf@google@@YAPBVMessageLite@12@ABQBVHelloMessage@@@Z 1017e830 f i hello.pb.obj
 0002:00085850       ??$implicit_cast@PBVMessageLite@protobuf@google@@PBVMessagingSendDataMessage@@@internal@protobuf@google@@YAPBVMessageLite@12@ABQBVMessagingSendDataMessage@@@Z 1017e850 f i hello.pb.obj
 0002:00085870       ??0CloseAppMessage@@QAE@ABV0@@Z 1017e870 f   hello.pb.obj
 0002:00085920       ??0CloseAppMessage@@QAE@XZ 1017e920 f   hello.pb.obj
 0002:000859c0       ??0HelloMessage@@QAE@ABV0@@Z 1017e9c0 f   hello.pb.obj
 0002:00085a70       ??0HelloMessage@@QAE@XZ    1017ea70 f   hello.pb.obj
 0002:00085b10       ??0MessagingSendDataMessage@@QAE@ABV0@@Z 1017eb10 f   hello.pb.obj
 0002:00085bc0       ??0MessagingSendDataMessage@@QAE@XZ 1017ebc0 f   hello.pb.obj
 0002:00085c60       ??0StaticDescriptorInitializer_hello_2eproto@@QAE@XZ 1017ec60 f i hello.pb.obj
 0002:00085c90       ??1CloseAppMessage@@UAE@XZ 1017ec90 f   hello.pb.obj
 0002:00085d20       ??1HelloMessage@@UAE@XZ    1017ed20 f   hello.pb.obj
 0002:00085db0       ??1MessagingSendDataMessage@@UAE@XZ 1017edb0 f   hello.pb.obj
 0002:00085e40       ??_GCloseAppMessage@@UAEPAXI@Z 1017ee40 f i hello.pb.obj
 0002:00085e40       ??_ECloseAppMessage@@UAEPAXI@Z 1017ee40 f i hello.pb.obj
 0002:00085e90       ??_GHelloMessage@@UAEPAXI@Z 1017ee90 f i hello.pb.obj
 0002:00085e90       ??_EHelloMessage@@UAEPAXI@Z 1017ee90 f i hello.pb.obj
 0002:00085ee0       ??_EMessagingSendDataMessage@@UAEPAXI@Z 1017eee0 f i hello.pb.obj
 0002:00085ee0       ??_GMessagingSendDataMessage@@UAEPAXI@Z 1017eee0 f i hello.pb.obj
 0002:00085f30       ?ByteSize@CloseAppMessage@@UBEHXZ 1017ef30 f   hello.pb.obj
 0002:00085fd0       ?ByteSize@HelloMessage@@UBEHXZ 1017efd0 f   hello.pb.obj
 0002:00086110       ?ByteSize@MessagingSendDataMessage@@UBEHXZ 1017f110 f   hello.pb.obj
 0002:000861d0       ?CheckTypeAndMergeFrom@CloseAppMessage@@UAEXABVMessageLite@protobuf@google@@@Z 1017f1d0 f   hello.pb.obj
 0002:00086210       ?CheckTypeAndMergeFrom@HelloMessage@@UAEXABVMessageLite@protobuf@google@@@Z 1017f210 f   hello.pb.obj
 0002:00086250       ?CheckTypeAndMergeFrom@MessagingSendDataMessage@@UAEXABVMessageLite@protobuf@google@@@Z 1017f250 f   hello.pb.obj
 0002:00086290       ?Clear@CloseAppMessage@@UAEXXZ 1017f290 f   hello.pb.obj
 0002:00086310       ?Clear@HelloMessage@@UAEXXZ 1017f310 f   hello.pb.obj
 0002:00086410       ?Clear@MessagingSendDataMessage@@UAEXXZ 1017f410 f   hello.pb.obj
 0002:000864c0       ?CopyFrom@CloseAppMessage@@QAEXABV1@@Z 1017f4c0 f   hello.pb.obj
 0002:00086510       ?CopyFrom@HelloMessage@@QAEXABV1@@Z 1017f510 f   hello.pb.obj
 0002:00086560       ?CopyFrom@MessagingSendDataMessage@@QAEXABV1@@Z 1017f560 f   hello.pb.obj
 0002:000865b0       ?GetCachedSize@CloseAppMessage@@UBEHXZ 1017f5b0 f i hello.pb.obj
 0002:000865d0       ?GetCachedSize@HelloMessage@@UBEHXZ 1017f5d0 f i hello.pb.obj
 0002:000865f0       ?GetCachedSize@MessagingSendDataMessage@@UBEHXZ 1017f5f0 f i hello.pb.obj
 0002:00086610       ?GetTypeName@CloseAppMessage@@UBE?AV?$basic_string@DU?$char_traits@D@std@@V?$allocator@D@2@@std@@XZ 1017f610 f   hello.pb.obj
 0002:00086660       ?GetTypeName@HelloMessage@@UBE?AV?$basic_string@DU?$char_traits@D@std@@V?$allocator@D@2@@std@@XZ 1017f660 f   hello.pb.obj
 0002:000866b0       ?GetTypeName@MessagingSendDataMessage@@UBE?AV?$basic_string@DU?$char_traits@D@std@@V?$allocator@D@2@@std@@XZ 1017f6b0 f   hello.pb.obj
 0002:00086700       ?InitAsDefaultInstance@CloseAppMessage@@AAEXXZ 1017f700 f   hello.pb.obj
 0002:00086720       ?InitAsDefaultInstance@HelloMessage@@AAEXXZ 1017f720 f   hello.pb.obj
 0002:00086740       ?InitAsDefaultInstance@MessagingSendDataMessage@@AAEXXZ 1017f740 f   hello.pb.obj
 0002:00086760       ?IsInitialized@CloseAppMessage@@UBE_NXZ 1017f760 f   hello.pb.obj
 0002:000867a0       ?IsInitialized@HelloMessage@@UBE_NXZ 1017f7a0 f   hello.pb.obj
 0002:000867e0       ?IsInitialized@MessagingSendDataMessage@@UBE_NXZ 1017f7e0 f   hello.pb.obj
 0002:00086820       ?MergeFrom@CloseAppMessage@@QAEXABV1@@Z 1017f820 f   hello.pb.obj
 0002:00086990       ?MergeFrom@HelloMessage@@QAEXABV1@@Z 1017f990 f   hello.pb.obj
 0002:00086b80       ?MergeFrom@MessagingSendDataMessage@@QAEXABV1@@Z 1017fb80 f   hello.pb.obj
 0002:00086d10       ?MergePartialFromCodedStream@CloseAppMessage@@UAE_NPAVCodedInputStream@io@protobuf@google@@@Z 1017fd10 f   hello.pb.obj
 0002:00086ec0       ?MergePartialFromCodedStream@HelloMessage@@UAE_NPAVCodedInputStream@io@protobuf@google@@@Z 1017fec0 f   hello.pb.obj
 0002:000871b0       ?MergePartialFromCodedStream@MessagingSendDataMessage@@UAE_NPAVCodedInputStream@io@protobuf@google@@@Z 101801b0 f   hello.pb.obj
 0002:000873d0       ?New@CloseAppMessage@@UBEPAV1@XZ 101803d0 f   hello.pb.obj
 0002:00087470       ?New@HelloMessage@@UBEPAV1@XZ 10180470 f   hello.pb.obj
 0002:00087510       ?New@MessagingSendDataMessage@@UBEPAV1@XZ 10180510 f   hello.pb.obj
 0002:000875b0       ?SerializeWithCachedSizes@CloseAppMessage@@UBEXPAVCodedOutputStream@io@protobuf@google@@@Z 101805b0 f   hello.pb.obj
 0002:00087630       ?SerializeWithCachedSizes@HelloMessage@@UBEXPAVCodedOutputStream@io@protobuf@google@@@Z 10180630 f   hello.pb.obj
 0002:00087740       ?SerializeWithCachedSizes@MessagingSendDataMessage@@UBEXPAVCodedOutputStream@io@protobuf@google@@@Z 10180740 f   hello.pb.obj
 0002:000877f0       ?SetCachedSize@CloseAppMessage@@ABEXH@Z 101807f0 f   hello.pb.obj
 0002:00087820       ?SetCachedSize@HelloMessage@@ABEXH@Z 10180820 f   hello.pb.obj
 0002:00087850       ?SetCachedSize@MessagingSendDataMessage@@ABEXH@Z 10180850 f   hello.pb.obj
 0002:00087880       ?SharedCtor@CloseAppMessage@@AAEXXZ 10180880 f   hello.pb.obj
 0002:000878d0       ?SharedCtor@HelloMessage@@AAEXXZ 101808d0 f   hello.pb.obj
 0002:00087950       ?SharedCtor@MessagingSendDataMessage@@AAEXXZ 10180950 f   hello.pb.obj
 0002:000879c0       ?SharedDtor@CloseAppMessage@@AAEXXZ 101809c0 f   hello.pb.obj
 0002:00087a20       ?SharedDtor@HelloMessage@@AAEXXZ 10180a20 f   hello.pb.obj
 0002:00087ad0       ?SharedDtor@MessagingSendDataMessage@@AAEXXZ 10180ad0 f   hello.pb.obj
 0002:00087b30       ?Swap@CloseAppMessage@@QAEXPAV1@@Z 10180b30 f   hello.pb.obj
 0002:00087be0       ?Swap@HelloMessage@@QAEXPAV1@@Z 10180be0 f   hello.pb.obj
 0002:00087ce0       ?Swap@MessagingSendDataMessage@@QAEXPAV1@@Z 10180ce0 f   hello.pb.obj
 0002:00087da0       ?default_instance@CloseAppMessage@@SAABV1@XZ 10180da0 f   hello.pb.obj
 0002:00087dd0       ?default_instance@HelloMessage@@SAABV1@XZ 10180dd0 f   hello.pb.obj
 0002:00087e00       ?default_instance@MessagingSendDataMessage@@SAABV1@XZ 10180e00 f   hello.pb.obj
 0002:00087e30       ?has_data@MessagingSendDataMessage@@QBE_NXZ 10180e30 f i hello.pb.obj
 0002:00087e80       ?has_name@HelloMessage@@QBE_NXZ 10180e80 f i hello.pb.obj
 0002:00087ed0       ?has_npid@MessagingSendDataMessage@@QBE_NXZ 10180ed0 f i hello.pb.obj
 0002:00087f20       ?has_number2@HelloMessage@@QBE_NXZ 10180f20 f i hello.pb.obj
 0002:00087f70       ?has_number@HelloMessage@@QBE_NXZ 10180f70 f i hello.pb.obj
 0002:00087fc0       ?has_reason@CloseAppMessage@@QBE_NXZ 10180fc0 f i hello.pb.obj
 0002:00088010       ?has_stuff@HelloMessage@@QBE_NXZ 10181010 f i hello.pb.obj
 0002:00088060       ?mutable_data@MessagingSendDataMessage@@QAEPAV?$basic_string@DU?$char_traits@D@std@@V?$allocator@D@2@@std@@XZ 10181060 f i hello.pb.obj
 0002:00088130       ?mutable_name@HelloMessage@@QAEPAV?$basic_string@DU?$char_traits@D@std@@V?$allocator@D@2@@std@@XZ 10181130 f i hello.pb.obj
 0002:00088200       ?mutable_reason@CloseAppMessage@@QAEPAV?$basic_string@DU?$char_traits@D@std@@V?$allocator@D@2@@std@@XZ 10181200 f i hello.pb.obj
 0002:000882d0       ?mutable_stuff@HelloMessage@@QAEPAV?$basic_string@DU?$char_traits@D@std@@V?$allocator@D@2@@std@@XZ 101812d0 f i hello.pb.obj
 0002:000883a0       ?mutable_unknown_fields@CloseAppMessage@@QAEPAV?$basic_string@DU?$char_traits@D@std@@V?$allocator@D@2@@std@@XZ 101813a0 f i hello.pb.obj
 0002:000883c0       ?mutable_unknown_fields@HelloMessage@@QAEPAV?$basic_string@DU?$char_traits@D@std@@V?$allocator@D@2@@std@@XZ 101813c0 f i hello.pb.obj
 0002:000883e0       ?mutable_unknown_fields@MessagingSendDataMessage@@QAEPAV?$basic_string@DU?$char_traits@D@std@@V?$allocator@D@2@@std@@XZ 101813e0 f i hello.pb.obj
 0002:00088400       ?name@HelloMessage@@QBEABV?$basic_string@DU?$char_traits@D@std@@V?$allocator@D@2@@std@@XZ 10181400 f i hello.pb.obj
 0002:00088420       ?number2@HelloMessage@@QBEHXZ 10181420 f i hello.pb.obj
 0002:00088440       ?number@HelloMessage@@QBEHXZ 10181440 f i hello.pb.obj
 0002:00088460       ?protobuf_AddDesc_hello_2eproto@@YAXXZ 10181460 f   hello.pb.obj
 0002:00088620       ?protobuf_ShutdownFile_hello_2eproto@@YAXXZ 10181620 f   hello.pb.obj
 0002:000886e0       ?reason@CloseAppMessage@@QBEABV?$basic_string@DU?$char_traits@D@std@@V?$allocator@D@2@@std@@XZ 101816e0 f i hello.pb.obj
 0002:00088700       ?set_data@MessagingSendDataMessage@@QAEXABV?$basic_string@DU?$char_traits@D@std@@V?$allocator@D@2@@std@@@Z 10181700 f i hello.pb.obj
 0002:000887d0       ?set_has_name@HelloMessage@@AAEXXZ 101817d0 f i hello.pb.obj
 0002:00088820       ?set_has_number2@HelloMessage@@AAEXXZ 10181820 f i hello.pb.obj
 0002:00088870       ?set_has_number@HelloMessage@@AAEXXZ 10181870 f i hello.pb.obj
 0002:000888c0       ?set_has_reason@CloseAppMessage@@AAEXXZ 101818c0 f i hello.pb.obj
 0002:00088910       ?set_has_stuff@HelloMessage@@AAEXXZ 10181910 f i hello.pb.obj
 0002:00088960       ?set_name@HelloMessage@@QAEXABV?$basic_string@DU?$char_traits@D@std@@V?$allocator@D@2@@std@@@Z 10181960 f i hello.pb.obj
 0002:00088a30       ?set_number2@HelloMessage@@QAEXH@Z 10181a30 f i hello.pb.obj
 0002:00088a60       ?set_number@HelloMessage@@QAEXH@Z 10181a60 f i hello.pb.obj
 0002:00088a90       ?set_reason@CloseAppMessage@@QAEXABV?$basic_string@DU?$char_traits@D@std@@V?$allocator@D@2@@std@@@Z 10181a90 f i hello.pb.obj
 0002:00088b60       ?set_stuff@HelloMessage@@QAEXABV?$basic_string@DU?$char_traits@D@std@@V?$allocator@D@2@@std@@@Z 10181b60 f i hello.pb.obj
 0002:00088c30       ?stuff@HelloMessage@@QBEABV?$basic_string@DU?$char_traits@D@std@@V?$allocator@D@2@@std@@XZ 10181c30 f i hello.pb.obj
 0002:00088c50       ?unknown_fields@CloseAppMessage@@QBEABV?$basic_string@DU?$char_traits@D@std@@V?$allocator@D@2@@std@@XZ 10181c50 f i hello.pb.obj
 0002:00088c70       ?unknown_fields@HelloMessage@@QBEABV?$basic_string@DU?$char_traits@D@std@@V?$allocator@D@2@@std@@XZ 10181c70 f i hello.pb.obj
 0002:00088c90       ?unknown_fields@MessagingSendDataMessage@@QBEABV?$basic_string@DU?$char_traits@D@std@@V?$allocator@D@2@@std@@XZ 10181c90 f i hello.pb.obj
 0002:00088cb0       ??$Add@VTypeHandler@?$RepeatedPtrField@VSessionInfo@@@protobuf@google@@@RepeatedPtrFieldBase@internal@protobuf@google@@IAEPAVSessionInfo@@XZ 10181cb0 f i servers.pb.obj
 0002:00088d90       ??$Clear@VTypeHandler@?$RepeatedPtrField@VSessionInfo@@@protobuf@google@@@RepeatedPtrFieldBase@internal@protobuf@google@@IAEXXZ 10181d90 f i servers.pb.obj
 0002:00088e00       ??$Destroy@VTypeHandler@?$RepeatedPtrField@VSessionInfo@@@protobuf@google@@@RepeatedPtrFieldBase@internal@protobuf@google@@IAEXXZ 10181e00 f i servers.pb.obj
 0002:00088e80       ??$MergeFrom@VTypeHandler@?$RepeatedPtrField@VSessionInfo@@@protobuf@google@@@RepeatedPtrFieldBase@internal@protobuf@google@@IAEXABV0123@@Z 10181e80 f i servers.pb.obj
 0002:00088ff0       ??$MessageSizeNoVirtual@VSessionInfo@@@WireFormatLite@internal@protobuf@google@@SAHABVSessionInfo@@@Z 10181ff0 f i servers.pb.obj
 0002:00089020       ??$ReadMessageNoVirtual@VSessionInfo@@@WireFormatLite@internal@protobuf@google@@SA_NPAVCodedInputStream@io@23@PAVSessionInfo@@@Z 10182020 f i servers.pb.obj
 0002:000890d0       ??$ReadPrimitive@I$0N@@WireFormatLite@internal@protobuf@google@@SA_NPAVCodedInputStream@io@23@PAI@Z 101820d0 f i servers.pb.obj
 0002:00089100       ??$_Move@AAPAVSessionInfo@@@std@@YA$$QAPAVSessionInfo@@AAPAV1@@Z 10182100 f i servers.pb.obj
 0002:00089120       ??$down_cast@PBVServersCreateSessionMessage@@$$CBVMessageLite@protobuf@google@@@internal@protobuf@google@@YAPBVServersCreateSessionMessage@@PBVMessageLite@12@@Z 10182120 f i servers.pb.obj
 0002:00089160       ??$down_cast@PBVServersCreateSessionResultMessage@@$$CBVMessageLite@protobuf@google@@@internal@protobuf@google@@YAPBVServersCreateSessionResultMessage@@PBVMessageLite@12@@Z 10182160 f i servers.pb.obj
 0002:000891a0       ??$down_cast@PBVServersDeleteSessionMessage@@$$CBVMessageLite@protobuf@google@@@internal@protobuf@google@@YAPBVServersDeleteSessionMessage@@PBVMessageLite@12@@Z 101821a0 f i servers.pb.obj
 0002:000891e0       ??$down_cast@PBVServersDeleteSessionResultMessage@@$$CBVMessageLite@protobuf@google@@@internal@protobuf@google@@YAPBVServersDeleteSessionResultMessage@@PBVMessageLite@12@@Z 101821e0 f i servers.pb.obj
 0002:00089220       ??$down_cast@PBVServersGetSessionsMessage@@$$CBVMessageLite@protobuf@google@@@internal@protobuf@google@@YAPBVServersGetSessionsMessage@@PBVMessageLite@12@@Z 10182220 f i servers.pb.obj
 0002:00089260       ??$down_cast@PBVServersGetSessionsResultMessage@@$$CBVMessageLite@protobuf@google@@@internal@protobuf@google@@YAPBVServersGetSessionsResultMessage@@PBVMessageLite@12@@Z 10182260 f i servers.pb.obj
 0002:000892a0       ??$down_cast@PBVServersUpdateSessionMessage@@$$CBVMessageLite@protobuf@google@@@internal@protobuf@google@@YAPBVServersUpdateSessionMessage@@PBVMessageLite@12@@Z 101822a0 f i servers.pb.obj
 0002:000892e0       ??$down_cast@PBVServersUpdateSessionResultMessage@@$$CBVMessageLite@protobuf@google@@@internal@protobuf@google@@YAPBVServersUpdateSessionResultMessage@@PBVMessageLite@12@@Z 101822e0 f i servers.pb.obj
 0002:00089320       ??$down_cast@PBVSessionInfo@@$$CBVMessageLite@protobuf@google@@@internal@protobuf@google@@YAPBVSessionInfo@@PBVMessageLite@12@@Z 10182320 f i servers.pb.obj
 0002:00089360       ??$implicit_cast@PBVMessageLite@protobuf@google@@PBVServersCreateSessionMessage@@@internal@protobuf@google@@YAPBVMessageLite@12@ABQBVServersCreateSessionMessage@@@Z 10182360 f i servers.pb.obj
 0002:00089380       ??$implicit_cast@PBVMessageLite@protobuf@google@@PBVServersCreateSessionResultMessage@@@internal@protobuf@google@@YAPBVMessageLite@12@ABQBVServersCreateSessionResultMessage@@@Z 10182380 f i servers.pb.obj
 0002:000893a0       ??$implicit_cast@PBVMessageLite@protobuf@google@@PBVServersDeleteSessionMessage@@@internal@protobuf@google@@YAPBVMessageLite@12@ABQBVServersDeleteSessionMessage@@@Z 101823a0 f i servers.pb.obj
 0002:000893c0       ??$implicit_cast@PBVMessageLite@protobuf@google@@PBVServersDeleteSessionResultMessage@@@internal@protobuf@google@@YAPBVMessageLite@12@ABQBVServersDeleteSessionResultMessage@@@Z 101823c0 f i servers.pb.obj
 0002:000893e0       ??$implicit_cast@PBVMessageLite@protobuf@google@@PBVServersGetSessionsMessage@@@internal@protobuf@google@@YAPBVMessageLite@12@ABQBVServersGetSessionsMessage@@@Z 101823e0 f i servers.pb.obj
 0002:00089400       ??$implicit_cast@PBVMessageLite@protobuf@google@@PBVServersGetSessionsResultMessage@@@internal@protobuf@google@@YAPBVMessageLite@12@ABQBVServersGetSessionsResultMessage@@@Z 10182400 f i servers.pb.obj
 0002:00089420       ??$implicit_cast@PBVMessageLite@protobuf@google@@PBVServersUpdateSessionMessage@@@internal@protobuf@google@@YAPBVMessageLite@12@ABQBVServersUpdateSessionMessage@@@Z 10182420 f i servers.pb.obj
 0002:00089440       ??$implicit_cast@PBVMessageLite@protobuf@google@@PBVServersUpdateSessionResultMessage@@@internal@protobuf@google@@YAPBVMessageLite@12@ABQBVServersUpdateSessionResultMessage@@@Z 10182440 f i servers.pb.obj
 0002:00089460       ??$implicit_cast@PBVMessageLite@protobuf@google@@PBVSessionInfo@@@internal@protobuf@google@@YAPBVMessageLite@12@ABQBVSessionInfo@@@Z 10182460 f i servers.pb.obj
 0002:00089480       ??$swap@PAVSessionInfo@@@std@@YAXAAPAVSessionInfo@@0@Z 10182480 f i servers.pb.obj
 0002:000894e0       ??0?$RepeatedPtrField@VSessionInfo@@@protobuf@google@@QAE@XZ 101824e0 f i servers.pb.obj
 0002:00089510       ??0ServersCreateSessionMessage@@QAE@ABV0@@Z 10182510 f   servers.pb.obj
 0002:000895c0       ??0ServersCreateSessionMessage@@QAE@XZ 101825c0 f   servers.pb.obj
 0002:00089660       ??0ServersCreateSessionResultMessage@@QAE@ABV0@@Z 10182660 f   servers.pb.obj
 0002:00089710       ??0ServersCreateSessionResultMessage@@QAE@XZ 10182710 f   servers.pb.obj
 0002:000897b0       ??0ServersDeleteSessionMessage@@QAE@ABV0@@Z 101827b0 f   servers.pb.obj
 0002:00089860       ??0ServersDeleteSessionMessage@@QAE@XZ 10182860 f   servers.pb.obj
 0002:00089900       ??0ServersDeleteSessionResultMessage@@QAE@ABV0@@Z 10182900 f   servers.pb.obj
 0002:000899b0       ??0ServersDeleteSessionResultMessage@@QAE@XZ 101829b0 f   servers.pb.obj
 0002:00089a50       ??0ServersGetSessionsMessage@@QAE@ABV0@@Z 10182a50 f   servers.pb.obj
 0002:00089b00       ??0ServersGetSessionsMessage@@QAE@XZ 10182b00 f   servers.pb.obj
 0002:00089ba0       ??0ServersGetSessionsResultMessage@@QAE@ABV0@@Z 10182ba0 f   servers.pb.obj
 0002:00089c60       ??0ServersGetSessionsResultMessage@@QAE@XZ 10182c60 f   servers.pb.obj
 0002:00089d10       ??0ServersUpdateSessionMessage@@QAE@ABV0@@Z 10182d10 f   servers.pb.obj
 0002:00089dc0       ??0ServersUpdateSessionMessage@@QAE@XZ 10182dc0 f   servers.pb.obj
 0002:00089e60       ??0ServersUpdateSessionResultMessage@@QAE@ABV0@@Z 10182e60 f   servers.pb.obj
 0002:00089f10       ??0ServersUpdateSessionResultMessage@@QAE@XZ 10182f10 f   servers.pb.obj
 0002:00089fb0       ??0SessionInfo@@QAE@ABV0@@Z 10182fb0 f   servers.pb.obj
 0002:0008a060       ??0SessionInfo@@QAE@XZ     10183060 f   servers.pb.obj
 0002:0008a100       ??0StaticDescriptorInitializer_servers_2eproto@@QAE@XZ 10183100 f i servers.pb.obj
 0002:0008a130       ??1?$RepeatedPtrField@VSessionInfo@@@protobuf@google@@QAE@XZ 10183130 f i servers.pb.obj
 0002:0008a160       ??1ServersCreateSessionMessage@@UAE@XZ 10183160 f   servers.pb.obj
 0002:0008a1f0       ??1ServersCreateSessionResultMessage@@UAE@XZ 101831f0 f   servers.pb.obj
 0002:0008a280       ??1ServersDeleteSessionMessage@@UAE@XZ 10183280 f   servers.pb.obj
 0002:0008a310       ??1ServersDeleteSessionResultMessage@@UAE@XZ 10183310 f   servers.pb.obj
 0002:0008a3a0       ??1ServersGetSessionsMessage@@UAE@XZ 101833a0 f   servers.pb.obj
 0002:0008a430       ??1ServersGetSessionsResultMessage@@UAE@XZ 10183430 f   servers.pb.obj
 0002:0008a4e0       ??1ServersUpdateSessionMessage@@UAE@XZ 101834e0 f   servers.pb.obj
 0002:0008a570       ??1ServersUpdateSessionResultMessage@@UAE@XZ 10183570 f   servers.pb.obj
 0002:0008a600       ??1SessionInfo@@UAE@XZ     10183600 f   servers.pb.obj
 0002:0008a690       ??_EServersCreateSessionMessage@@UAEPAXI@Z 10183690 f i servers.pb.obj
 0002:0008a690       ??_GServersCreateSessionMessage@@UAEPAXI@Z 10183690 f i servers.pb.obj
 0002:0008a6e0       ??_EServersCreateSessionResultMessage@@UAEPAXI@Z 101836e0 f i servers.pb.obj
 0002:0008a6e0       ??_GServersCreateSessionResultMessage@@UAEPAXI@Z 101836e0 f i servers.pb.obj
 0002:0008a730       ??_GServersDeleteSessionMessage@@UAEPAXI@Z 10183730 f i servers.pb.obj
 0002:0008a730       ??_EServersDeleteSessionMessage@@UAEPAXI@Z 10183730 f i servers.pb.obj
 0002:0008a780       ??_GServersDeleteSessionResultMessage@@UAEPAXI@Z 10183780 f i servers.pb.obj
 0002:0008a780       ??_EServersDeleteSessionResultMessage@@UAEPAXI@Z 10183780 f i servers.pb.obj
 0002:0008a7d0       ??_EServersGetSessionsMessage@@UAEPAXI@Z 101837d0 f i servers.pb.obj
 0002:0008a7d0       ??_GServersGetSessionsMessage@@UAEPAXI@Z 101837d0 f i servers.pb.obj
 0002:0008a820       ??_EServersGetSessionsResultMessage@@UAEPAXI@Z 10183820 f i servers.pb.obj
 0002:0008a820       ??_GServersGetSessionsResultMessage@@UAEPAXI@Z 10183820 f i servers.pb.obj
 0002:0008a870       ??_GServersUpdateSessionMessage@@UAEPAXI@Z 10183870 f i servers.pb.obj
 0002:0008a870       ??_EServersUpdateSessionMessage@@UAEPAXI@Z 10183870 f i servers.pb.obj
 0002:0008a8c0       ??_GServersUpdateSessionResultMessage@@UAEPAXI@Z 101838c0 f i servers.pb.obj
 0002:0008a8c0       ??_EServersUpdateSessionResultMessage@@UAEPAXI@Z 101838c0 f i servers.pb.obj
 0002:0008a910       ??_GSessionInfo@@UAEPAXI@Z 10183910 f i servers.pb.obj
 0002:0008a910       ??_ESessionInfo@@UAEPAXI@Z 10183910 f i servers.pb.obj
 0002:0008a960       ?Add@?$RepeatedPtrField@VSessionInfo@@@protobuf@google@@QAEPAVSessionInfo@@XZ 10183960 f i servers.pb.obj
 0002:0008a990       ?ByteSize@ServersCreateSessionMessage@@UBEHXZ 10183990 f   servers.pb.obj
 0002:0008aa30       ?ByteSize@ServersCreateSessionResultMessage@@UBEHXZ 10183a30 f   servers.pb.obj
 0002:0008aaf0       ?ByteSize@ServersDeleteSessionMessage@@UBEHXZ 10183af0 f   servers.pb.obj
 0002:0008ab80       ?ByteSize@ServersDeleteSessionResultMessage@@UBEHXZ 10183b80 f   servers.pb.obj
 0002:0008ac20       ?ByteSize@ServersGetSessionsMessage@@UBEHXZ 10183c20 f   servers.pb.obj
 0002:0008acc0       ?ByteSize@ServersGetSessionsResultMessage@@UBEHXZ 10183cc0 f   servers.pb.obj
 0002:0008ad70       ?ByteSize@ServersUpdateSessionMessage@@UBEHXZ 10183d70 f   servers.pb.obj
 0002:0008aed0       ?ByteSize@ServersUpdateSessionResultMessage@@UBEHXZ 10183ed0 f   servers.pb.obj
 0002:0008af70       ?ByteSize@SessionInfo@@UBEHXZ 10183f70 f   servers.pb.obj
 0002:0008b170       ?CheckTypeAndMergeFrom@ServersCreateSessionMessage@@UAEXABVMessageLite@protobuf@google@@@Z 10184170 f   servers.pb.obj
 0002:0008b1b0       ?CheckTypeAndMergeFrom@ServersCreateSessionResultMessage@@UAEXABVMessageLite@protobuf@google@@@Z 101841b0 f   servers.pb.obj
 0002:0008b1f0       ?CheckTypeAndMergeFrom@ServersDeleteSessionMessage@@UAEXABVMessageLite@protobuf@google@@@Z 101841f0 f   servers.pb.obj
 0002:0008b230       ?CheckTypeAndMergeFrom@ServersDeleteSessionResultMessage@@UAEXABVMessageLite@protobuf@google@@@Z 10184230 f   servers.pb.obj
 0002:0008b270       ?CheckTypeAndMergeFrom@ServersGetSessionsMessage@@UAEXABVMessageLite@protobuf@google@@@Z 10184270 f   servers.pb.obj
 0002:0008b2b0       ?CheckTypeAndMergeFrom@ServersGetSessionsResultMessage@@UAEXABVMessageLite@protobuf@google@@@Z 101842b0 f   servers.pb.obj
 0002:0008b2f0       ?CheckTypeAndMergeFrom@ServersUpdateSessionMessage@@UAEXABVMessageLite@protobuf@google@@@Z 101842f0 f   servers.pb.obj
 0002:0008b330       ?CheckTypeAndMergeFrom@ServersUpdateSessionResultMessage@@UAEXABVMessageLite@protobuf@google@@@Z 10184330 f   servers.pb.obj
 0002:0008b370       ?CheckTypeAndMergeFrom@SessionInfo@@UAEXABVMessageLite@protobuf@google@@@Z 10184370 f   servers.pb.obj
 0002:0008b3b0       ?Clear@?$GenericTypeHandler@VSessionInfo@@@internal@protobuf@google@@SAXPAVSessionInfo@@@Z 101843b0 f i servers.pb.obj
 0002:0008b3e0       ?Clear@?$RepeatedPtrField@VSessionInfo@@@protobuf@google@@QAEXXZ 101843e0 f i servers.pb.obj
 0002:0008b410       ?Clear@ServersCreateSessionMessage@@UAEXXZ 10184410 f   servers.pb.obj
 0002:0008b480       ?Clear@ServersCreateSessionResultMessage@@UAEXXZ 10184480 f   servers.pb.obj
 0002:0008b500       ?Clear@ServersDeleteSessionMessage@@UAEXXZ 10184500 f   servers.pb.obj
 0002:0008b560       ?Clear@ServersDeleteSessionResultMessage@@UAEXXZ 10184560 f   servers.pb.obj
 0002:0008b5b0       ?Clear@ServersGetSessionsMessage@@UAEXXZ 101845b0 f   servers.pb.obj
 0002:0008b630       ?Clear@ServersGetSessionsResultMessage@@UAEXXZ 10184630 f   servers.pb.obj
 0002:0008b680       ?Clear@ServersUpdateSessionMessage@@UAEXXZ 10184680 f   servers.pb.obj
 0002:0008b790       ?Clear@ServersUpdateSessionResultMessage@@UAEXXZ 10184790 f   servers.pb.obj
 0002:0008b7e0       ?Clear@SessionInfo@@UAEXXZ 101847e0 f   servers.pb.obj
 0002:0008b920       ?CopyFrom@ServersCreateSessionMessage@@QAEXABV1@@Z 10184920 f   servers.pb.obj
 0002:0008b970       ?CopyFrom@ServersCreateSessionResultMessage@@QAEXABV1@@Z 10184970 f   servers.pb.obj
 0002:0008b9c0       ?CopyFrom@ServersDeleteSessionMessage@@QAEXABV1@@Z 101849c0 f   servers.pb.obj
 0002:0008ba10       ?CopyFrom@ServersDeleteSessionResultMessage@@QAEXABV1@@Z 10184a10 f   servers.pb.obj
 0002:0008ba60       ?CopyFrom@ServersGetSessionsMessage@@QAEXABV1@@Z 10184a60 f   servers.pb.obj
 0002:0008bab0       ?CopyFrom@ServersGetSessionsResultMessage@@QAEXABV1@@Z 10184ab0 f   servers.pb.obj
 0002:0008bb00       ?CopyFrom@ServersUpdateSessionMessage@@QAEXABV1@@Z 10184b00 f   servers.pb.obj
 0002:0008bb50       ?CopyFrom@ServersUpdateSessionResultMessage@@QAEXABV1@@Z 10184b50 f   servers.pb.obj
 0002:0008bba0       ?CopyFrom@SessionInfo@@QAEXABV1@@Z 10184ba0 f   servers.pb.obj
 0002:0008bbf0       ?Delete@?$GenericTypeHandler@VSessionInfo@@@internal@protobuf@google@@SAXPAVSessionInfo@@@Z 10184bf0 f i servers.pb.obj
 0002:0008bc40       ?GetCachedSize@ServersCreateSessionMessage@@UBEHXZ 10184c40 f i servers.pb.obj
 0002:0008bc60       ?GetCachedSize@ServersCreateSessionResultMessage@@UBEHXZ 10184c60 f i servers.pb.obj
 0002:0008bc80       ?GetCachedSize@ServersDeleteSessionMessage@@UBEHXZ 10184c80 f i servers.pb.obj
 0002:0008bca0       ?GetCachedSize@ServersDeleteSessionResultMessage@@UBEHXZ 10184ca0 f i servers.pb.obj
 0002:0008bcc0       ?GetCachedSize@ServersGetSessionsMessage@@UBEHXZ 10184cc0 f i servers.pb.obj
 0002:0008bce0       ?GetCachedSize@ServersGetSessionsResultMessage@@UBEHXZ 10184ce0 f i servers.pb.obj
 0002:0008bd00       ?GetCachedSize@ServersUpdateSessionMessage@@UBEHXZ 10184d00 f i servers.pb.obj
 0002:0008bd20       ?GetCachedSize@ServersUpdateSessionResultMessage@@UBEHXZ 10184d20 f i servers.pb.obj
 0002:0008bd40       ?GetCachedSize@SessionInfo@@UBEHXZ 10184d40 f i servers.pb.obj
 0002:0008bd60       ?GetTypeName@ServersCreateSessionMessage@@UBE?AV?$basic_string@DU?$char_traits@D@std@@V?$allocator@D@2@@std@@XZ 10184d60 f   servers.pb.obj
 0002:0008bdb0       ?GetTypeName@ServersCreateSessionResultMessage@@UBE?AV?$basic_string@DU?$char_traits@D@std@@V?$allocator@D@2@@std@@XZ 10184db0 f   servers.pb.obj
 0002:0008be00       ?GetTypeName@ServersDeleteSessionMessage@@UBE?AV?$basic_string@DU?$char_traits@D@std@@V?$allocator@D@2@@std@@XZ 10184e00 f   servers.pb.obj
 0002:0008be50       ?GetTypeName@ServersDeleteSessionResultMessage@@UBE?AV?$basic_string@DU?$char_traits@D@std@@V?$allocator@D@2@@std@@XZ 10184e50 f   servers.pb.obj
 0002:0008bea0       ?GetTypeName@ServersGetSessionsMessage@@UBE?AV?$basic_string@DU?$char_traits@D@std@@V?$allocator@D@2@@std@@XZ 10184ea0 f   servers.pb.obj
 0002:0008bef0       ?GetTypeName@ServersGetSessionsResultMessage@@UBE?AV?$basic_string@DU?$char_traits@D@std@@V?$allocator@D@2@@std@@XZ 10184ef0 f   servers.pb.obj
 0002:0008bf40       ?GetTypeName@ServersUpdateSessionMessage@@UBE?AV?$basic_string@DU?$char_traits@D@std@@V?$allocator@D@2@@std@@XZ 10184f40 f   servers.pb.obj
 0002:0008bf90       ?GetTypeName@ServersUpdateSessionResultMessage@@UBE?AV?$basic_string@DU?$char_traits@D@std@@V?$allocator@D@2@@std@@XZ 10184f90 f   servers.pb.obj
 0002:0008bfe0       ?GetTypeName@SessionInfo@@UBE?AV?$basic_string@DU?$char_traits@D@std@@V?$allocator@D@2@@std@@XZ 10184fe0 f   servers.pb.obj
 0002:0008c030       ?InitAsDefaultInstance@ServersCreateSessionMessage@@AAEXXZ 10185030 f   servers.pb.obj
 0002:0008c060       ?InitAsDefaultInstance@ServersCreateSessionResultMessage@@AAEXXZ 10185060 f   servers.pb.obj
 0002:0008c080       ?InitAsDefaultInstance@ServersDeleteSessionMessage@@AAEXXZ 10185080 f   servers.pb.obj
 0002:0008c0a0       ?InitAsDefaultInstance@ServersDeleteSessionResultMessage@@AAEXXZ 101850a0 f   servers.pb.obj
 0002:0008c0c0       ?InitAsDefaultInstance@ServersGetSessionsMessage@@AAEXXZ 101850c0 f   servers.pb.obj
 0002:0008c0e0       ?InitAsDefaultInstance@ServersGetSessionsResultMessage@@AAEXXZ 101850e0 f   servers.pb.obj
 0002:0008c100       ?InitAsDefaultInstance@ServersUpdateSessionMessage@@AAEXXZ 10185100 f   servers.pb.obj
 0002:0008c120       ?InitAsDefaultInstance@ServersUpdateSessionResultMessage@@AAEXXZ 10185120 f   servers.pb.obj
 0002:0008c140       ?InitAsDefaultInstance@SessionInfo@@AAEXXZ 10185140 f   servers.pb.obj
 0002:0008c160       ?IsInitialized@ServersCreateSessionMessage@@UBE_NXZ 10185160 f   servers.pb.obj
 0002:0008c180       ?IsInitialized@ServersCreateSessionResultMessage@@UBE_NXZ 10185180 f   servers.pb.obj
 0002:0008c1a0       ?IsInitialized@ServersDeleteSessionMessage@@UBE_NXZ 101851a0 f   servers.pb.obj
 0002:0008c1c0       ?IsInitialized@ServersDeleteSessionResultMessage@@UBE_NXZ 101851c0 f   servers.pb.obj
 0002:0008c1e0       ?IsInitialized@ServersGetSessionsMessage@@UBE_NXZ 101851e0 f   servers.pb.obj
 0002:0008c200       ?IsInitialized@ServersGetSessionsResultMessage@@UBE_NXZ 10185200 f   servers.pb.obj
 0002:0008c220       ?IsInitialized@ServersUpdateSessionMessage@@UBE_NXZ 10185220 f   servers.pb.obj
 0002:0008c240       ?IsInitialized@ServersUpdateSessionResultMessage@@UBE_NXZ 10185240 f   servers.pb.obj
 0002:0008c260       ?IsInitialized@SessionInfo@@UBE_NXZ 10185260 f   servers.pb.obj
 0002:0008c280       ?Merge@?$GenericTypeHandler@VSessionInfo@@@internal@protobuf@google@@SAXABVSessionInfo@@PAV5@@Z 10185280 f i servers.pb.obj
 0002:0008c2b0       ?MergeFrom@?$RepeatedPtrField@VSessionInfo@@@protobuf@google@@QAEXABV123@@Z 101852b0 f i servers.pb.obj
 0002:0008c2e0       ?MergeFrom@ServersCreateSessionMessage@@QAEXABV1@@Z 101852e0 f   servers.pb.obj
 0002:0008c450       ?MergeFrom@ServersCreateSessionResultMessage@@QAEXABV1@@Z 10185450 f   servers.pb.obj
 0002:0008c5e0       ?MergeFrom@ServersDeleteSessionMessage@@QAEXABV1@@Z 101855e0 f   servers.pb.obj
 0002:0008c750       ?MergeFrom@ServersDeleteSessionResultMessage@@QAEXABV1@@Z 10185750 f   servers.pb.obj
 0002:0008c8c0       ?MergeFrom@ServersGetSessionsMessage@@QAEXABV1@@Z 101858c0 f   servers.pb.obj
 0002:0008ca30       ?MergeFrom@ServersGetSessionsResultMessage@@QAEXABV1@@Z 10185a30 f   servers.pb.obj
 0002:0008cb70       ?MergeFrom@ServersUpdateSessionMessage@@QAEXABV1@@Z 10185b70 f   servers.pb.obj
 0002:0008cd80       ?MergeFrom@ServersUpdateSessionResultMessage@@QAEXABV1@@Z 10185d80 f   servers.pb.obj
 0002:0008cef0       ?MergeFrom@SessionInfo@@QAEXABV1@@Z 10185ef0 f   servers.pb.obj
 0002:0008d180       ?MergePartialFromCodedStream@ServersCreateSessionMessage@@UAE_NPAVCodedInputStream@io@protobuf@google@@@Z 10186180 f   servers.pb.obj
 0002:0008d330       ?MergePartialFromCodedStream@ServersCreateSessionResultMessage@@UAE_NPAVCodedInputStream@io@protobuf@google@@@Z 10186330 f   servers.pb.obj
 0002:0008d550       ?MergePartialFromCodedStream@ServersDeleteSessionMessage@@UAE_NPAVCodedInputStream@io@protobuf@google@@@Z 10186550 f   servers.pb.obj
 0002:0008d710       ?MergePartialFromCodedStream@ServersDeleteSessionResultMessage@@UAE_NPAVCodedInputStream@io@protobuf@google@@@Z 10186710 f   servers.pb.obj
 0002:0008d8d0       ?MergePartialFromCodedStream@ServersGetSessionsMessage@@UAE_NPAVCodedInputStream@io@protobuf@google@@@Z 101868d0 f   servers.pb.obj
 0002:0008da80       ?MergePartialFromCodedStream@ServersGetSessionsResultMessage@@UAE_NPAVCodedInputStream@io@protobuf@google@@@Z 10186a80 f   servers.pb.obj
 0002:0008dc50       ?MergePartialFromCodedStream@ServersUpdateSessionMessage@@UAE_NPAVCodedInputStream@io@protobuf@google@@@Z 10186c50 f   servers.pb.obj
 0002:0008dfb0       ?MergePartialFromCodedStream@ServersUpdateSessionResultMessage@@UAE_NPAVCodedInputStream@io@protobuf@google@@@Z 10186fb0 f   servers.pb.obj
 0002:0008e170       ?MergePartialFromCodedStream@SessionInfo@@UAE_NPAVCodedInputStream@io@protobuf@google@@@Z 10187170 f   servers.pb.obj
 0002:0008e5f0       ?New@?$GenericTypeHandler@VSessionInfo@@@internal@protobuf@google@@SAPAVSessionInfo@@XZ 101875f0 f i servers.pb.obj
 0002:0008e690       ?New@ServersCreateSessionMessage@@UBEPAV1@XZ 10187690 f   servers.pb.obj
 0002:0008e730       ?New@ServersCreateSessionResultMessage@@UBEPAV1@XZ 10187730 f   servers.pb.obj
 0002:0008e7d0       ?New@ServersDeleteSessionMessage@@UBEPAV1@XZ 101877d0 f   servers.pb.obj
 0002:0008e870       ?New@ServersDeleteSessionResultMessage@@UBEPAV1@XZ 10187870 f   servers.pb.obj
 0002:0008e910       ?New@ServersGetSessionsMessage@@UBEPAV1@XZ 10187910 f   servers.pb.obj
 0002:0008e9b0       ?New@ServersGetSessionsResultMessage@@UBEPAV1@XZ 101879b0 f   servers.pb.obj
 0002:0008ea50       ?New@ServersUpdateSessionMessage@@UBEPAV1@XZ 10187a50 f   servers.pb.obj
 0002:0008eaf0       ?New@ServersUpdateSessionResultMessage@@UBEPAV1@XZ 10187af0 f   servers.pb.obj
 0002:0008eb90       ?New@SessionInfo@@UBEPAV1@XZ 10187b90 f   servers.pb.obj
 0002:0008ec30       ?SerializeWithCachedSizes@ServersCreateSessionMessage@@UBEXPAVCodedOutputStream@io@protobuf@google@@@Z 10187c30 f   servers.pb.obj
 0002:0008ecb0       ?SerializeWithCachedSizes@ServersCreateSessionResultMessage@@UBEXPAVCodedOutputStream@io@protobuf@google@@@Z 10187cb0 f   servers.pb.obj
 0002:0008ed60       ?SerializeWithCachedSizes@ServersDeleteSessionMessage@@UBEXPAVCodedOutputStream@io@protobuf@google@@@Z 10187d60 f   servers.pb.obj
 0002:0008ede0       ?SerializeWithCachedSizes@ServersDeleteSessionResultMessage@@UBEXPAVCodedOutputStream@io@protobuf@google@@@Z 10187de0 f   servers.pb.obj
 0002:0008ee60       ?SerializeWithCachedSizes@ServersGetSessionsMessage@@UBEXPAVCodedOutputStream@io@protobuf@google@@@Z 10187e60 f   servers.pb.obj
 0002:0008eee0       ?SerializeWithCachedSizes@ServersGetSessionsResultMessage@@UBEXPAVCodedOutputStream@io@protobuf@google@@@Z 10187ee0 f   servers.pb.obj
 0002:0008ef80       ?SerializeWithCachedSizes@ServersUpdateSessionMessage@@UBEXPAVCodedOutputStream@io@protobuf@google@@@Z 10187f80 f   servers.pb.obj
 0002:0008f0c0       ?SerializeWithCachedSizes@ServersUpdateSessionResultMessage@@UBEXPAVCodedOutputStream@io@protobuf@google@@@Z 101880c0 f   servers.pb.obj
 0002:0008f140       ?SerializeWithCachedSizes@SessionInfo@@UBEXPAVCodedOutputStream@io@protobuf@google@@@Z 10188140 f   servers.pb.obj
 0002:0008f310       ?SetCachedSize@ServersCreateSessionMessage@@ABEXH@Z 10188310 f   servers.pb.obj
 0002:0008f340       ?SetCachedSize@ServersCreateSessionResultMessage@@ABEXH@Z 10188340 f   servers.pb.obj
 0002:0008f370       ?SetCachedSize@ServersDeleteSessionMessage@@ABEXH@Z 10188370 f   servers.pb.obj
 0002:0008f3a0       ?SetCachedSize@ServersDeleteSessionResultMessage@@ABEXH@Z 101883a0 f   servers.pb.obj
 0002:0008f3d0       ?SetCachedSize@ServersGetSessionsMessage@@ABEXH@Z 101883d0 f   servers.pb.obj
 0002:0008f400       ?SetCachedSize@ServersGetSessionsResultMessage@@ABEXH@Z 10188400 f   servers.pb.obj
 0002:0008f430       ?SetCachedSize@ServersUpdateSessionMessage@@ABEXH@Z 10188430 f   servers.pb.obj
 0002:0008f460       ?SetCachedSize@ServersUpdateSessionResultMessage@@ABEXH@Z 10188460 f   servers.pb.obj
 0002:0008f490       ?SetCachedSize@SessionInfo@@ABEXH@Z 10188490 f   servers.pb.obj
 0002:0008f4c0       ?SharedCtor@ServersCreateSessionMessage@@AAEXXZ 101884c0 f   servers.pb.obj
 0002:0008f510       ?SharedCtor@ServersCreateSessionResultMessage@@AAEXXZ 10188510 f   servers.pb.obj
 0002:0008f570       ?SharedCtor@ServersDeleteSessionMessage@@AAEXXZ 10188570 f   servers.pb.obj
 0002:0008f5d0       ?SharedCtor@ServersDeleteSessionResultMessage@@AAEXXZ 101885d0 f   servers.pb.obj
 0002:0008f620       ?SharedCtor@ServersGetSessionsMessage@@AAEXXZ 10188620 f   servers.pb.obj
 0002:0008f670       ?SharedCtor@ServersGetSessionsResultMessage@@AAEXXZ 10188670 f   servers.pb.obj
 0002:0008f6b0       ?SharedCtor@ServersUpdateSessionMessage@@AAEXXZ 101886b0 f   servers.pb.obj
 0002:0008f740       ?SharedCtor@ServersUpdateSessionResultMessage@@AAEXXZ 10188740 f   servers.pb.obj
 0002:0008f790       ?SharedCtor@SessionInfo@@AAEXXZ 10188790 f   servers.pb.obj
 0002:0008f850       ?SharedDtor@ServersCreateSessionMessage@@AAEXXZ 10188850 f   servers.pb.obj
 0002:0008f8b0       ?SharedDtor@ServersCreateSessionResultMessage@@AAEXXZ 101888b0 f   servers.pb.obj
 0002:0008f8d0       ?SharedDtor@ServersDeleteSessionMessage@@AAEXXZ 101888d0 f   servers.pb.obj
 0002:0008f8f0       ?SharedDtor@ServersDeleteSessionResultMessage@@AAEXXZ 101888f0 f   servers.pb.obj
 0002:0008f910       ?SharedDtor@ServersGetSessionsMessage@@AAEXXZ 10188910 f   servers.pb.obj
 0002:0008f970       ?SharedDtor@ServersGetSessionsResultMessage@@AAEXXZ 10188970 f   servers.pb.obj
 0002:0008f990       ?SharedDtor@ServersUpdateSessionMessage@@AAEXXZ 10188990 f   servers.pb.obj
 0002:0008fa40       ?SharedDtor@ServersUpdateSessionResultMessage@@AAEXXZ 10188a40 f   servers.pb.obj
 0002:0008fa60       ?SharedDtor@SessionInfo@@AAEXXZ 10188a60 f   servers.pb.obj
 0002:0008fb10       ?Swap@?$RepeatedPtrField@VSessionInfo@@@protobuf@google@@QAEXPAV123@@Z 10188b10 f i servers.pb.obj
 0002:0008fb40       ?Swap@ServersCreateSessionMessage@@QAEXPAV1@@Z 10188b40 f   servers.pb.obj
 0002:0008fbf0       ?Swap@ServersCreateSessionResultMessage@@QAEXPAV1@@Z 10188bf0 f   servers.pb.obj
 0002:0008fcb0       ?Swap@ServersDeleteSessionMessage@@QAEXPAV1@@Z 10188cb0 f   servers.pb.obj
 0002:0008fd60       ?Swap@ServersDeleteSessionResultMessage@@QAEXPAV1@@Z 10188d60 f   servers.pb.obj
 0002:0008fe10       ?Swap@ServersGetSessionsMessage@@QAEXPAV1@@Z 10188e10 f   servers.pb.obj
 0002:0008fec0       ?Swap@ServersGetSessionsResultMessage@@QAEXPAV1@@Z 10188ec0 f   servers.pb.obj
 0002:0008ff60       ?Swap@ServersUpdateSessionMessage@@QAEXPAV1@@Z 10188f60 f   servers.pb.obj
 0002:00090080       ?Swap@ServersUpdateSessionResultMessage@@QAEXPAV1@@Z 10189080 f   servers.pb.obj
 0002:00090130       ?Swap@SessionInfo@@QAEXPAV1@@Z 10189130 f   servers.pb.obj
 0002:000902a0       ?UInt32Size@WireFormatLite@internal@protobuf@google@@SAHI@Z 101892a0 f i servers.pb.obj
 0002:000902d0       ?add_servers@ServersGetSessionsResultMessage@@QAEPAVSessionInfo@@XZ 101892d0 f i servers.pb.obj
 0002:00090300       ?default_instance@ServersCreateSessionMessage@@SAABV1@XZ 10189300 f   servers.pb.obj
 0002:00090330       ?default_instance@ServersCreateSessionResultMessage@@SAABV1@XZ 10189330 f   servers.pb.obj
 0002:00090360       ?default_instance@ServersDeleteSessionMessage@@SAABV1@XZ 10189360 f   servers.pb.obj
 0002:00090390       ?default_instance@ServersDeleteSessionResultMessage@@SAABV1@XZ 10189390 f   servers.pb.obj
 0002:000903c0       ?default_instance@ServersGetSessionsMessage@@SAABV1@XZ 101893c0 f   servers.pb.obj
 0002:000903f0       ?default_instance@ServersGetSessionsResultMessage@@SAABV1@XZ 101893f0 f   servers.pb.obj
 0002:00090420       ?default_instance@ServersUpdateSessionMessage@@SAABV1@XZ 10189420 f   servers.pb.obj
 0002:00090450       ?default_instance@ServersUpdateSessionResultMessage@@SAABV1@XZ 10189450 f   servers.pb.obj
 0002:00090480       ?default_instance@SessionInfo@@SAABV1@XZ 10189480 f   servers.pb.obj
 0002:000904b0       ?has_address@SessionInfo@@QBE_NXZ 101894b0 f i servers.pb.obj
 0002:00090500       ?has_hostname@ServersUpdateSessionMessage@@QBE_NXZ 10189500 f i servers.pb.obj
 0002:00090550       ?has_hostname@SessionInfo@@QBE_NXZ 10189550 f i servers.pb.obj
 0002:000905a0       ?has_info@ServersCreateSessionMessage@@QBE_NXZ 101895a0 f i servers.pb.obj
 0002:000905f0       ?has_mapname@ServersUpdateSessionMessage@@QBE_NXZ 101895f0 f i servers.pb.obj
 0002:00090640       ?has_mapname@SessionInfo@@QBE_NXZ 10189640 f i servers.pb.obj
 0002:00090690       ?has_maxplayers@ServersUpdateSessionMessage@@QBE_NXZ 10189690 f i servers.pb.obj
 0002:000906e0       ?has_maxplayers@SessionInfo@@QBE_NXZ 101896e0 f i servers.pb.obj
 0002:00090730       ?has_npid@SessionInfo@@QBE_NXZ 10189730 f i servers.pb.obj
 0002:00090780       ?has_players@ServersUpdateSessionMessage@@QBE_NXZ 10189780 f i servers.pb.obj
 0002:000907d0       ?has_players@SessionInfo@@QBE_NXZ 101897d0 f i servers.pb.obj
 0002:00090820       ?has_port@SessionInfo@@QBE_NXZ 10189820 f i servers.pb.obj
 0002:00090870       ?has_result@ServersCreateSessionResultMessage@@QBE_NXZ 10189870 f i servers.pb.obj
 0002:000908c0       ?has_result@ServersDeleteSessionResultMessage@@QBE_NXZ 101898c0 f i servers.pb.obj
 0002:00090910       ?has_result@ServersUpdateSessionResultMessage@@QBE_NXZ 10189910 f i servers.pb.obj
 0002:00090960       ?has_sessionid@ServersCreateSessionResultMessage@@QBE_NXZ 10189960 f i servers.pb.obj
 0002:000909b0       ?has_sessionid@ServersDeleteSessionMessage@@QBE_NXZ 101899b0 f i servers.pb.obj
 0002:00090a00       ?has_sessionid@ServersUpdateSessionMessage@@QBE_NXZ 10189a00 f i servers.pb.obj
 0002:00090a50       ?has_tags@ServersGetSessionsMessage@@QBE_NXZ 10189a50 f i servers.pb.obj
 0002:00090aa0       ?has_version@SessionInfo@@QBE_NXZ 10189aa0 f i servers.pb.obj
 0002:00090af0       ?hostname@ServersUpdateSessionMessage@@QBEABV?$basic_string@DU?$char_traits@D@std@@V?$allocator@D@2@@std@@XZ 10189af0 f i servers.pb.obj
 0002:00090b10       ?info@ServersCreateSessionMessage@@QBEABVSessionInfo@@XZ 10189b10 f i servers.pb.obj
 0002:00090b60       ?mapname@ServersUpdateSessionMessage@@QBEABV?$basic_string@DU?$char_traits@D@std@@V?$allocator@D@2@@std@@XZ 10189b60 f i servers.pb.obj
 0002:00090b80       ?maxplayers@ServersUpdateSessionMessage@@QBEHXZ 10189b80 f i servers.pb.obj
 0002:00090ba0       ?mutable_hostname@ServersUpdateSessionMessage@@QAEPAV?$basic_string@DU?$char_traits@D@std@@V?$allocator@D@2@@std@@XZ 10189ba0 f i servers.pb.obj
 0002:00090c70       ?mutable_hostname@SessionInfo@@QAEPAV?$basic_string@DU?$char_traits@D@std@@V?$allocator@D@2@@std@@XZ 10189c70 f i servers.pb.obj
 0002:00090d40       ?mutable_mapname@ServersUpdateSessionMessage@@QAEPAV?$basic_string@DU?$char_traits@D@std@@V?$allocator@D@2@@std@@XZ 10189d40 f i servers.pb.obj
 0002:00090e10       ?mutable_mapname@SessionInfo@@QAEPAV?$basic_string@DU?$char_traits@D@std@@V?$allocator@D@2@@std@@XZ 10189e10 f i servers.pb.obj
 0002:00090ee0       ?mutable_tags@ServersGetSessionsMessage@@QAEPAV?$basic_string@DU?$char_traits@D@std@@V?$allocator@D@2@@std@@XZ 10189ee0 f i servers.pb.obj
 0002:00090fb0       ?mutable_unknown_fields@ServersCreateSessionMessage@@QAEPAV?$basic_string@DU?$char_traits@D@std@@V?$allocator@D@2@@std@@XZ 10189fb0 f i servers.pb.obj
 0002:00090fd0       ?mutable_unknown_fields@ServersCreateSessionResultMessage@@QAEPAV?$basic_string@DU?$char_traits@D@std@@V?$allocator@D@2@@std@@XZ 10189fd0 f i servers.pb.obj
 0002:00090ff0       ?mutable_unknown_fields@ServersDeleteSessionMessage@@QAEPAV?$basic_string@DU?$char_traits@D@std@@V?$allocator@D@2@@std@@XZ 10189ff0 f i servers.pb.obj
 0002:00091010       ?mutable_unknown_fields@ServersDeleteSessionResultMessage@@QAEPAV?$basic_string@DU?$char_traits@D@std@@V?$allocator@D@2@@std@@XZ 1018a010 f i servers.pb.obj
 0002:00091030       ?mutable_unknown_fields@ServersGetSessionsMessage@@QAEPAV?$basic_string@DU?$char_traits@D@std@@V?$allocator@D@2@@std@@XZ 1018a030 f i servers.pb.obj
 0002:00091050       ?mutable_unknown_fields@ServersGetSessionsResultMessage@@QAEPAV?$basic_string@DU?$char_traits@D@std@@V?$allocator@D@2@@std@@XZ 1018a050 f i servers.pb.obj
 0002:00091070       ?mutable_unknown_fields@ServersUpdateSessionMessage@@QAEPAV?$basic_string@DU?$char_traits@D@std@@V?$allocator@D@2@@std@@XZ 1018a070 f i servers.pb.obj
 0002:00091090       ?mutable_unknown_fields@ServersUpdateSessionResultMessage@@QAEPAV?$basic_string@DU?$char_traits@D@std@@V?$allocator@D@2@@std@@XZ 1018a090 f i servers.pb.obj
 0002:000910b0       ?mutable_unknown_fields@SessionInfo@@QAEPAV?$basic_string@DU?$char_traits@D@std@@V?$allocator@D@2@@std@@XZ 1018a0b0 f i servers.pb.obj
 0002:000910d0       ?players@ServersUpdateSessionMessage@@QBEHXZ 1018a0d0 f i servers.pb.obj
 0002:000910f0       ?protobuf_AddDesc_servers_2eproto@@YAXXZ 1018a0f0 f   servers.pb.obj
 0002:000915a0       ?protobuf_ShutdownFile_servers_2eproto@@YAXXZ 1018a5a0 f   servers.pb.obj
 0002:00091820       ?result@ServersDeleteSessionResultMessage@@QBEHXZ 1018a820 f i servers.pb.obj
 0002:00091840       ?sessionid@ServersDeleteSessionMessage@@QBE_KXZ 1018a840 f i servers.pb.obj
 0002:00091870       ?sessionid@ServersUpdateSessionMessage@@QBE_KXZ 1018a870 f i servers.pb.obj
 0002:000918a0       ?set_address@SessionInfo@@QAEXI@Z 1018a8a0 f i servers.pb.obj
 0002:000918d0       ?set_has_address@SessionInfo@@AAEXXZ 1018a8d0 f i servers.pb.obj
 0002:00091920       ?set_has_npid@SessionInfo@@AAEXXZ 1018a920 f i servers.pb.obj
 0002:00091970       ?set_has_port@SessionInfo@@AAEXXZ 1018a970 f i servers.pb.obj
 0002:000919c0       ?set_has_result@ServersCreateSessionResultMessage@@AAEXXZ 1018a9c0 f i servers.pb.obj
 0002:00091a10       ?set_has_result@ServersDeleteSessionResultMessage@@AAEXXZ 1018aa10 f i servers.pb.obj
 0002:00091a60       ?set_has_result@ServersUpdateSessionResultMessage@@AAEXXZ 1018aa60 f i servers.pb.obj
 0002:00091ab0       ?set_has_sessionid@ServersCreateSessionResultMessage@@AAEXXZ 1018aab0 f i servers.pb.obj
 0002:00091b00       ?set_hostname@ServersUpdateSessionMessage@@QAEXABV?$basic_string@DU?$char_traits@D@std@@V?$allocator@D@2@@std@@@Z 1018ab00 f i servers.pb.obj
 0002:00091bd0       ?set_hostname@SessionInfo@@QAEXABV?$basic_string@DU?$char_traits@D@std@@V?$allocator@D@2@@std@@@Z 1018abd0 f i servers.pb.obj
 0002:00091ca0       ?set_mapname@ServersUpdateSessionMessage@@QAEXABV?$basic_string@DU?$char_traits@D@std@@V?$allocator@D@2@@std@@@Z 1018aca0 f i servers.pb.obj
 0002:00091d70       ?set_mapname@SessionInfo@@QAEXABV?$basic_string@DU?$char_traits@D@std@@V?$allocator@D@2@@std@@@Z 1018ad70 f i servers.pb.obj
 0002:00091e40       ?set_npid@SessionInfo@@QAEX_K@Z 1018ae40 f i servers.pb.obj
 0002:00091e80       ?set_port@SessionInfo@@QAEXH@Z 1018ae80 f i servers.pb.obj
 0002:00091eb0       ?set_result@ServersCreateSessionResultMessage@@QAEXH@Z 1018aeb0 f i servers.pb.obj
 0002:00091ee0       ?set_result@ServersDeleteSessionResultMessage@@QAEXH@Z 1018aee0 f i servers.pb.obj
 0002:00091f10       ?set_result@ServersUpdateSessionResultMessage@@QAEXH@Z 1018af10 f i servers.pb.obj
 0002:00091f40       ?set_sessionid@ServersCreateSessionResultMessage@@QAEX_K@Z 1018af40 f i servers.pb.obj
 0002:00091f80       ?set_tags@ServersGetSessionsMessage@@QAEXABV?$basic_string@DU?$char_traits@D@std@@V?$allocator@D@2@@std@@@Z 1018af80 f i servers.pb.obj
 0002:00092050       ?tags@ServersGetSessionsMessage@@QBEABV?$basic_string@DU?$char_traits@D@std@@V?$allocator@D@2@@std@@XZ 1018b050 f i servers.pb.obj
 0002:00092070       ?unknown_fields@ServersCreateSessionMessage@@QBEABV?$basic_string@DU?$char_traits@D@std@@V?$allocator@D@2@@std@@XZ 1018b070 f i servers.pb.obj
 0002:00092090       ?unknown_fields@ServersCreateSessionResultMessage@@QBEABV?$basic_string@DU?$char_traits@D@std@@V?$allocator@D@2@@std@@XZ 1018b090 f i servers.pb.obj
 0002:000920b0       ?unknown_fields@ServersDeleteSessionMessage@@QBEABV?$basic_string@DU?$char_traits@D@std@@V?$allocator@D@2@@std@@XZ 1018b0b0 f i servers.pb.obj
 0002:000920d0       ?unknown_fields@ServersDeleteSessionResultMessage@@QBEABV?$basic_string@DU?$char_traits@D@std@@V?$allocator@D@2@@std@@XZ 1018b0d0 f i servers.pb.obj
 0002:000920f0       ?unknown_fields@ServersGetSessionsMessage@@QBEABV?$basic_string@DU?$char_traits@D@std@@V?$allocator@D@2@@std@@XZ 1018b0f0 f i servers.pb.obj
 0002:00092110       ?unknown_fields@ServersGetSessionsResultMessage@@QBEABV?$basic_string@DU?$char_traits@D@std@@V?$allocator@D@2@@std@@XZ 1018b110 f i servers.pb.obj
 0002:00092130       ?unknown_fields@ServersUpdateSessionMessage@@QBEABV?$basic_string@DU?$char_traits@D@std@@V?$allocator@D@2@@std@@XZ 1018b130 f i servers.pb.obj
 0002:00092150       ?unknown_fields@ServersUpdateSessionResultMessage@@QBEABV?$basic_string@DU?$char_traits@D@std@@V?$allocator@D@2@@std@@XZ 1018b150 f i servers.pb.obj
 0002:00092170       ?unknown_fields@SessionInfo@@QBEABV?$basic_string@DU?$char_traits@D@std@@V?$allocator@D@2@@std@@XZ 1018b170 f i servers.pb.obj
 0002:00092190       ??$down_cast@PBVStorageGetPublisherFileMessage@@$$CBVMessageLite@protobuf@google@@@internal@protobuf@google@@YAPBVStorageGetPublisherFileMessage@@PBVMessageLite@12@@Z 1018b190 f i storage.pb.obj
 0002:000921d0       ??$down_cast@PBVStorageGetUserFileMessage@@$$CBVMessageLite@protobuf@google@@@internal@protobuf@google@@YAPBVStorageGetUserFileMessage@@PBVMessageLite@12@@Z 1018b1d0 f i storage.pb.obj
 0002:00092210       ??$down_cast@PBVStoragePublisherFileMessage@@$$CBVMessageLite@protobuf@google@@@internal@protobuf@google@@YAPBVStoragePublisherFileMessage@@PBVMessageLite@12@@Z 1018b210 f i storage.pb.obj
 0002:00092250       ??$down_cast@PBVStorageSendRandomStringMessage@@$$CBVMessageLite@protobuf@google@@@internal@protobuf@google@@YAPBVStorageSendRandomStringMessage@@PBVMessageLite@12@@Z 1018b250 f i storage.pb.obj
 0002:00092290       ??$down_cast@PBVStorageUserFileMessage@@$$CBVMessageLite@protobuf@google@@@internal@protobuf@google@@YAPBVStorageUserFileMessage@@PBVMessageLite@12@@Z 1018b290 f i storage.pb.obj
 0002:000922d0       ??$down_cast@PBVStorageWriteUserFileMessage@@$$CBVMessageLite@protobuf@google@@@internal@protobuf@google@@YAPBVStorageWriteUserFileMessage@@PBVMessageLite@12@@Z 1018b2d0 f i storage.pb.obj
 0002:00092310       ??$down_cast@PBVStorageWriteUserFileResultMessage@@$$CBVMessageLite@protobuf@google@@@internal@protobuf@google@@YAPBVStorageWriteUserFileResultMessage@@PBVMessageLite@12@@Z 1018b310 f i storage.pb.obj
 0002:00092350       ??$implicit_cast@PBVMessageLite@protobuf@google@@PBVStorageGetPublisherFileMessage@@@internal@protobuf@google@@YAPBVMessageLite@12@ABQBVStorageGetPublisherFileMessage@@@Z 1018b350 f i storage.pb.obj
 0002:00092370       ??$implicit_cast@PBVMessageLite@protobuf@google@@PBVStorageGetUserFileMessage@@@internal@protobuf@google@@YAPBVMessageLite@12@ABQBVStorageGetUserFileMessage@@@Z 1018b370 f i storage.pb.obj
 0002:00092390       ??$implicit_cast@PBVMessageLite@protobuf@google@@PBVStoragePublisherFileMessage@@@internal@protobuf@google@@YAPBVMessageLite@12@ABQBVStoragePublisherFileMessage@@@Z 1018b390 f i storage.pb.obj
 0002:000923b0       ??$implicit_cast@PBVMessageLite@protobuf@google@@PBVStorageSendRandomStringMessage@@@internal@protobuf@google@@YAPBVMessageLite@12@ABQBVStorageSendRandomStringMessage@@@Z 1018b3b0 f i storage.pb.obj
 0002:000923d0       ??$implicit_cast@PBVMessageLite@protobuf@google@@PBVStorageUserFileMessage@@@internal@protobuf@google@@YAPBVMessageLite@12@ABQBVStorageUserFileMessage@@@Z 1018b3d0 f i storage.pb.obj
 0002:000923f0       ??$implicit_cast@PBVMessageLite@protobuf@google@@PBVStorageWriteUserFileMessage@@@internal@protobuf@google@@YAPBVMessageLite@12@ABQBVStorageWriteUserFileMessage@@@Z 1018b3f0 f i storage.pb.obj
 0002:00092410       ??$implicit_cast@PBVMessageLite@protobuf@google@@PBVStorageWriteUserFileResultMessage@@@internal@protobuf@google@@YAPBVMessageLite@12@ABQBVStorageWriteUserFileResultMessage@@@Z 1018b410 f i storage.pb.obj
 0002:00092430       ??0StaticDescriptorInitializer_storage_2eproto@@QAE@XZ 1018b430 f i storage.pb.obj
 0002:00092460       ??0StorageGetPublisherFileMessage@@QAE@ABV0@@Z 1018b460 f   storage.pb.obj
 0002:00092510       ??0StorageGetPublisherFileMessage@@QAE@XZ 1018b510 f   storage.pb.obj
 0002:000925b0       ??0StorageGetUserFileMessage@@QAE@ABV0@@Z 1018b5b0 f   storage.pb.obj
 0002:00092660       ??0StorageGetUserFileMessage@@QAE@XZ 1018b660 f   storage.pb.obj
 0002:00092700       ??0StoragePublisherFileMessage@@QAE@ABV0@@Z 1018b700 f   storage.pb.obj
 0002:000927b0       ??0StoragePublisherFileMessage@@QAE@XZ 1018b7b0 f   storage.pb.obj
 0002:00092850       ??0StorageSendRandomStringMessage@@QAE@ABV0@@Z 1018b850 f   storage.pb.obj
 0002:00092900       ??0StorageSendRandomStringMessage@@QAE@XZ 1018b900 f   storage.pb.obj
 0002:000929a0       ??0StorageUserFileMessage@@QAE@ABV0@@Z 1018b9a0 f   storage.pb.obj
 0002:00092a50       ??0StorageUserFileMessage@@QAE@XZ 1018ba50 f   storage.pb.obj
 0002:00092af0       ??0StorageWriteUserFileMessage@@QAE@ABV0@@Z 1018baf0 f   storage.pb.obj
 0002:00092ba0       ??0StorageWriteUserFileMessage@@QAE@XZ 1018bba0 f   storage.pb.obj
 0002:00092c40       ??0StorageWriteUserFileResultMessage@@QAE@ABV0@@Z 1018bc40 f   storage.pb.obj
 0002:00092cf0       ??0StorageWriteUserFileResultMessage@@QAE@XZ 1018bcf0 f   storage.pb.obj
 0002:00092d90       ??1StorageGetPublisherFileMessage@@UAE@XZ 1018bd90 f   storage.pb.obj
 0002:00092e20       ??1StorageGetUserFileMessage@@UAE@XZ 1018be20 f   storage.pb.obj
 0002:00092eb0       ??1StoragePublisherFileMessage@@UAE@XZ 1018beb0 f   storage.pb.obj
 0002:00092f40       ??1StorageSendRandomStringMessage@@UAE@XZ 1018bf40 f   storage.pb.obj
 0002:00092fd0       ??1StorageUserFileMessage@@UAE@XZ 1018bfd0 f   storage.pb.obj
 0002:00093060       ??1StorageWriteUserFileMessage@@UAE@XZ 1018c060 f   storage.pb.obj
 0002:000930f0       ??1StorageWriteUserFileResultMessage@@UAE@XZ 1018c0f0 f   storage.pb.obj
 0002:00093180       ??_GStorageGetPublisherFileMessage@@UAEPAXI@Z 1018c180 f i storage.pb.obj
 0002:00093180       ??_EStorageGetPublisherFileMessage@@UAEPAXI@Z 1018c180 f i storage.pb.obj
